ARM GAS  C:\Users\Administrator\AppData\Local\Temp\cc8knBFd.s 			page 1


   1              		.cpu cortex-m0plus
   2              		.fpu softvfp
   3              		.eabi_attribute 20, 1
   4              		.eabi_attribute 21, 1
   5              		.eabi_attribute 23, 3
   6              		.eabi_attribute 24, 1
   7              		.eabi_attribute 25, 1
   8              		.eabi_attribute 26, 1
   9              		.eabi_attribute 30, 1
  10              		.eabi_attribute 34, 0
  11              		.eabi_attribute 18, 4
  12              		.code	16
  13              		.file	"key_touch_Filter.c"
  14              		.text
  15              	.Ltext0:
  16              		.cfi_sections	.debug_frame
  17              		.section	.text.key_touch_FtInitialize,"ax",%progbits
  18              		.align	2
  19              		.global	key_touch_FtInitialize
  20              		.code	16
  21              		.thumb_func
  22              		.type	key_touch_FtInitialize, %function
  23              	key_touch_FtInitialize:
  24              	.LFB1:
  25              		.file 1 "Generated_Source\\PSoC4\\key_touch_Filter.c"
   1:Generated_Source\PSoC4/key_touch_Filter.c **** /***************************************************************************//**
   2:Generated_Source\PSoC4/key_touch_Filter.c **** * \file     key_touch_Filter.c
   3:Generated_Source\PSoC4/key_touch_Filter.c **** * \version  3.10
   4:Generated_Source\PSoC4/key_touch_Filter.c **** *
   5:Generated_Source\PSoC4/key_touch_Filter.c **** * \brief    This file contains the implementation source code to implement all 
   6:Generated_Source\PSoC4/key_touch_Filter.c **** *           firmware filters.
   7:Generated_Source\PSoC4/key_touch_Filter.c **** *
   8:Generated_Source\PSoC4/key_touch_Filter.c **** * \see      CapSense P4 v3.10 Datasheet
   9:Generated_Source\PSoC4/key_touch_Filter.c **** * 
  10:Generated_Source\PSoC4/key_touch_Filter.c **** *//*****************************************************************************
  11:Generated_Source\PSoC4/key_touch_Filter.c **** * Copyright (2016), Cypress Semiconductor Corporation.
  12:Generated_Source\PSoC4/key_touch_Filter.c **** ********************************************************************************
  13:Generated_Source\PSoC4/key_touch_Filter.c **** * This software is owned by Cypress Semiconductor Corporation (Cypress) and is
  14:Generated_Source\PSoC4/key_touch_Filter.c **** * protected by and subject to worldwide patent protection (United States and
  15:Generated_Source\PSoC4/key_touch_Filter.c **** * foreign), United States copyright laws and international treaty provisions.
  16:Generated_Source\PSoC4/key_touch_Filter.c **** * Cypress hereby grants to licensee a personal, non-exclusive, non-transferable
  17:Generated_Source\PSoC4/key_touch_Filter.c **** * license to copy, use, modify, create derivative works of, and compile the
  18:Generated_Source\PSoC4/key_touch_Filter.c **** * Cypress Source Code and derivative works for the sole purpose of creating
  19:Generated_Source\PSoC4/key_touch_Filter.c **** * custom software in support of licensee product to be used only in conjunction
  20:Generated_Source\PSoC4/key_touch_Filter.c **** * with a Cypress integrated circuit as specified in the applicable agreement.
  21:Generated_Source\PSoC4/key_touch_Filter.c **** * Any reproduction, modification, translation, compilation, or representation of
  22:Generated_Source\PSoC4/key_touch_Filter.c **** * this software except as specified above is prohibited without the express
  23:Generated_Source\PSoC4/key_touch_Filter.c **** * written permission of Cypress.
  24:Generated_Source\PSoC4/key_touch_Filter.c **** *
  25:Generated_Source\PSoC4/key_touch_Filter.c **** * Disclaimer: CYPRESS MAKES NO WARRANTY OF ANY KIND, EXPRESS OR IMPLIED, WITH
  26:Generated_Source\PSoC4/key_touch_Filter.c **** * REGARD TO THIS MATERIAL, INCLUDING, BUT NOT LIMITED TO, THE IMPLIED
  27:Generated_Source\PSoC4/key_touch_Filter.c **** * WARRANTIES OF MERCHANTABILITY AND FITNESS FOR A PARTICULAR PURPOSE.
  28:Generated_Source\PSoC4/key_touch_Filter.c **** * Cypress reserves the right to make changes without further notice to the
  29:Generated_Source\PSoC4/key_touch_Filter.c **** * materials described herein. Cypress does not assume any liability arising out
  30:Generated_Source\PSoC4/key_touch_Filter.c **** * of the application or use of any product or circuit described herein. Cypress
  31:Generated_Source\PSoC4/key_touch_Filter.c **** * does not authorize its products for use as critical components in life-support
  32:Generated_Source\PSoC4/key_touch_Filter.c **** * systems where a malfunction or failure may reasonably be expected to result in
ARM GAS  C:\Users\Administrator\AppData\Local\Temp\cc8knBFd.s 			page 2


  33:Generated_Source\PSoC4/key_touch_Filter.c **** * significant injury to the user. The inclusion of Cypress' product in a life-
  34:Generated_Source\PSoC4/key_touch_Filter.c **** * support systems application implies that the manufacturer assumes all risk of
  35:Generated_Source\PSoC4/key_touch_Filter.c **** * such use and in doing so indemnifies Cypress against all charges. Use may be
  36:Generated_Source\PSoC4/key_touch_Filter.c **** * limited by and subject to the applicable Cypress software license agreement.
  37:Generated_Source\PSoC4/key_touch_Filter.c **** *******************************************************************************/
  38:Generated_Source\PSoC4/key_touch_Filter.c **** 
  39:Generated_Source\PSoC4/key_touch_Filter.c **** #include "key_touch_Filter.h"
  40:Generated_Source\PSoC4/key_touch_Filter.c **** #include "key_touch_Configuration.h"
  41:Generated_Source\PSoC4/key_touch_Filter.c **** 
  42:Generated_Source\PSoC4/key_touch_Filter.c **** #if (0 != (key_touch_CSD_AUTOTUNE & key_touch_CSD_SS_TH_EN))
  43:Generated_Source\PSoC4/key_touch_Filter.c ****     #include "key_touch_SmartSense_LL.h"
  44:Generated_Source\PSoC4/key_touch_Filter.c **** #endif /* (0 != (key_touch_CSD_AUTOTUNE & key_touch_CSD_SS_TH_EN)) */
  45:Generated_Source\PSoC4/key_touch_Filter.c **** 
  46:Generated_Source\PSoC4/key_touch_Filter.c **** #if (key_touch_ENABLE == key_touch_SELF_TEST_EN)
  47:Generated_Source\PSoC4/key_touch_Filter.c ****     #include "key_touch_SelfTest.h"
  48:Generated_Source\PSoC4/key_touch_Filter.c **** #endif
  49:Generated_Source\PSoC4/key_touch_Filter.c **** 
  50:Generated_Source\PSoC4/key_touch_Filter.c **** /*******************************************************************************
  51:Generated_Source\PSoC4/key_touch_Filter.c **** * Function Name: key_touch_FtInitialize
  52:Generated_Source\PSoC4/key_touch_Filter.c **** ****************************************************************************//**
  53:Generated_Source\PSoC4/key_touch_Filter.c **** *
  54:Generated_Source\PSoC4/key_touch_Filter.c **** * \brief
  55:Generated_Source\PSoC4/key_touch_Filter.c **** *    Initializes all the firmware filter history, except the baseline filter.
  56:Generated_Source\PSoC4/key_touch_Filter.c **** *
  57:Generated_Source\PSoC4/key_touch_Filter.c **** * \details
  58:Generated_Source\PSoC4/key_touch_Filter.c **** *    Initializes all the firmware filter history, except the baseline filter.
  59:Generated_Source\PSoC4/key_touch_Filter.c **** *
  60:Generated_Source\PSoC4/key_touch_Filter.c **** *******************************************************************************/
  61:Generated_Source\PSoC4/key_touch_Filter.c **** void key_touch_FtInitialize(void)
  62:Generated_Source\PSoC4/key_touch_Filter.c **** {
  26              		.loc 1 62 0
  27              		.cfi_startproc
  28              	.LVL0:
  63:Generated_Source\PSoC4/key_touch_Filter.c ****     uint32 widgetId;
  64:Generated_Source\PSoC4/key_touch_Filter.c ****     uint32 sensorId;
  65:Generated_Source\PSoC4/key_touch_Filter.c ****     uint32 sensorsNumber;
  66:Generated_Source\PSoC4/key_touch_Filter.c **** 
  67:Generated_Source\PSoC4/key_touch_Filter.c ****     key_touch_FLASH_WD_STRUCT const *ptrWidget;
  68:Generated_Source\PSoC4/key_touch_Filter.c ****     key_touch_RAM_SNS_STRUCT *ptrSensor = NULL;
  69:Generated_Source\PSoC4/key_touch_Filter.c ****     key_touch_PTR_FILTER_VARIANT ptrFilterHistObj;
  70:Generated_Source\PSoC4/key_touch_Filter.c ****     
  71:Generated_Source\PSoC4/key_touch_Filter.c ****     #if key_touch_CSD_AUTOTUNE & key_touch_CSD_SS_TH_EN
  72:Generated_Source\PSoC4/key_touch_Filter.c ****         key_touch_RAM_WD_BASE_STRUCT *ptrWidgetRam;
  73:Generated_Source\PSoC4/key_touch_Filter.c ****         SMARTSENSE_CSD_NOISE_ENVELOPE_STRUCT *ptrNoiseEnvelope = NULL;
  74:Generated_Source\PSoC4/key_touch_Filter.c ****     #endif /* #if key_touch_CSD_AUTOTUNE & key_touch_CSD_SS_TH_EN */
  75:Generated_Source\PSoC4/key_touch_Filter.c ****     
  76:Generated_Source\PSoC4/key_touch_Filter.c ****     for (widgetId = key_touch_TOTAL_WIDGETS; widgetId-- > 0u;)
  29              		.loc 1 76 0
  30 0000 0C23     		mov	r3, #12
  31 0002 0BE0     		b	.L2
  32              	.LVL1:
  33              	.L4:
  77:Generated_Source\PSoC4/key_touch_Filter.c ****     {
  78:Generated_Source\PSoC4/key_touch_Filter.c ****         ptrWidget = &key_touch_dsFlash.wdgtArray[widgetId];
  79:Generated_Source\PSoC4/key_touch_Filter.c ****         
  80:Generated_Source\PSoC4/key_touch_Filter.c ****         #if key_touch_CSD_AUTOTUNE & key_touch_CSD_SS_TH_EN
  81:Generated_Source\PSoC4/key_touch_Filter.c ****             ptrWidgetRam = ptrWidget->ptr2WdgtRam;
ARM GAS  C:\Users\Administrator\AppData\Local\Temp\cc8knBFd.s 			page 3


  82:Generated_Source\PSoC4/key_touch_Filter.c ****         #endif /* #if key_touch_CSD_AUTOTUNE & key_touch_CSD_SS_TH_EN */
  83:Generated_Source\PSoC4/key_touch_Filter.c **** 
  84:Generated_Source\PSoC4/key_touch_Filter.c ****         /* Find total amount of sensors in specified widget */   
  85:Generated_Source\PSoC4/key_touch_Filter.c ****         sensorsNumber = key_touch_GET_SNS_CNT_BY_PTR(ptrWidget);    
  34              		.loc 1 85 0
  35 0004 CB00     		lsl	r3, r1, #3
  36 0006 5B1A     		sub	r3, r3, r1
  37 0008 9B00     		lsl	r3, r3, #2
  38 000a 064A     		ldr	r2, .L6
  39 000c D318     		add	r3, r2, r3
  40 000e DB8A     		ldrh	r3, [r3, #22]
  41              	.LVL2:
  86:Generated_Source\PSoC4/key_touch_Filter.c ****     
  87:Generated_Source\PSoC4/key_touch_Filter.c ****         for (sensorId = sensorsNumber; sensorId-- > 0u;) 
  42              		.loc 1 87 0
  43 0010 00E0     		b	.L3
  44              	.LVL3:
  45              	.L5:
  46 0012 131C     		mov	r3, r2
  47              	.LVL4:
  48              	.L3:
  49              		.loc 1 87 0 is_stmt 0 discriminator 1
  50 0014 5A1E     		sub	r2, r3, #1
  51              	.LVL5:
  52 0016 002B     		cmp	r3, #0
  53 0018 FBD1     		bne	.L5
  76:Generated_Source\PSoC4/key_touch_Filter.c ****     {
  54              		.loc 1 76 0 is_stmt 1
  55 001a 0B1C     		mov	r3, r1
  56              	.LVL6:
  57              	.L2:
  76:Generated_Source\PSoC4/key_touch_Filter.c ****     {
  58              		.loc 1 76 0 is_stmt 0 discriminator 1
  59 001c 591E     		sub	r1, r3, #1
  60              	.LVL7:
  61 001e 002B     		cmp	r3, #0
  62 0020 F0D1     		bne	.L4
  88:Generated_Source\PSoC4/key_touch_Filter.c ****         {
  89:Generated_Source\PSoC4/key_touch_Filter.c ****             /* Find pointer to specified sensor object */
  90:Generated_Source\PSoC4/key_touch_Filter.c ****             ptrSensor = ptrWidget->ptr2SnsRam;
  91:Generated_Source\PSoC4/key_touch_Filter.c ****             ptrSensor = &ptrSensor[sensorId];
  92:Generated_Source\PSoC4/key_touch_Filter.c ****                         
  93:Generated_Source\PSoC4/key_touch_Filter.c ****             /* Find pointer to to specified filter sensor object */
  94:Generated_Source\PSoC4/key_touch_Filter.c ****             ptrFilterHistObj.ptr = ptrWidget->ptr2FltrHistory;
  95:Generated_Source\PSoC4/key_touch_Filter.c **** 
  96:Generated_Source\PSoC4/key_touch_Filter.c ****             #if key_touch_CSD_AUTOTUNE & key_touch_CSD_SS_TH_EN
  97:Generated_Source\PSoC4/key_touch_Filter.c ****                 /* Find pointer to specified noise envelope sensor object */
  98:Generated_Source\PSoC4/key_touch_Filter.c ****                 ptrNoiseEnvelope = ptrWidget->ptr2NoiseEnvlp;
  99:Generated_Source\PSoC4/key_touch_Filter.c ****                 ptrNoiseEnvelope = &ptrNoiseEnvelope[sensorId];    
 100:Generated_Source\PSoC4/key_touch_Filter.c ****             #endif /* #if key_touch_CSD_AUTOTUNE & key_touch_CSD_SS_TH_EN */
 101:Generated_Source\PSoC4/key_touch_Filter.c ****             
 102:Generated_Source\PSoC4/key_touch_Filter.c ****             if ((key_touch_WD_TYPE_ENUM)ptrWidget->wdgtType != key_touch_WD_PROXIMITY_E)
 103:Generated_Source\PSoC4/key_touch_Filter.c ****             {
 104:Generated_Source\PSoC4/key_touch_Filter.c ****                 #if (key_touch_REGULAR_SENSOR_EN)             
 105:Generated_Source\PSoC4/key_touch_Filter.c ****                     ptrFilterHistObj.ptrRegular = &ptrFilterHistObj.ptrRegular[sensorId];
 106:Generated_Source\PSoC4/key_touch_Filter.c ****                 #endif /* (key_touch_REGULAR_SENSOR_EN) */
 107:Generated_Source\PSoC4/key_touch_Filter.c ****             }
ARM GAS  C:\Users\Administrator\AppData\Local\Temp\cc8knBFd.s 			page 4


 108:Generated_Source\PSoC4/key_touch_Filter.c ****             else
 109:Generated_Source\PSoC4/key_touch_Filter.c ****             {
 110:Generated_Source\PSoC4/key_touch_Filter.c ****                 #if (key_touch_PROXIMITY_SENSOR_EN)             
 111:Generated_Source\PSoC4/key_touch_Filter.c ****                     ptrFilterHistObj.ptrProx = &ptrFilterHistObj.ptrProx[sensorId];
 112:Generated_Source\PSoC4/key_touch_Filter.c ****                 #endif /* (key_touch_PROXIMITY_SENSOR_EN) */
 113:Generated_Source\PSoC4/key_touch_Filter.c ****             }
 114:Generated_Source\PSoC4/key_touch_Filter.c ****             
 115:Generated_Source\PSoC4/key_touch_Filter.c ****             #if (key_touch_REGULAR_RC_IIR_FILTER_EN || key_touch_PROX_RC_IIR_FILTER_EN)
 116:Generated_Source\PSoC4/key_touch_Filter.c ****                 key_touch_InitializeIIRInternal(ptrFilterHistObj, ptrSensor, (uint32)ptrWidget->wdg
 117:Generated_Source\PSoC4/key_touch_Filter.c ****             #endif /* (key_touch_REGULAR_RC_IIR_FILTER_EN || key_touch_PROX_RC_IIR_FILTER_EN) */   
 118:Generated_Source\PSoC4/key_touch_Filter.c **** 
 119:Generated_Source\PSoC4/key_touch_Filter.c ****             #if (key_touch_REGULAR_RC_MEDIAN_FILTER_EN || key_touch_PROX_RC_MEDIAN_FILTER_EN)
 120:Generated_Source\PSoC4/key_touch_Filter.c ****                 key_touch_InitializeMedianInternal(ptrFilterHistObj, ptrSensor, (uint32)ptrWidget->
 121:Generated_Source\PSoC4/key_touch_Filter.c ****             #endif /* (key_touch_REGULAR_RC_MEDIAN_FILTER_EN || key_touch_PROX_RC_MEDIAN_FILTER_EN)
 122:Generated_Source\PSoC4/key_touch_Filter.c **** 
 123:Generated_Source\PSoC4/key_touch_Filter.c ****             #if (key_touch_REGULAR_RC_AVERAGE_FILTER_EN || key_touch_PROX_RC_AVERAGE_FILTER_EN)
 124:Generated_Source\PSoC4/key_touch_Filter.c ****                 key_touch_InitializeAverageInternal(ptrFilterHistObj, ptrSensor, (uint32)ptrWidget-
 125:Generated_Source\PSoC4/key_touch_Filter.c ****             #endif /* (key_touch_REGULAR_RC_AVERAGE_FILTER_EN || key_touch_PROX_RC_AVERAGE_FILTER_E
 126:Generated_Source\PSoC4/key_touch_Filter.c ****             
 127:Generated_Source\PSoC4/key_touch_Filter.c ****             #if (key_touch_CSD_AUTOTUNE & key_touch_CSD_SS_TH_EN)
 128:Generated_Source\PSoC4/key_touch_Filter.c ****                 if (key_touch_SENSE_METHOD_CSD_E ==
 129:Generated_Source\PSoC4/key_touch_Filter.c ****                     key_touch_GET_SENSE_METHOD(&key_touch_dsFlash.wdgtArray[widgetId]))
 130:Generated_Source\PSoC4/key_touch_Filter.c ****                 {
 131:Generated_Source\PSoC4/key_touch_Filter.c ****                     SmartSense_InitializeNoiseEnvelope(ptrSensor->raw[0u], ptrWidgetRam->sigPFC, pt
 132:Generated_Source\PSoC4/key_touch_Filter.c ****                 }
 133:Generated_Source\PSoC4/key_touch_Filter.c ****             #endif /* #if key_touch_CSD_AUTOTUNE & key_touch_CSD_SS_TH_EN */
 134:Generated_Source\PSoC4/key_touch_Filter.c ****         }
 135:Generated_Source\PSoC4/key_touch_Filter.c ****     }   
 136:Generated_Source\PSoC4/key_touch_Filter.c **** }
  63              		.loc 1 136 0 is_stmt 1
  64              		@ sp needed
  65 0022 7047     		bx	lr
  66              	.L7:
  67              		.align	2
  68              	.L6:
  69 0024 00000000 		.word	key_touch_dsFlash
  70              		.cfi_endproc
  71              	.LFE1:
  72              		.size	key_touch_FtInitialize, .-key_touch_FtInitialize
  73              		.section	.text.key_touch_FtInitializeBaselineChannel,"ax",%progbits
  74              		.align	2
  75              		.global	key_touch_FtInitializeBaselineChannel
  76              		.code	16
  77              		.thumb_func
  78              		.type	key_touch_FtInitializeBaselineChannel, %function
  79              	key_touch_FtInitializeBaselineChannel:
  80              	.LFB10:
 137:Generated_Source\PSoC4/key_touch_Filter.c **** 
 138:Generated_Source\PSoC4/key_touch_Filter.c **** 
 139:Generated_Source\PSoC4/key_touch_Filter.c **** /*******************************************************************************
 140:Generated_Source\PSoC4/key_touch_Filter.c **** * Function Name: key_touch_UpdateAllBaselines
 141:Generated_Source\PSoC4/key_touch_Filter.c **** ****************************************************************************//**
 142:Generated_Source\PSoC4/key_touch_Filter.c **** *
 143:Generated_Source\PSoC4/key_touch_Filter.c **** * \brief    
 144:Generated_Source\PSoC4/key_touch_Filter.c **** *  Updates the baseline for all sensors in all widgets.
 145:Generated_Source\PSoC4/key_touch_Filter.c **** *
 146:Generated_Source\PSoC4/key_touch_Filter.c **** * \details
ARM GAS  C:\Users\Administrator\AppData\Local\Temp\cc8knBFd.s 			page 5


 147:Generated_Source\PSoC4/key_touch_Filter.c **** *  Updates the baseline for all sensors in all widgets. Baseline updating is a 
 148:Generated_Source\PSoC4/key_touch_Filter.c **** *  part of data processing performed by the process functions. So, no need to 
 149:Generated_Source\PSoC4/key_touch_Filter.c **** *  call this function except a specific process flow is implemented.
 150:Generated_Source\PSoC4/key_touch_Filter.c **** *  
 151:Generated_Source\PSoC4/key_touch_Filter.c **** *  This function ignores the value of the wdgtEnable register. Multiple calling 
 152:Generated_Source\PSoC4/key_touch_Filter.c **** *  of this function (or any other function with a baseline updating task) 
 153:Generated_Source\PSoC4/key_touch_Filter.c **** *  without scanning leads to unexpected behavior.
 154:Generated_Source\PSoC4/key_touch_Filter.c **** *
 155:Generated_Source\PSoC4/key_touch_Filter.c **** *  If Self-test library is enabled this function executes baseline duplication
 156:Generated_Source\PSoC4/key_touch_Filter.c **** *  test. Refer to key_touch_CheckBaselineDuplication() for details.
 157:Generated_Source\PSoC4/key_touch_Filter.c **** *
 158:Generated_Source\PSoC4/key_touch_Filter.c **** * \return   
 159:Generated_Source\PSoC4/key_touch_Filter.c **** *  Returns the status of the update baseline operation of all widgets:
 160:Generated_Source\PSoC4/key_touch_Filter.c **** *  - CYRET_SUCCESS if operation was successfully completed
 161:Generated_Source\PSoC4/key_touch_Filter.c **** *  - CYRET_BAD_DATA if baseline processing failed
 162:Generated_Source\PSoC4/key_touch_Filter.c **** *
 163:Generated_Source\PSoC4/key_touch_Filter.c **** *******************************************************************************/
 164:Generated_Source\PSoC4/key_touch_Filter.c **** cystatus key_touch_UpdateAllBaselines(void)
 165:Generated_Source\PSoC4/key_touch_Filter.c **** {
 166:Generated_Source\PSoC4/key_touch_Filter.c ****     uint32 widgetId; 
 167:Generated_Source\PSoC4/key_touch_Filter.c ****     cystatus bslnStatus = CYRET_SUCCESS;
 168:Generated_Source\PSoC4/key_touch_Filter.c ****     
 169:Generated_Source\PSoC4/key_touch_Filter.c ****     for(widgetId = key_touch_TOTAL_WIDGETS; widgetId-- > 0u;)
 170:Generated_Source\PSoC4/key_touch_Filter.c ****     {            
 171:Generated_Source\PSoC4/key_touch_Filter.c ****         bslnStatus |= key_touch_UpdateWidgetBaseline(widgetId);       
 172:Generated_Source\PSoC4/key_touch_Filter.c ****     }      
 173:Generated_Source\PSoC4/key_touch_Filter.c ****     
 174:Generated_Source\PSoC4/key_touch_Filter.c ****     return(bslnStatus);
 175:Generated_Source\PSoC4/key_touch_Filter.c **** }
 176:Generated_Source\PSoC4/key_touch_Filter.c ****   
 177:Generated_Source\PSoC4/key_touch_Filter.c **** 
 178:Generated_Source\PSoC4/key_touch_Filter.c **** /*******************************************************************************
 179:Generated_Source\PSoC4/key_touch_Filter.c **** * Function Name: key_touch_UpdateWidgetBaseline
 180:Generated_Source\PSoC4/key_touch_Filter.c **** ****************************************************************************//**
 181:Generated_Source\PSoC4/key_touch_Filter.c **** *
 182:Generated_Source\PSoC4/key_touch_Filter.c **** * \brief    
 183:Generated_Source\PSoC4/key_touch_Filter.c **** *  Updates the baseline for all sensors in a widget specified by input parameter.
 184:Generated_Source\PSoC4/key_touch_Filter.c **** *
 185:Generated_Source\PSoC4/key_touch_Filter.c **** * \details  
 186:Generated_Source\PSoC4/key_touch_Filter.c **** *  This function performs exactly the same tasks as 
 187:Generated_Source\PSoC4/key_touch_Filter.c **** *  key_touch_UpdateAllBaselines(), but only for a specified widget.
 188:Generated_Source\PSoC4/key_touch_Filter.c **** *  
 189:Generated_Source\PSoC4/key_touch_Filter.c **** *  This function ignores the value of the wdgtEnable register. Multiple calling
 190:Generated_Source\PSoC4/key_touch_Filter.c **** *  of this function (or any other function with a baseline updating task) 
 191:Generated_Source\PSoC4/key_touch_Filter.c **** *  without scanning leads to unexpected behavior.
 192:Generated_Source\PSoC4/key_touch_Filter.c **** *
 193:Generated_Source\PSoC4/key_touch_Filter.c **** *  If Self-test library is enabled this function executes baseline duplication
 194:Generated_Source\PSoC4/key_touch_Filter.c **** *  test. Refer to key_touch_CheckBaselineDuplication() for details.
 195:Generated_Source\PSoC4/key_touch_Filter.c **** *
 196:Generated_Source\PSoC4/key_touch_Filter.c **** * \param widgetId 
 197:Generated_Source\PSoC4/key_touch_Filter.c **** *  Specify the ID number of the widget to update the baseline of all sensors
 198:Generated_Source\PSoC4/key_touch_Filter.c **** *  in the widget.
 199:Generated_Source\PSoC4/key_touch_Filter.c **** *  A macro for the widget ID can be found in the 
 200:Generated_Source\PSoC4/key_touch_Filter.c **** *  key_touch Configuration header file defined as 
 201:Generated_Source\PSoC4/key_touch_Filter.c **** *  key_touch_<WidgetName>_WDGT_ID.
 202:Generated_Source\PSoC4/key_touch_Filter.c **** *
 203:Generated_Source\PSoC4/key_touch_Filter.c **** * \return   
ARM GAS  C:\Users\Administrator\AppData\Local\Temp\cc8knBFd.s 			page 6


 204:Generated_Source\PSoC4/key_touch_Filter.c **** *  Returns the status of the specified widget update baseline operation:
 205:Generated_Source\PSoC4/key_touch_Filter.c **** *  - CYRET_SUCCESS if operation was successfully completed
 206:Generated_Source\PSoC4/key_touch_Filter.c **** *  - CYRET_BAD_DATA if baseline processing failed
 207:Generated_Source\PSoC4/key_touch_Filter.c **** *
 208:Generated_Source\PSoC4/key_touch_Filter.c **** *******************************************************************************/
 209:Generated_Source\PSoC4/key_touch_Filter.c **** cystatus key_touch_UpdateWidgetBaseline(uint32 widgetId)
 210:Generated_Source\PSoC4/key_touch_Filter.c **** {
 211:Generated_Source\PSoC4/key_touch_Filter.c ****     uint32 sensorId;       
 212:Generated_Source\PSoC4/key_touch_Filter.c ****     uint32 sensorsNumber;  
 213:Generated_Source\PSoC4/key_touch_Filter.c **** 
 214:Generated_Source\PSoC4/key_touch_Filter.c ****     key_touch_FLASH_WD_STRUCT const *ptrWidget = &key_touch_dsFlash.wdgtArray[widgetId];    
 215:Generated_Source\PSoC4/key_touch_Filter.c ****     cystatus bslnStatus = CYRET_SUCCESS;    
 216:Generated_Source\PSoC4/key_touch_Filter.c ****     
 217:Generated_Source\PSoC4/key_touch_Filter.c ****     /* Find total amount of sensors in specified widget */   
 218:Generated_Source\PSoC4/key_touch_Filter.c ****     sensorsNumber = key_touch_GET_SNS_CNT_BY_PTR(ptrWidget);    
 219:Generated_Source\PSoC4/key_touch_Filter.c ****     
 220:Generated_Source\PSoC4/key_touch_Filter.c ****     for(sensorId = sensorsNumber; sensorId-- > 0u;)
 221:Generated_Source\PSoC4/key_touch_Filter.c ****     {
 222:Generated_Source\PSoC4/key_touch_Filter.c ****         bslnStatus |= key_touch_UpdateSensorBaseline(widgetId, sensorId);    
 223:Generated_Source\PSoC4/key_touch_Filter.c ****     }
 224:Generated_Source\PSoC4/key_touch_Filter.c **** 
 225:Generated_Source\PSoC4/key_touch_Filter.c ****     return(bslnStatus);
 226:Generated_Source\PSoC4/key_touch_Filter.c **** }
 227:Generated_Source\PSoC4/key_touch_Filter.c **** 
 228:Generated_Source\PSoC4/key_touch_Filter.c **** 
 229:Generated_Source\PSoC4/key_touch_Filter.c **** /*******************************************************************************
 230:Generated_Source\PSoC4/key_touch_Filter.c **** * Function Name: key_touch_UpdateSensorBaseline
 231:Generated_Source\PSoC4/key_touch_Filter.c **** ****************************************************************************//**
 232:Generated_Source\PSoC4/key_touch_Filter.c **** *
 233:Generated_Source\PSoC4/key_touch_Filter.c **** * \brief    
 234:Generated_Source\PSoC4/key_touch_Filter.c **** *  Updates the baseline for a sensor in a widget specified by input parameters.
 235:Generated_Source\PSoC4/key_touch_Filter.c **** *
 236:Generated_Source\PSoC4/key_touch_Filter.c **** * \details  
 237:Generated_Source\PSoC4/key_touch_Filter.c **** *  This function performs exactly the same tasks as
 238:Generated_Source\PSoC4/key_touch_Filter.c **** *  key_touch_UpdateAllBaselines() and 
 239:Generated_Source\PSoC4/key_touch_Filter.c **** *  key_touch_UpdateWidgetBaseline() but only for a specified sensor.
 240:Generated_Source\PSoC4/key_touch_Filter.c **** *  
 241:Generated_Source\PSoC4/key_touch_Filter.c **** *  This function ignores the value of the wdgtEnable register. Multiple calling 
 242:Generated_Source\PSoC4/key_touch_Filter.c **** *  of this function (or any other function with a baseline updating task) 
 243:Generated_Source\PSoC4/key_touch_Filter.c **** *  without scanning leads to unexpected behavior.
 244:Generated_Source\PSoC4/key_touch_Filter.c **** *
 245:Generated_Source\PSoC4/key_touch_Filter.c **** *  If Self-test library is enabled this function executes baseline duplication
 246:Generated_Source\PSoC4/key_touch_Filter.c **** *  test. Refer to key_touch_CheckBaselineDuplication() for details.
 247:Generated_Source\PSoC4/key_touch_Filter.c **** *
 248:Generated_Source\PSoC4/key_touch_Filter.c **** * \param   widgetId 
 249:Generated_Source\PSoC4/key_touch_Filter.c **** *  Specify the ID number of the widget to update the baseline of the sensor 
 250:Generated_Source\PSoC4/key_touch_Filter.c **** *  specified by the sensorId argument.
 251:Generated_Source\PSoC4/key_touch_Filter.c **** *  A macro for the widget ID can be found in the key_touch Configuration header 
 252:Generated_Source\PSoC4/key_touch_Filter.c **** *  file defined as key_touch_<WidgetName>_WDGT_ID. 
 253:Generated_Source\PSoC4/key_touch_Filter.c **** *
 254:Generated_Source\PSoC4/key_touch_Filter.c **** * \param   sensorId 
 255:Generated_Source\PSoC4/key_touch_Filter.c **** *  Specify the ID number of the sensor within the widget to update its baseline.
 256:Generated_Source\PSoC4/key_touch_Filter.c **** *  A macro for the sensor ID within a specified widget can be found in the 
 257:Generated_Source\PSoC4/key_touch_Filter.c **** *  key_touch Configuration header file defined as 
 258:Generated_Source\PSoC4/key_touch_Filter.c **** *  key_touch_<WidgetName>_SNS<SensorNumber>_ID
 259:Generated_Source\PSoC4/key_touch_Filter.c **** *
 260:Generated_Source\PSoC4/key_touch_Filter.c **** * \return   
ARM GAS  C:\Users\Administrator\AppData\Local\Temp\cc8knBFd.s 			page 7


 261:Generated_Source\PSoC4/key_touch_Filter.c **** *  Returns the status of the specified sensor update baseline operation:
 262:Generated_Source\PSoC4/key_touch_Filter.c **** *  - CYRET_SUCCESS if operation was successfully completed
 263:Generated_Source\PSoC4/key_touch_Filter.c **** *  - CYRET_BAD_DATA if baseline processing failed
 264:Generated_Source\PSoC4/key_touch_Filter.c **** *
 265:Generated_Source\PSoC4/key_touch_Filter.c **** *******************************************************************************/
 266:Generated_Source\PSoC4/key_touch_Filter.c **** cystatus key_touch_UpdateSensorBaseline(uint32 widgetId, uint32 sensorId)
 267:Generated_Source\PSoC4/key_touch_Filter.c **** {    
 268:Generated_Source\PSoC4/key_touch_Filter.c ****     uint32 result = CYRET_SUCCESS;
 269:Generated_Source\PSoC4/key_touch_Filter.c ****     
 270:Generated_Source\PSoC4/key_touch_Filter.c ****     key_touch_RAM_SNS_STRUCT *ptrSensor = NULL;    
 271:Generated_Source\PSoC4/key_touch_Filter.c ****     key_touch_FLASH_WD_STRUCT const *ptrWidget = &key_touch_dsFlash.wdgtArray[widgetId];    
 272:Generated_Source\PSoC4/key_touch_Filter.c ****     key_touch_RAM_WD_BASE_STRUCT *ptrWidgetRam = ptrWidget->ptr2WdgtRam;   
 273:Generated_Source\PSoC4/key_touch_Filter.c **** 
 274:Generated_Source\PSoC4/key_touch_Filter.c ****     /* Find pointer to specified sensor object */     
 275:Generated_Source\PSoC4/key_touch_Filter.c ****     ptrSensor = ptrWidget->ptr2SnsRam;
 276:Generated_Source\PSoC4/key_touch_Filter.c ****     ptrSensor = &ptrSensor[sensorId];
 277:Generated_Source\PSoC4/key_touch_Filter.c ****     result = key_touch_FtUpdateBaseline(ptrWidgetRam, ptrSensor, (uint32)ptrWidget->wdgtType);
 278:Generated_Source\PSoC4/key_touch_Filter.c ****     
 279:Generated_Source\PSoC4/key_touch_Filter.c ****     #if (key_touch_ENABLE == key_touch_TST_BSLN_DUPLICATION_EN)
 280:Generated_Source\PSoC4/key_touch_Filter.c ****         if (CYRET_SUCCESS != result)
 281:Generated_Source\PSoC4/key_touch_Filter.c ****         {
 282:Generated_Source\PSoC4/key_touch_Filter.c ****             result = CYRET_BAD_DATA;
 283:Generated_Source\PSoC4/key_touch_Filter.c ****             key_touch_UpdateTestResultBaselineDuplication(widgetId, sensorId);           
 284:Generated_Source\PSoC4/key_touch_Filter.c ****         }
 285:Generated_Source\PSoC4/key_touch_Filter.c ****     #endif /* (key_touch_ENABLE == key_touch_TST_BSLN_DUPLICATION_EN) */
 286:Generated_Source\PSoC4/key_touch_Filter.c **** 
 287:Generated_Source\PSoC4/key_touch_Filter.c ****     return result;
 288:Generated_Source\PSoC4/key_touch_Filter.c **** }
 289:Generated_Source\PSoC4/key_touch_Filter.c **** 
 290:Generated_Source\PSoC4/key_touch_Filter.c **** /*******************************************************************************
 291:Generated_Source\PSoC4/key_touch_Filter.c **** * Function Name: key_touch_FtUpdateBaseline
 292:Generated_Source\PSoC4/key_touch_Filter.c **** ****************************************************************************//**
 293:Generated_Source\PSoC4/key_touch_Filter.c **** *
 294:Generated_Source\PSoC4/key_touch_Filter.c **** * \brief
 295:Generated_Source\PSoC4/key_touch_Filter.c **** *  Updates the baseline for a sensor specified by an input parameter.
 296:Generated_Source\PSoC4/key_touch_Filter.c **** *
 297:Generated_Source\PSoC4/key_touch_Filter.c **** * \details
 298:Generated_Source\PSoC4/key_touch_Filter.c **** *  Check a matching of present baseline and its inverse duplication. If they 
 299:Generated_Source\PSoC4/key_touch_Filter.c **** *  match then updates the baseline for a sensor specified by an input parameter.  
 300:Generated_Source\PSoC4/key_touch_Filter.c **** *  If don't match the function return key_touch_TST_BSLN_DUPLICATION
 301:Generated_Source\PSoC4/key_touch_Filter.c **** *  result and don't update baseline.
 302:Generated_Source\PSoC4/key_touch_Filter.c **** *
 303:Generated_Source\PSoC4/key_touch_Filter.c **** * \param    ptrWidgetRam
 304:Generated_Source\PSoC4/key_touch_Filter.c **** *  The pointer to the widget RAM structure where all the widget parameters
 305:Generated_Source\PSoC4/key_touch_Filter.c **** *  are stored.
 306:Generated_Source\PSoC4/key_touch_Filter.c **** *
 307:Generated_Source\PSoC4/key_touch_Filter.c **** * \param    ptrSensor
 308:Generated_Source\PSoC4/key_touch_Filter.c **** *  The pointer to the sensor RAM structure where all the sensor parameters
 309:Generated_Source\PSoC4/key_touch_Filter.c **** *  are stored.
 310:Generated_Source\PSoC4/key_touch_Filter.c **** *
 311:Generated_Source\PSoC4/key_touch_Filter.c **** * \param    wdType
 312:Generated_Source\PSoC4/key_touch_Filter.c **** *  Specifies the type of a widget.
 313:Generated_Source\PSoC4/key_touch_Filter.c **** *
 314:Generated_Source\PSoC4/key_touch_Filter.c **** * \return   
 315:Generated_Source\PSoC4/key_touch_Filter.c **** *  Returns a status indicating whether the baseline has been updated:
 316:Generated_Source\PSoC4/key_touch_Filter.c **** *  - CYRET_SUCCESS if baseline updating was successful;
 317:Generated_Source\PSoC4/key_touch_Filter.c **** *  - key_touch_PROCESS_BASELINE_FAILED if present sensor's any channel
ARM GAS  C:\Users\Administrator\AppData\Local\Temp\cc8knBFd.s 			page 8


 318:Generated_Source\PSoC4/key_touch_Filter.c **** *    baseline and its inversion doesn't matched
 319:Generated_Source\PSoC4/key_touch_Filter.c **** *
 320:Generated_Source\PSoC4/key_touch_Filter.c **** *******************************************************************************/
 321:Generated_Source\PSoC4/key_touch_Filter.c **** uint32 key_touch_FtUpdateBaseline(
 322:Generated_Source\PSoC4/key_touch_Filter.c ****                                 key_touch_RAM_WD_BASE_STRUCT *ptrWidgetRam,
 323:Generated_Source\PSoC4/key_touch_Filter.c ****                                 key_touch_RAM_SNS_STRUCT *ptrSensor, 
 324:Generated_Source\PSoC4/key_touch_Filter.c ****                                 uint32 wdType)
 325:Generated_Source\PSoC4/key_touch_Filter.c **** {         
 326:Generated_Source\PSoC4/key_touch_Filter.c ****     uint32 sign;
 327:Generated_Source\PSoC4/key_touch_Filter.c ****     uint32 difference;        
 328:Generated_Source\PSoC4/key_touch_Filter.c ****     uint32 channel;
 329:Generated_Source\PSoC4/key_touch_Filter.c ****     uint32 result = CYRET_SUCCESS;
 330:Generated_Source\PSoC4/key_touch_Filter.c ****     
 331:Generated_Source\PSoC4/key_touch_Filter.c ****     #if (key_touch_TOTAL_WIDGETS)  
 332:Generated_Source\PSoC4/key_touch_Filter.c ****         uint32 history;
 333:Generated_Source\PSoC4/key_touch_Filter.c ****     #endif /* (key_touch_TOTAL_WIDGETS) */    
 334:Generated_Source\PSoC4/key_touch_Filter.c ****     
 335:Generated_Source\PSoC4/key_touch_Filter.c ****     /* Apply baseline to every channel in sensor */
 336:Generated_Source\PSoC4/key_touch_Filter.c ****     for(channel = key_touch_NUM_SCAN_FREQS; channel-- > 0u;) 
 337:Generated_Source\PSoC4/key_touch_Filter.c ****     {               
 338:Generated_Source\PSoC4/key_touch_Filter.c ****         #if (key_touch_ENABLE == key_touch_TST_BSLN_DUPLICATION_EN)
 339:Generated_Source\PSoC4/key_touch_Filter.c ****             if (ptrSensor->bslnInv[channel] != ((uint16) ~(ptrSensor->bsln[channel])))
 340:Generated_Source\PSoC4/key_touch_Filter.c ****             {
 341:Generated_Source\PSoC4/key_touch_Filter.c ****                 result = key_touch_PROCESS_BASELINE_FAILED;
 342:Generated_Source\PSoC4/key_touch_Filter.c ****             }
 343:Generated_Source\PSoC4/key_touch_Filter.c ****             else
 344:Generated_Source\PSoC4/key_touch_Filter.c ****             {
 345:Generated_Source\PSoC4/key_touch_Filter.c ****         #endif /* (key_touch_ENABLE == key_touch_TST_BSLN_DUPLICATION_EN) */
 346:Generated_Source\PSoC4/key_touch_Filter.c **** 
 347:Generated_Source\PSoC4/key_touch_Filter.c ****         /* Calculate signal value and its sign */
 348:Generated_Source\PSoC4/key_touch_Filter.c ****         if(ptrSensor->raw[channel] >= ptrSensor->bsln[channel])
 349:Generated_Source\PSoC4/key_touch_Filter.c ****         {
 350:Generated_Source\PSoC4/key_touch_Filter.c ****             difference = (uint32)ptrSensor->raw[channel] - (uint32)ptrSensor->bsln[channel];
 351:Generated_Source\PSoC4/key_touch_Filter.c ****             sign = 1u;
 352:Generated_Source\PSoC4/key_touch_Filter.c ****             ptrSensor->negBslnRstCnt[channel] = 0u;
 353:Generated_Source\PSoC4/key_touch_Filter.c ****         }
 354:Generated_Source\PSoC4/key_touch_Filter.c ****         else
 355:Generated_Source\PSoC4/key_touch_Filter.c ****         {
 356:Generated_Source\PSoC4/key_touch_Filter.c ****             difference = (uint32)ptrSensor->bsln[channel] - (uint32)ptrSensor->raw[channel];
 357:Generated_Source\PSoC4/key_touch_Filter.c ****             sign = 0u;
 358:Generated_Source\PSoC4/key_touch_Filter.c ****         }     
 359:Generated_Source\PSoC4/key_touch_Filter.c ****         
 360:Generated_Source\PSoC4/key_touch_Filter.c ****         /* Reset baseline if condition is met */ 
 361:Generated_Source\PSoC4/key_touch_Filter.c ****         if((sign == 0u) && (difference > (uint32) ptrWidgetRam->nNoiseTh))
 362:Generated_Source\PSoC4/key_touch_Filter.c ****         {
 363:Generated_Source\PSoC4/key_touch_Filter.c ****             if(ptrSensor->negBslnRstCnt[channel] >= ptrWidgetRam->lowBslnRst)
 364:Generated_Source\PSoC4/key_touch_Filter.c ****             {                
 365:Generated_Source\PSoC4/key_touch_Filter.c ****                 key_touch_FtInitializeBaselineChannel(ptrSensor, wdType, channel);             
 366:Generated_Source\PSoC4/key_touch_Filter.c ****             }
 367:Generated_Source\PSoC4/key_touch_Filter.c ****             else
 368:Generated_Source\PSoC4/key_touch_Filter.c ****             {
 369:Generated_Source\PSoC4/key_touch_Filter.c ****                 ptrSensor->negBslnRstCnt[channel]++;
 370:Generated_Source\PSoC4/key_touch_Filter.c ****             }
 371:Generated_Source\PSoC4/key_touch_Filter.c ****         }
 372:Generated_Source\PSoC4/key_touch_Filter.c ****         else
 373:Generated_Source\PSoC4/key_touch_Filter.c ****         {
 374:Generated_Source\PSoC4/key_touch_Filter.c ****             #if (!key_touch_SENSOR_AUTO_RESET_EN)
ARM GAS  C:\Users\Administrator\AppData\Local\Temp\cc8knBFd.s 			page 9


 375:Generated_Source\PSoC4/key_touch_Filter.c ****                 /* Update baseline only if signal is in range between noiseThreshold and negativeno
 376:Generated_Source\PSoC4/key_touch_Filter.c ****                 if ((difference <= (uint32)ptrWidgetRam->noiseTh) ||
 377:Generated_Source\PSoC4/key_touch_Filter.c ****                     ((difference < (uint32) ptrWidgetRam->nNoiseTh) && (sign == 0u)))
 378:Generated_Source\PSoC4/key_touch_Filter.c ****                 {
 379:Generated_Source\PSoC4/key_touch_Filter.c ****             #endif /* (key_touch_CSD_AUTO_RESET == key_touch_CSD_AUTO_RESET_DISABLE) */
 380:Generated_Source\PSoC4/key_touch_Filter.c ****             
 381:Generated_Source\PSoC4/key_touch_Filter.c ****             #if (key_touch_BASELINE_TYPE == key_touch_IIR_BASELINE)  
 382:Generated_Source\PSoC4/key_touch_Filter.c ****                 /* Calculate baseline value */
 383:Generated_Source\PSoC4/key_touch_Filter.c ****                 if ((key_touch_WD_TYPE_ENUM)wdType != key_touch_WD_PROXIMITY_E)
 384:Generated_Source\PSoC4/key_touch_Filter.c ****                 {
 385:Generated_Source\PSoC4/key_touch_Filter.c ****                     #if (key_touch_REGULAR_SENSOR_EN) 
 386:Generated_Source\PSoC4/key_touch_Filter.c ****                         #if (key_touch_REGULAR_IIR_BL_TYPE == key_touch_IIR_FILTER_PERFORMANCE)    
 387:Generated_Source\PSoC4/key_touch_Filter.c ****                             history = (uint32) ptrSensor->bsln[channel] << 8u; 
 388:Generated_Source\PSoC4/key_touch_Filter.c ****                             history |= ptrSensor->bslnExt[channel];
 389:Generated_Source\PSoC4/key_touch_Filter.c ****                         #else
 390:Generated_Source\PSoC4/key_touch_Filter.c ****                             history = ptrSensor->bsln[channel];                                    
 391:Generated_Source\PSoC4/key_touch_Filter.c ****                         #endif /* (key_touch_REGULAR_IIR_BL_TYPE == key_touch_IIR_FILTER_PERFORMANC
 392:Generated_Source\PSoC4/key_touch_Filter.c ****                     
 393:Generated_Source\PSoC4/key_touch_Filter.c ****                         history =  key_touch_FtIIR1stOrder(
 394:Generated_Source\PSoC4/key_touch_Filter.c ****                                         (uint32)ptrSensor->raw[channel],
 395:Generated_Source\PSoC4/key_touch_Filter.c ****                                         history, 
 396:Generated_Source\PSoC4/key_touch_Filter.c ****                                         key_touch_REGULAR_IIR_BL_N, 
 397:Generated_Source\PSoC4/key_touch_Filter.c ****                                         key_touch_REGULAR_IIR_BL_SHIFT);
 398:Generated_Source\PSoC4/key_touch_Filter.c ****                                                    
 399:Generated_Source\PSoC4/key_touch_Filter.c ****                         #if (key_touch_REGULAR_IIR_BL_TYPE == key_touch_IIR_FILTER_PERFORMANCE)    
 400:Generated_Source\PSoC4/key_touch_Filter.c ****                             ptrSensor->bsln[channel] = LO16(history >> 8u);
 401:Generated_Source\PSoC4/key_touch_Filter.c ****                             ptrSensor->bslnExt[channel] = LO8(history);
 402:Generated_Source\PSoC4/key_touch_Filter.c ****                         #else
 403:Generated_Source\PSoC4/key_touch_Filter.c ****                             ptrSensor->bsln[channel] = LO16(history);
 404:Generated_Source\PSoC4/key_touch_Filter.c ****                         #endif /* (key_touch_REGULAR_IIR_BL_TYPE == key_touch_IIR_FILTER_PERFORMANC
 405:Generated_Source\PSoC4/key_touch_Filter.c ****                     #endif /* (key_touch_REGULAR_SENSOR_EN) */
 406:Generated_Source\PSoC4/key_touch_Filter.c ****                 }
 407:Generated_Source\PSoC4/key_touch_Filter.c ****                 else 
 408:Generated_Source\PSoC4/key_touch_Filter.c ****                 {
 409:Generated_Source\PSoC4/key_touch_Filter.c ****                     #if (key_touch_PROXIMITY_SENSOR_EN)     
 410:Generated_Source\PSoC4/key_touch_Filter.c ****                         #if (key_touch_PROX_IIR_BL_TYPE == key_touch_IIR_FILTER_PERFORMANCE)       
 411:Generated_Source\PSoC4/key_touch_Filter.c ****                             history = (uint32) ptrSensor->bsln[channel] << 8u; 
 412:Generated_Source\PSoC4/key_touch_Filter.c ****                             history |= ptrSensor->bslnExt[channel];
 413:Generated_Source\PSoC4/key_touch_Filter.c ****                         #else
 414:Generated_Source\PSoC4/key_touch_Filter.c ****                             history = (uint32) ptrSensor->bsln[channel];                           
 415:Generated_Source\PSoC4/key_touch_Filter.c ****                         #endif /* (key_touch_PROX_IIR_BL_TYPE == key_touch_IIR_FILTER_PERFORMANCE) 
 416:Generated_Source\PSoC4/key_touch_Filter.c ****                         
 417:Generated_Source\PSoC4/key_touch_Filter.c ****                         history = key_touch_FtIIR1stOrder((uint32)ptrSensor->raw[channel], history,
 418:Generated_Source\PSoC4/key_touch_Filter.c ****                         
 419:Generated_Source\PSoC4/key_touch_Filter.c ****                         #if (key_touch_PROX_IIR_BL_TYPE == key_touch_IIR_FILTER_PERFORMANCE)       
 420:Generated_Source\PSoC4/key_touch_Filter.c ****                             ptrSensor->bsln[channel] = LO16(history >> 8u);
 421:Generated_Source\PSoC4/key_touch_Filter.c ****                             ptrSensor->bslnExt[channel] = LO8(history);
 422:Generated_Source\PSoC4/key_touch_Filter.c ****                         #else
 423:Generated_Source\PSoC4/key_touch_Filter.c ****                             ptrSensor->bsln[channel] = LO16(history);
 424:Generated_Source\PSoC4/key_touch_Filter.c ****                         #endif /* (key_touch_PROX_IIR_BL_TYPE == key_touch_IIR_FILTER_PERFORMANCE) 
 425:Generated_Source\PSoC4/key_touch_Filter.c ****                     #endif /* (key_touch_PROX_SENSOR_EN)   */
 426:Generated_Source\PSoC4/key_touch_Filter.c ****                 }
 427:Generated_Source\PSoC4/key_touch_Filter.c ****             #else /* (key_touch_CSD_BASELINE_TYPE == key_touch_IIR_BASELINE)  */
 428:Generated_Source\PSoC4/key_touch_Filter.c ****                 
 429:Generated_Source\PSoC4/key_touch_Filter.c ****                 /******************************************************************
 430:Generated_Source\PSoC4/key_touch_Filter.c ****                 * This is the place where the bucket algorithm should be implemented.
 431:Generated_Source\PSoC4/key_touch_Filter.c ****                 * The bucket method will be implemented in future component version.
ARM GAS  C:\Users\Administrator\AppData\Local\Temp\cc8knBFd.s 			page 10


 432:Generated_Source\PSoC4/key_touch_Filter.c ****                 *******************************************************************/
 433:Generated_Source\PSoC4/key_touch_Filter.c ****                 
 434:Generated_Source\PSoC4/key_touch_Filter.c ****             #endif /* (key_touch_CSD_BASELINE_TYPE == key_touch_IIR_BASELINE)  */
 435:Generated_Source\PSoC4/key_touch_Filter.c ****                     
 436:Generated_Source\PSoC4/key_touch_Filter.c ****             #if (!key_touch_SENSOR_AUTO_RESET_EN)
 437:Generated_Source\PSoC4/key_touch_Filter.c ****                 }
 438:Generated_Source\PSoC4/key_touch_Filter.c ****             #endif /* (!key_touch_SENSOR_AUTO_RESET_EN) */
 439:Generated_Source\PSoC4/key_touch_Filter.c ****         }
 440:Generated_Source\PSoC4/key_touch_Filter.c ****                 
 441:Generated_Source\PSoC4/key_touch_Filter.c ****         #if (key_touch_ENABLE == key_touch_TST_BSLN_DUPLICATION_EN)
 442:Generated_Source\PSoC4/key_touch_Filter.c ****             /* Update baseline inversion of every channel in sensor */    
 443:Generated_Source\PSoC4/key_touch_Filter.c ****             ptrSensor->bslnInv[channel] = ~(ptrSensor->bsln[channel]);
 444:Generated_Source\PSoC4/key_touch_Filter.c ****             }
 445:Generated_Source\PSoC4/key_touch_Filter.c ****         #endif /* (key_touch_ENABLE == key_touch_TST_BSLN_DUPLICATION_EN) */
 446:Generated_Source\PSoC4/key_touch_Filter.c **** 
 447:Generated_Source\PSoC4/key_touch_Filter.c ****     }
 448:Generated_Source\PSoC4/key_touch_Filter.c ****     return result;    
 449:Generated_Source\PSoC4/key_touch_Filter.c **** }
 450:Generated_Source\PSoC4/key_touch_Filter.c **** 
 451:Generated_Source\PSoC4/key_touch_Filter.c **** 
 452:Generated_Source\PSoC4/key_touch_Filter.c **** /*******************************************************************************
 453:Generated_Source\PSoC4/key_touch_Filter.c **** * Function Name: key_touch_InitializeAllBaselines
 454:Generated_Source\PSoC4/key_touch_Filter.c **** ****************************************************************************//**
 455:Generated_Source\PSoC4/key_touch_Filter.c **** *
 456:Generated_Source\PSoC4/key_touch_Filter.c **** * \brief    
 457:Generated_Source\PSoC4/key_touch_Filter.c **** *  Initializes (or re-initialize) the baseline of all sensors of all widgets.
 458:Generated_Source\PSoC4/key_touch_Filter.c **** *
 459:Generated_Source\PSoC4/key_touch_Filter.c **** * \details  
 460:Generated_Source\PSoC4/key_touch_Filter.c **** *  Initializes the baseline for all sensors of all widgets. Also, this function
 461:Generated_Source\PSoC4/key_touch_Filter.c **** *  can be used to re-initialize baselines. key_touch_Start() calls this 
 462:Generated_Source\PSoC4/key_touch_Filter.c **** *  API as part of key_touch operation initialization.
 463:Generated_Source\PSoC4/key_touch_Filter.c **** *
 464:Generated_Source\PSoC4/key_touch_Filter.c **** *******************************************************************************/
 465:Generated_Source\PSoC4/key_touch_Filter.c **** void key_touch_InitializeAllBaselines(void)
 466:Generated_Source\PSoC4/key_touch_Filter.c **** {
 467:Generated_Source\PSoC4/key_touch_Filter.c ****     uint32 widgetId;    
 468:Generated_Source\PSoC4/key_touch_Filter.c ****     
 469:Generated_Source\PSoC4/key_touch_Filter.c ****     for(widgetId = key_touch_TOTAL_WIDGETS; widgetId-- > 0u;)
 470:Generated_Source\PSoC4/key_touch_Filter.c ****     {
 471:Generated_Source\PSoC4/key_touch_Filter.c ****         key_touch_InitializeWidgetBaseline(widgetId); 
 472:Generated_Source\PSoC4/key_touch_Filter.c ****     }
 473:Generated_Source\PSoC4/key_touch_Filter.c **** }
 474:Generated_Source\PSoC4/key_touch_Filter.c **** 
 475:Generated_Source\PSoC4/key_touch_Filter.c **** 
 476:Generated_Source\PSoC4/key_touch_Filter.c **** /*******************************************************************************
 477:Generated_Source\PSoC4/key_touch_Filter.c **** * Function Name: key_touch_InitializeWidgetBaseline
 478:Generated_Source\PSoC4/key_touch_Filter.c **** ****************************************************************************//**
 479:Generated_Source\PSoC4/key_touch_Filter.c **** *
 480:Generated_Source\PSoC4/key_touch_Filter.c **** * \brief    
 481:Generated_Source\PSoC4/key_touch_Filter.c **** *  Initializes (or re-initialize) the baseline of all sensors in a widget 
 482:Generated_Source\PSoC4/key_touch_Filter.c **** *  specified by input parameter. 
 483:Generated_Source\PSoC4/key_touch_Filter.c **** *
 484:Generated_Source\PSoC4/key_touch_Filter.c **** * \details  
 485:Generated_Source\PSoC4/key_touch_Filter.c **** *  Initializes (or re-initializes) the baseline for all sensors of the 
 486:Generated_Source\PSoC4/key_touch_Filter.c **** *  specified widget.
 487:Generated_Source\PSoC4/key_touch_Filter.c **** *
 488:Generated_Source\PSoC4/key_touch_Filter.c **** * \param  widgetId 
ARM GAS  C:\Users\Administrator\AppData\Local\Temp\cc8knBFd.s 			page 11


 489:Generated_Source\PSoC4/key_touch_Filter.c **** *  Specify the ID number of a widget to initialize the baseline of all sensors
 490:Generated_Source\PSoC4/key_touch_Filter.c **** *  in the widget. 
 491:Generated_Source\PSoC4/key_touch_Filter.c **** *  A macro for the widget ID can be found in the 
 492:Generated_Source\PSoC4/key_touch_Filter.c **** *  key_touch Configuration header file defined as 
 493:Generated_Source\PSoC4/key_touch_Filter.c **** *  key_touch_<WidgetName>_WDGT_ID.
 494:Generated_Source\PSoC4/key_touch_Filter.c **** *
 495:Generated_Source\PSoC4/key_touch_Filter.c **** *******************************************************************************/
 496:Generated_Source\PSoC4/key_touch_Filter.c **** void key_touch_InitializeWidgetBaseline(uint32 widgetId)
 497:Generated_Source\PSoC4/key_touch_Filter.c **** {   
 498:Generated_Source\PSoC4/key_touch_Filter.c ****     uint32 sensorId;
 499:Generated_Source\PSoC4/key_touch_Filter.c ****     uint32 sensorsNumber;
 500:Generated_Source\PSoC4/key_touch_Filter.c ****   
 501:Generated_Source\PSoC4/key_touch_Filter.c ****     key_touch_FLASH_WD_STRUCT const *ptrWidget = &key_touch_dsFlash.wdgtArray[widgetId];
 502:Generated_Source\PSoC4/key_touch_Filter.c **** 
 503:Generated_Source\PSoC4/key_touch_Filter.c ****     /* Find total amount of sensors in specified widget */   
 504:Generated_Source\PSoC4/key_touch_Filter.c ****     sensorsNumber = key_touch_GET_SNS_CNT_BY_PTR(ptrWidget);    
 505:Generated_Source\PSoC4/key_touch_Filter.c ****     
 506:Generated_Source\PSoC4/key_touch_Filter.c ****     for(sensorId = sensorsNumber; sensorId-- > 0u;)
 507:Generated_Source\PSoC4/key_touch_Filter.c ****     {
 508:Generated_Source\PSoC4/key_touch_Filter.c ****         key_touch_InitializeSensorBaseline(widgetId, sensorId);   
 509:Generated_Source\PSoC4/key_touch_Filter.c ****     }
 510:Generated_Source\PSoC4/key_touch_Filter.c **** }
 511:Generated_Source\PSoC4/key_touch_Filter.c **** 
 512:Generated_Source\PSoC4/key_touch_Filter.c **** 
 513:Generated_Source\PSoC4/key_touch_Filter.c **** /*******************************************************************************
 514:Generated_Source\PSoC4/key_touch_Filter.c **** * Function Name: key_touch_InitializeSensorBaseline
 515:Generated_Source\PSoC4/key_touch_Filter.c **** ****************************************************************************//**
 516:Generated_Source\PSoC4/key_touch_Filter.c **** *
 517:Generated_Source\PSoC4/key_touch_Filter.c **** * \brief
 518:Generated_Source\PSoC4/key_touch_Filter.c **** *  Initializes (or re-initialize) the baseline of a sensor in a widget specified
 519:Generated_Source\PSoC4/key_touch_Filter.c **** *  by input parameters.
 520:Generated_Source\PSoC4/key_touch_Filter.c **** *
 521:Generated_Source\PSoC4/key_touch_Filter.c **** * \details  
 522:Generated_Source\PSoC4/key_touch_Filter.c **** *  Initializes (or re-initializes) the baseline for a specified sensor within
 523:Generated_Source\PSoC4/key_touch_Filter.c **** *  a specified widget.
 524:Generated_Source\PSoC4/key_touch_Filter.c **** *
 525:Generated_Source\PSoC4/key_touch_Filter.c **** * \param    widgetId 
 526:Generated_Source\PSoC4/key_touch_Filter.c **** *  Specify the ID number of a widget to initialize the baseline of all sensors
 527:Generated_Source\PSoC4/key_touch_Filter.c **** *  in the widget.
 528:Generated_Source\PSoC4/key_touch_Filter.c **** *  A macro for the widget ID can be found in the 
 529:Generated_Source\PSoC4/key_touch_Filter.c **** *  key_touch Configuration header file defined as 
 530:Generated_Source\PSoC4/key_touch_Filter.c **** *  key_touch_<WidgetName>_WDGT_ID.
 531:Generated_Source\PSoC4/key_touch_Filter.c **** *  
 532:Generated_Source\PSoC4/key_touch_Filter.c **** * \param    sensorId 
 533:Generated_Source\PSoC4/key_touch_Filter.c **** *  Specify the ID number of the sensor within the widget to initialize its 
 534:Generated_Source\PSoC4/key_touch_Filter.c **** *  baseline.
 535:Generated_Source\PSoC4/key_touch_Filter.c **** *  A macro for the sensor ID within a specified widget can be found in the 
 536:Generated_Source\PSoC4/key_touch_Filter.c **** *  key_touch Configuration header file defined as 
 537:Generated_Source\PSoC4/key_touch_Filter.c **** *  key_touch_<WidgetName>_SNS<SensorNumber>_ID
 538:Generated_Source\PSoC4/key_touch_Filter.c **** *
 539:Generated_Source\PSoC4/key_touch_Filter.c **** *******************************************************************************/
 540:Generated_Source\PSoC4/key_touch_Filter.c **** void key_touch_InitializeSensorBaseline(uint32 widgetId, uint32 sensorId)
 541:Generated_Source\PSoC4/key_touch_Filter.c **** {      
 542:Generated_Source\PSoC4/key_touch_Filter.c ****     key_touch_RAM_SNS_STRUCT *ptrSensor = NULL;    
 543:Generated_Source\PSoC4/key_touch_Filter.c ****     key_touch_FLASH_WD_STRUCT const *ptrWidget = NULL;
 544:Generated_Source\PSoC4/key_touch_Filter.c ****     ptrWidget = &key_touch_dsFlash.wdgtArray[widgetId];
 545:Generated_Source\PSoC4/key_touch_Filter.c **** 
ARM GAS  C:\Users\Administrator\AppData\Local\Temp\cc8knBFd.s 			page 12


 546:Generated_Source\PSoC4/key_touch_Filter.c ****     /* Find pointer to specified sensor object */     
 547:Generated_Source\PSoC4/key_touch_Filter.c ****     ptrSensor = ptrWidget->ptr2SnsRam;
 548:Generated_Source\PSoC4/key_touch_Filter.c ****     ptrSensor = &ptrSensor[sensorId];
 549:Generated_Source\PSoC4/key_touch_Filter.c **** 
 550:Generated_Source\PSoC4/key_touch_Filter.c ****     key_touch_FtInitializeBaseline(ptrSensor, (uint32)ptrWidget->wdgtType);
 551:Generated_Source\PSoC4/key_touch_Filter.c **** }
 552:Generated_Source\PSoC4/key_touch_Filter.c **** 
 553:Generated_Source\PSoC4/key_touch_Filter.c **** 
 554:Generated_Source\PSoC4/key_touch_Filter.c **** /*******************************************************************************
 555:Generated_Source\PSoC4/key_touch_Filter.c **** * Function Name: key_touch_FtInitializeBaseline
 556:Generated_Source\PSoC4/key_touch_Filter.c **** ****************************************************************************//**
 557:Generated_Source\PSoC4/key_touch_Filter.c **** *
 558:Generated_Source\PSoC4/key_touch_Filter.c **** * \brief    Initializes the baseline history for a sensor indicated by an input
 559:Generated_Source\PSoC4/key_touch_Filter.c **** *           parameter.
 560:Generated_Source\PSoC4/key_touch_Filter.c **** *
 561:Generated_Source\PSoC4/key_touch_Filter.c **** * \details  Initializes the baseline history for a sensor indicated by an input
 562:Generated_Source\PSoC4/key_touch_Filter.c **** *           parameter.
 563:Generated_Source\PSoC4/key_touch_Filter.c **** *
 564:Generated_Source\PSoC4/key_touch_Filter.c **** * \param    *ptrSensor The pointer to the sensor RAM object.
 565:Generated_Source\PSoC4/key_touch_Filter.c **** * \param    wdType     Specifies the type of a widget.
 566:Generated_Source\PSoC4/key_touch_Filter.c **** *
 567:Generated_Source\PSoC4/key_touch_Filter.c **** *******************************************************************************/
 568:Generated_Source\PSoC4/key_touch_Filter.c **** CY_INLINE void key_touch_FtInitializeBaseline(key_touch_RAM_SNS_STRUCT *ptrSensor, uint32 wdType) 
 569:Generated_Source\PSoC4/key_touch_Filter.c **** {
 570:Generated_Source\PSoC4/key_touch_Filter.c ****     uint32 channel;
 571:Generated_Source\PSoC4/key_touch_Filter.c **** 
 572:Generated_Source\PSoC4/key_touch_Filter.c ****     /* Apply baseline initialization to every channel in sensor */    
 573:Generated_Source\PSoC4/key_touch_Filter.c ****     for(channel = key_touch_NUM_SCAN_FREQS; channel-- > 0u;) 
 574:Generated_Source\PSoC4/key_touch_Filter.c ****     {
 575:Generated_Source\PSoC4/key_touch_Filter.c ****         key_touch_FtInitializeBaselineChannel(ptrSensor, wdType, channel); 
 576:Generated_Source\PSoC4/key_touch_Filter.c ****     }
 577:Generated_Source\PSoC4/key_touch_Filter.c **** }
 578:Generated_Source\PSoC4/key_touch_Filter.c **** 
 579:Generated_Source\PSoC4/key_touch_Filter.c **** 
 580:Generated_Source\PSoC4/key_touch_Filter.c **** /*******************************************************************************
 581:Generated_Source\PSoC4/key_touch_Filter.c **** * Function Name: key_touch_FtInitializeBaselineChannel
 582:Generated_Source\PSoC4/key_touch_Filter.c **** ****************************************************************************//**
 583:Generated_Source\PSoC4/key_touch_Filter.c **** *
 584:Generated_Source\PSoC4/key_touch_Filter.c **** * \brief    Initializes the baseline history for a sensor indicated by an input
 585:Generated_Source\PSoC4/key_touch_Filter.c **** *           parameter.
 586:Generated_Source\PSoC4/key_touch_Filter.c **** *
 587:Generated_Source\PSoC4/key_touch_Filter.c **** * \details  Initializes the baseline history for a sensor indicated by an input
 588:Generated_Source\PSoC4/key_touch_Filter.c **** *           parameter.
 589:Generated_Source\PSoC4/key_touch_Filter.c **** *
 590:Generated_Source\PSoC4/key_touch_Filter.c **** * \param    *ptrSensor The pointer to the sensor RAM object.
 591:Generated_Source\PSoC4/key_touch_Filter.c **** * \param    wdType     Specifies the type of a widget.
 592:Generated_Source\PSoC4/key_touch_Filter.c **** * \param    channel    Specifies the number of the channel to be initialized.
 593:Generated_Source\PSoC4/key_touch_Filter.c **** *
 594:Generated_Source\PSoC4/key_touch_Filter.c **** *******************************************************************************/
 595:Generated_Source\PSoC4/key_touch_Filter.c **** void key_touch_FtInitializeBaselineChannel(key_touch_RAM_SNS_STRUCT *ptrSensor, uint32 wdType, uint
 596:Generated_Source\PSoC4/key_touch_Filter.c **** {
  81              		.loc 1 596 0
  82              		.cfi_startproc
  83              	.LVL8:
 597:Generated_Source\PSoC4/key_touch_Filter.c ****     #if (key_touch_BASELINE_TYPE == key_touch_IIR_BASELINE)  
 598:Generated_Source\PSoC4/key_touch_Filter.c ****         if ((key_touch_WD_TYPE_ENUM)wdType != key_touch_WD_PROXIMITY_E)
  84              		.loc 1 598 0
ARM GAS  C:\Users\Administrator\AppData\Local\Temp\cc8knBFd.s 			page 13


  85 0000 C9B2     		uxtb	r1, r1
  86              	.LVL9:
  87 0002 0629     		cmp	r1, #6
  88 0004 02D0     		beq	.L9
 599:Generated_Source\PSoC4/key_touch_Filter.c ****         {
 600:Generated_Source\PSoC4/key_touch_Filter.c ****             #if (key_touch_REGULAR_SENSOR_EN)
 601:Generated_Source\PSoC4/key_touch_Filter.c ****                 #if (key_touch_REGULAR_IIR_BL_TYPE == key_touch_IIR_FILTER_PERFORMANCE)            
 602:Generated_Source\PSoC4/key_touch_Filter.c ****                     ptrSensor->bslnExt[channel] = 0u;                
  89              		.loc 1 602 0
  90 0006 8318     		add	r3, r0, r2
  91 0008 0021     		mov	r1, #0
  92 000a 1971     		strb	r1, [r3, #4]
  93              	.L9:
 603:Generated_Source\PSoC4/key_touch_Filter.c ****                 #endif /* (key_touch_REGULAR_IIR_BL_TYPE == key_touch_IIR_FILTER_PERFORMANCE) */
 604:Generated_Source\PSoC4/key_touch_Filter.c ****             #endif /* (key_touch_REGULAR_SENSOR_EN) */
 605:Generated_Source\PSoC4/key_touch_Filter.c ****         }
 606:Generated_Source\PSoC4/key_touch_Filter.c ****         else
 607:Generated_Source\PSoC4/key_touch_Filter.c ****         {
 608:Generated_Source\PSoC4/key_touch_Filter.c ****             #if (key_touch_PROXIMITY_SENSOR_EN)     
 609:Generated_Source\PSoC4/key_touch_Filter.c ****                 #if (key_touch_PROX_IIR_BL_TYPE == key_touch_IIR_FILTER_PERFORMANCE)               
 610:Generated_Source\PSoC4/key_touch_Filter.c ****                     ptrSensor->bslnExt[channel] = 0u;               
 611:Generated_Source\PSoC4/key_touch_Filter.c ****                 #endif /* (key_touch_PROX_IIR_BL_TYPE == key_touch_IIR_FILTER_PERFORMANCE) */
 612:Generated_Source\PSoC4/key_touch_Filter.c ****             #endif /* (key_touch_PROX_SENSOR_EN) */
 613:Generated_Source\PSoC4/key_touch_Filter.c ****         }
 614:Generated_Source\PSoC4/key_touch_Filter.c ****     #else
 615:Generated_Source\PSoC4/key_touch_Filter.c ****         /* key_touch_BASELINE_TYPE == key_touch_BUCKET_BASELINE */        
 616:Generated_Source\PSoC4/key_touch_Filter.c ****         ptrSensor->bslnExt[channel] = 0u;        
 617:Generated_Source\PSoC4/key_touch_Filter.c ****     #endif /* (key_touch_BASELINE_TYPE == key_touch_IIR_BASELINE) */      
 618:Generated_Source\PSoC4/key_touch_Filter.c ****     
 619:Generated_Source\PSoC4/key_touch_Filter.c ****     ptrSensor->bsln[channel] = ptrSensor->raw[channel]; 
  94              		.loc 1 619 0
  95 000c 5300     		lsl	r3, r2, #1
  96 000e 195A     		ldrh	r1, [r3, r0]
  97 0010 C318     		add	r3, r0, r3
  98 0012 5980     		strh	r1, [r3, #2]
 620:Generated_Source\PSoC4/key_touch_Filter.c ****     
 621:Generated_Source\PSoC4/key_touch_Filter.c ****     #if (key_touch_ENABLE == key_touch_TST_BSLN_DUPLICATION_EN)
 622:Generated_Source\PSoC4/key_touch_Filter.c ****     /* Update baseline inversion of the channel in sensor */    
 623:Generated_Source\PSoC4/key_touch_Filter.c ****         ptrSensor->bslnInv[channel] = ~(ptrSensor->bsln[channel]);
 624:Generated_Source\PSoC4/key_touch_Filter.c ****     #endif /* (key_touch_ENABLE == key_touch_TST_BSLN_DUPLICATION_EN) */
 625:Generated_Source\PSoC4/key_touch_Filter.c **** 
 626:Generated_Source\PSoC4/key_touch_Filter.c ****     ptrSensor->negBslnRstCnt[channel] = 0u;
  99              		.loc 1 626 0
 100 0014 8218     		add	r2, r0, r2
 101              	.LVL10:
 102 0016 0023     		mov	r3, #0
 103 0018 1372     		strb	r3, [r2, #8]
 627:Generated_Source\PSoC4/key_touch_Filter.c **** }
 104              		.loc 1 627 0
 105              		@ sp needed
 106 001a 7047     		bx	lr
 107              		.cfi_endproc
 108              	.LFE10:
 109              		.size	key_touch_FtInitializeBaselineChannel, .-key_touch_FtInitializeBaselineChannel
 110              		.section	.text.key_touch_FtInitializeBaseline,"ax",%progbits
 111              		.align	2
 112              		.global	key_touch_FtInitializeBaseline
ARM GAS  C:\Users\Administrator\AppData\Local\Temp\cc8knBFd.s 			page 14


 113              		.code	16
 114              		.thumb_func
 115              		.type	key_touch_FtInitializeBaseline, %function
 116              	key_touch_FtInitializeBaseline:
 117              	.LFB9:
 569:Generated_Source\PSoC4/key_touch_Filter.c ****     uint32 channel;
 118              		.loc 1 569 0
 119              		.cfi_startproc
 120              	.LVL11:
 121 0000 70B5     		push	{r4, r5, r6, lr}
 122              		.cfi_def_cfa_offset 16
 123              		.cfi_offset 4, -16
 124              		.cfi_offset 5, -12
 125              		.cfi_offset 6, -8
 126              		.cfi_offset 14, -4
 127 0002 061C     		mov	r6, r0
 128 0004 0D1C     		mov	r5, r1
 129              	.LVL12:
 573:Generated_Source\PSoC4/key_touch_Filter.c ****     {
 130              		.loc 1 573 0
 131 0006 0123     		mov	r3, #1
 132 0008 05E0     		b	.L11
 133              	.LVL13:
 134              	.L12:
 575:Generated_Source\PSoC4/key_touch_Filter.c ****     }
 135              		.loc 1 575 0
 136 000a 301C     		mov	r0, r6
 137 000c 291C     		mov	r1, r5
 138 000e 221C     		mov	r2, r4
 139 0010 FFF7FEFF 		bl	key_touch_FtInitializeBaselineChannel
 140              	.LVL14:
 573:Generated_Source\PSoC4/key_touch_Filter.c ****     {
 141              		.loc 1 573 0
 142 0014 231C     		mov	r3, r4
 143              	.LVL15:
 144              	.L11:
 573:Generated_Source\PSoC4/key_touch_Filter.c ****     {
 145              		.loc 1 573 0 is_stmt 0 discriminator 1
 146 0016 5C1E     		sub	r4, r3, #1
 147              	.LVL16:
 148 0018 002B     		cmp	r3, #0
 149 001a F6D1     		bne	.L12
 577:Generated_Source\PSoC4/key_touch_Filter.c **** 
 150              		.loc 1 577 0 is_stmt 1
 151              		@ sp needed
 152              	.LVL17:
 153              	.LVL18:
 154              	.LVL19:
 155 001c 70BD     		pop	{r4, r5, r6, pc}
 156              		.cfi_endproc
 157              	.LFE9:
 158              		.size	key_touch_FtInitializeBaseline, .-key_touch_FtInitializeBaseline
 159 001e C046     		.section	.text.key_touch_InitializeSensorBaseline,"ax",%progbits
 160              		.align	2
 161              		.global	key_touch_InitializeSensorBaseline
 162              		.code	16
 163              		.thumb_func
ARM GAS  C:\Users\Administrator\AppData\Local\Temp\cc8knBFd.s 			page 15


 164              		.type	key_touch_InitializeSensorBaseline, %function
 165              	key_touch_InitializeSensorBaseline:
 166              	.LFB8:
 541:Generated_Source\PSoC4/key_touch_Filter.c ****     key_touch_RAM_SNS_STRUCT *ptrSensor = NULL;    
 167              		.loc 1 541 0
 168              		.cfi_startproc
 169              	.LVL20:
 170 0000 70B5     		push	{r4, r5, r6, lr}
 171              		.cfi_def_cfa_offset 16
 172              		.cfi_offset 4, -16
 173              		.cfi_offset 5, -12
 174              		.cfi_offset 6, -8
 175              		.cfi_offset 14, -4
 176              	.LVL21:
 547:Generated_Source\PSoC4/key_touch_Filter.c ****     ptrSensor = &ptrSensor[sensorId];
 177              		.loc 1 547 0
 178 0002 0D4D     		ldr	r5, .L16
 179 0004 C300     		lsl	r3, r0, #3
 180 0006 1A1A     		sub	r2, r3, r0
 181 0008 9200     		lsl	r2, r2, #2
 182 000a AA18     		add	r2, r5, r2
 183 000c 9468     		ldr	r4, [r2, #8]
 184              	.LVL22:
 548:Generated_Source\PSoC4/key_touch_Filter.c **** 
 185              		.loc 1 548 0
 186 000e 8A00     		lsl	r2, r1, #2
 187 0010 5118     		add	r1, r2, r1
 188              	.LVL23:
 189 0012 4900     		lsl	r1, r1, #1
 190 0014 6418     		add	r4, r4, r1
 191              	.LVL24:
 550:Generated_Source\PSoC4/key_touch_Filter.c **** }
 192              		.loc 1 550 0
 193 0016 181A     		sub	r0, r3, r0
 194              	.LVL25:
 195 0018 8000     		lsl	r0, r0, #2
 196 001a 2818     		add	r0, r5, r0
 197 001c 067E     		ldrb	r6, [r0, #24]
 198              	.LVL26:
 199              	.LBB4:
 200              	.LBB5:
 573:Generated_Source\PSoC4/key_touch_Filter.c ****     {
 201              		.loc 1 573 0
 202 001e 0123     		mov	r3, #1
 203 0020 05E0     		b	.L14
 204              	.LVL27:
 205              	.L15:
 575:Generated_Source\PSoC4/key_touch_Filter.c ****     }
 206              		.loc 1 575 0
 207 0022 201C     		mov	r0, r4
 208 0024 311C     		mov	r1, r6
 209 0026 2A1C     		mov	r2, r5
 210 0028 FFF7FEFF 		bl	key_touch_FtInitializeBaselineChannel
 211              	.LVL28:
 573:Generated_Source\PSoC4/key_touch_Filter.c ****     {
 212              		.loc 1 573 0
 213 002c 2B1C     		mov	r3, r5
ARM GAS  C:\Users\Administrator\AppData\Local\Temp\cc8knBFd.s 			page 16


 214              	.LVL29:
 215              	.L14:
 216 002e 5D1E     		sub	r5, r3, #1
 217              	.LVL30:
 218 0030 002B     		cmp	r3, #0
 219 0032 F6D1     		bne	.L15
 220              	.LBE5:
 221              	.LBE4:
 551:Generated_Source\PSoC4/key_touch_Filter.c **** 
 222              		.loc 1 551 0
 223              		@ sp needed
 224              	.LVL31:
 225              	.LVL32:
 226              	.LVL33:
 227 0034 70BD     		pop	{r4, r5, r6, pc}
 228              	.L17:
 229 0036 C046     		.align	2
 230              	.L16:
 231 0038 00000000 		.word	key_touch_dsFlash
 232              		.cfi_endproc
 233              	.LFE8:
 234              		.size	key_touch_InitializeSensorBaseline, .-key_touch_InitializeSensorBaseline
 235              		.section	.text.key_touch_InitializeWidgetBaseline,"ax",%progbits
 236              		.align	2
 237              		.global	key_touch_InitializeWidgetBaseline
 238              		.code	16
 239              		.thumb_func
 240              		.type	key_touch_InitializeWidgetBaseline, %function
 241              	key_touch_InitializeWidgetBaseline:
 242              	.LFB7:
 497:Generated_Source\PSoC4/key_touch_Filter.c ****     uint32 sensorId;
 243              		.loc 1 497 0
 244              		.cfi_startproc
 245              	.LVL34:
 246 0000 38B5     		push	{r3, r4, r5, lr}
 247              		.cfi_def_cfa_offset 16
 248              		.cfi_offset 3, -16
 249              		.cfi_offset 4, -12
 250              		.cfi_offset 5, -8
 251              		.cfi_offset 14, -4
 252 0002 051C     		mov	r5, r0
 253              	.LVL35:
 504:Generated_Source\PSoC4/key_touch_Filter.c ****     
 254              		.loc 1 504 0
 255 0004 C300     		lsl	r3, r0, #3
 256 0006 1B1A     		sub	r3, r3, r0
 257 0008 9B00     		lsl	r3, r3, #2
 258 000a 064A     		ldr	r2, .L21
 259 000c D318     		add	r3, r2, r3
 260 000e DB8A     		ldrh	r3, [r3, #22]
 261              	.LVL36:
 506:Generated_Source\PSoC4/key_touch_Filter.c ****     {
 262              		.loc 1 506 0
 263 0010 04E0     		b	.L19
 264              	.LVL37:
 265              	.L20:
 508:Generated_Source\PSoC4/key_touch_Filter.c ****     }
ARM GAS  C:\Users\Administrator\AppData\Local\Temp\cc8knBFd.s 			page 17


 266              		.loc 1 508 0
 267 0012 281C     		mov	r0, r5
 268 0014 211C     		mov	r1, r4
 269 0016 FFF7FEFF 		bl	key_touch_InitializeSensorBaseline
 270              	.LVL38:
 506:Generated_Source\PSoC4/key_touch_Filter.c ****     {
 271              		.loc 1 506 0
 272 001a 231C     		mov	r3, r4
 273              	.LVL39:
 274              	.L19:
 506:Generated_Source\PSoC4/key_touch_Filter.c ****     {
 275              		.loc 1 506 0 is_stmt 0 discriminator 1
 276 001c 5C1E     		sub	r4, r3, #1
 277              	.LVL40:
 278 001e 002B     		cmp	r3, #0
 279 0020 F7D1     		bne	.L20
 510:Generated_Source\PSoC4/key_touch_Filter.c **** 
 280              		.loc 1 510 0 is_stmt 1
 281              		@ sp needed
 282              	.LVL41:
 283              	.LVL42:
 284 0022 38BD     		pop	{r3, r4, r5, pc}
 285              	.L22:
 286              		.align	2
 287              	.L21:
 288 0024 00000000 		.word	key_touch_dsFlash
 289              		.cfi_endproc
 290              	.LFE7:
 291              		.size	key_touch_InitializeWidgetBaseline, .-key_touch_InitializeWidgetBaseline
 292              		.section	.text.key_touch_InitializeAllBaselines,"ax",%progbits
 293              		.align	2
 294              		.global	key_touch_InitializeAllBaselines
 295              		.code	16
 296              		.thumb_func
 297              		.type	key_touch_InitializeAllBaselines, %function
 298              	key_touch_InitializeAllBaselines:
 299              	.LFB6:
 466:Generated_Source\PSoC4/key_touch_Filter.c ****     uint32 widgetId;    
 300              		.loc 1 466 0
 301              		.cfi_startproc
 302 0000 10B5     		push	{r4, lr}
 303              		.cfi_def_cfa_offset 8
 304              		.cfi_offset 4, -8
 305              		.cfi_offset 14, -4
 306              	.LVL43:
 469:Generated_Source\PSoC4/key_touch_Filter.c ****     {
 307              		.loc 1 469 0
 308 0002 0C23     		mov	r3, #12
 309 0004 03E0     		b	.L24
 310              	.LVL44:
 311              	.L25:
 471:Generated_Source\PSoC4/key_touch_Filter.c ****     }
 312              		.loc 1 471 0
 313 0006 201C     		mov	r0, r4
 314 0008 FFF7FEFF 		bl	key_touch_InitializeWidgetBaseline
 315              	.LVL45:
 469:Generated_Source\PSoC4/key_touch_Filter.c ****     {
ARM GAS  C:\Users\Administrator\AppData\Local\Temp\cc8knBFd.s 			page 18


 316              		.loc 1 469 0
 317 000c 231C     		mov	r3, r4
 318              	.LVL46:
 319              	.L24:
 469:Generated_Source\PSoC4/key_touch_Filter.c ****     {
 320              		.loc 1 469 0 is_stmt 0 discriminator 1
 321 000e 5C1E     		sub	r4, r3, #1
 322              	.LVL47:
 323 0010 002B     		cmp	r3, #0
 324 0012 F8D1     		bne	.L25
 473:Generated_Source\PSoC4/key_touch_Filter.c **** 
 325              		.loc 1 473 0 is_stmt 1
 326              		@ sp needed
 327              	.LVL48:
 328 0014 10BD     		pop	{r4, pc}
 329              		.cfi_endproc
 330              	.LFE6:
 331              		.size	key_touch_InitializeAllBaselines, .-key_touch_InitializeAllBaselines
 332 0016 C046     		.section	.text.key_touch_FtIIR1stOrder,"ax",%progbits
 333              		.align	2
 334              		.global	key_touch_FtIIR1stOrder
 335              		.code	16
 336              		.thumb_func
 337              		.type	key_touch_FtIIR1stOrder, %function
 338              	key_touch_FtIIR1stOrder:
 339              	.LFB11:
 628:Generated_Source\PSoC4/key_touch_Filter.c **** 
 629:Generated_Source\PSoC4/key_touch_Filter.c **** 
 630:Generated_Source\PSoC4/key_touch_Filter.c **** #if (key_touch_REGULAR_RC_IIR_FILTER_EN || key_touch_PROX_RC_IIR_FILTER_EN)
 631:Generated_Source\PSoC4/key_touch_Filter.c **** 
 632:Generated_Source\PSoC4/key_touch_Filter.c **** /*******************************************************************************
 633:Generated_Source\PSoC4/key_touch_Filter.c **** * Function Name: key_touch_InitializeIIR
 634:Generated_Source\PSoC4/key_touch_Filter.c **** ****************************************************************************//**
 635:Generated_Source\PSoC4/key_touch_Filter.c **** *
 636:Generated_Source\PSoC4/key_touch_Filter.c **** * \brief    Initialize the IIR filter history.
 637:Generated_Source\PSoC4/key_touch_Filter.c **** *
 638:Generated_Source\PSoC4/key_touch_Filter.c **** * \details  Initialize the IIR filter history.
 639:Generated_Source\PSoC4/key_touch_Filter.c **** *
 640:Generated_Source\PSoC4/key_touch_Filter.c **** * \param    widgetId Specifies the ID number of the widget.
 641:Generated_Source\PSoC4/key_touch_Filter.c **** * \param    sensorId Specifies the ID number of the sensor in the widget.
 642:Generated_Source\PSoC4/key_touch_Filter.c **** *
 643:Generated_Source\PSoC4/key_touch_Filter.c **** *******************************************************************************/
 644:Generated_Source\PSoC4/key_touch_Filter.c **** void key_touch_InitializeIIR(uint32 widgetId, uint32 sensorId)
 645:Generated_Source\PSoC4/key_touch_Filter.c **** {   
 646:Generated_Source\PSoC4/key_touch_Filter.c ****     key_touch_FLASH_WD_STRUCT const *ptrWidget = &key_touch_dsFlash.wdgtArray[widgetId];      
 647:Generated_Source\PSoC4/key_touch_Filter.c ****     key_touch_RAM_SNS_STRUCT *ptrSensor = NULL;    
 648:Generated_Source\PSoC4/key_touch_Filter.c ****     key_touch_PTR_FILTER_VARIANT ptrFilterHistObj; 
 649:Generated_Source\PSoC4/key_touch_Filter.c ****               
 650:Generated_Source\PSoC4/key_touch_Filter.c ****     /* Find pointer to specified sensor object */     
 651:Generated_Source\PSoC4/key_touch_Filter.c ****     ptrSensor = ptrWidget->ptr2SnsRam;
 652:Generated_Source\PSoC4/key_touch_Filter.c ****     ptrSensor = &ptrSensor[sensorId];
 653:Generated_Source\PSoC4/key_touch_Filter.c ****         
 654:Generated_Source\PSoC4/key_touch_Filter.c ****     /* Find pointer to specified filter sensor object */     
 655:Generated_Source\PSoC4/key_touch_Filter.c ****     ptrFilterHistObj.ptr = ptrWidget->ptr2FltrHistory;
 656:Generated_Source\PSoC4/key_touch_Filter.c ****     
 657:Generated_Source\PSoC4/key_touch_Filter.c ****     if ((key_touch_WD_TYPE_ENUM)ptrWidget->wdgtType != key_touch_WD_PROXIMITY_E)
 658:Generated_Source\PSoC4/key_touch_Filter.c ****     {
ARM GAS  C:\Users\Administrator\AppData\Local\Temp\cc8knBFd.s 			page 19


 659:Generated_Source\PSoC4/key_touch_Filter.c ****         #if (key_touch_REGULAR_SENSOR_EN)
 660:Generated_Source\PSoC4/key_touch_Filter.c ****             ptrFilterHistObj.ptrRegular = &ptrFilterHistObj.ptrRegular[sensorId];
 661:Generated_Source\PSoC4/key_touch_Filter.c ****         #endif /* (key_touch_REGULAR_SENSOR_EN) */
 662:Generated_Source\PSoC4/key_touch_Filter.c ****     }
 663:Generated_Source\PSoC4/key_touch_Filter.c ****     else
 664:Generated_Source\PSoC4/key_touch_Filter.c ****     {
 665:Generated_Source\PSoC4/key_touch_Filter.c ****         #if (key_touch_PROXIMITY_SENSOR_EN)
 666:Generated_Source\PSoC4/key_touch_Filter.c ****             ptrFilterHistObj.ptrProx = &ptrFilterHistObj.ptrProx[sensorId];
 667:Generated_Source\PSoC4/key_touch_Filter.c ****         #endif /* (key_touch_PROXIMITY_SENSOR_EN) */
 668:Generated_Source\PSoC4/key_touch_Filter.c ****     }    
 669:Generated_Source\PSoC4/key_touch_Filter.c ****     
 670:Generated_Source\PSoC4/key_touch_Filter.c ****     key_touch_InitializeIIRInternal(ptrFilterHistObj, ptrSensor, (uint32)ptrWidget->wdgtType);
 671:Generated_Source\PSoC4/key_touch_Filter.c **** }
 672:Generated_Source\PSoC4/key_touch_Filter.c **** 
 673:Generated_Source\PSoC4/key_touch_Filter.c **** 
 674:Generated_Source\PSoC4/key_touch_Filter.c **** /*******************************************************************************
 675:Generated_Source\PSoC4/key_touch_Filter.c **** * Function Name: key_touch_RunIIR
 676:Generated_Source\PSoC4/key_touch_Filter.c **** ****************************************************************************//**
 677:Generated_Source\PSoC4/key_touch_Filter.c **** *
 678:Generated_Source\PSoC4/key_touch_Filter.c **** * \brief    Executes the IIR filter algorithm on a sensor indicated by an input
 679:Generated_Source\PSoC4/key_touch_Filter.c **** *           parameter. 
 680:Generated_Source\PSoC4/key_touch_Filter.c **** *
 681:Generated_Source\PSoC4/key_touch_Filter.c **** * \details  Executes the IIR filter algorithm on a sensor indicated by an input
 682:Generated_Source\PSoC4/key_touch_Filter.c **** *           parameter. 
 683:Generated_Source\PSoC4/key_touch_Filter.c **** *
 684:Generated_Source\PSoC4/key_touch_Filter.c **** * \param    widgetId Specifies the ID number of the widget.
 685:Generated_Source\PSoC4/key_touch_Filter.c **** * \param    sensorId Specifies the ID number of the sensor in the widget.
 686:Generated_Source\PSoC4/key_touch_Filter.c **** *
 687:Generated_Source\PSoC4/key_touch_Filter.c **** *******************************************************************************/
 688:Generated_Source\PSoC4/key_touch_Filter.c **** void key_touch_RunIIR(uint32 widgetId, uint32 sensorId)
 689:Generated_Source\PSoC4/key_touch_Filter.c **** {
 690:Generated_Source\PSoC4/key_touch_Filter.c ****     key_touch_FLASH_WD_STRUCT const *ptrWidget = &key_touch_dsFlash.wdgtArray[widgetId];      
 691:Generated_Source\PSoC4/key_touch_Filter.c ****     key_touch_RAM_SNS_STRUCT *ptrSensor = NULL;    
 692:Generated_Source\PSoC4/key_touch_Filter.c ****     key_touch_PTR_FILTER_VARIANT ptrFilterHistObj; 
 693:Generated_Source\PSoC4/key_touch_Filter.c ****               
 694:Generated_Source\PSoC4/key_touch_Filter.c ****     /* Find pointer to specified sensor object */     
 695:Generated_Source\PSoC4/key_touch_Filter.c ****     ptrSensor = ptrWidget->ptr2SnsRam;
 696:Generated_Source\PSoC4/key_touch_Filter.c ****     ptrSensor = &ptrSensor[sensorId];
 697:Generated_Source\PSoC4/key_touch_Filter.c ****         
 698:Generated_Source\PSoC4/key_touch_Filter.c ****     /* Find pointer to specified filter sensor object */     
 699:Generated_Source\PSoC4/key_touch_Filter.c ****     ptrFilterHistObj.ptr = ptrWidget->ptr2FltrHistory;
 700:Generated_Source\PSoC4/key_touch_Filter.c ****     
 701:Generated_Source\PSoC4/key_touch_Filter.c ****     if ((key_touch_WD_TYPE_ENUM)ptrWidget->wdgtType != key_touch_WD_PROXIMITY_E)
 702:Generated_Source\PSoC4/key_touch_Filter.c ****     {
 703:Generated_Source\PSoC4/key_touch_Filter.c ****         #if (key_touch_REGULAR_SENSOR_EN)
 704:Generated_Source\PSoC4/key_touch_Filter.c ****             ptrFilterHistObj.ptrRegular = &ptrFilterHistObj.ptrRegular[sensorId];
 705:Generated_Source\PSoC4/key_touch_Filter.c ****         #endif /* (key_touch_REGULAR_SENSOR_EN) */
 706:Generated_Source\PSoC4/key_touch_Filter.c ****     }
 707:Generated_Source\PSoC4/key_touch_Filter.c ****     else
 708:Generated_Source\PSoC4/key_touch_Filter.c ****     {
 709:Generated_Source\PSoC4/key_touch_Filter.c ****         #if (key_touch_PROXIMITY_SENSOR_EN)
 710:Generated_Source\PSoC4/key_touch_Filter.c ****             ptrFilterHistObj.ptrProx = &ptrFilterHistObj.ptrProx[sensorId];
 711:Generated_Source\PSoC4/key_touch_Filter.c ****         #endif /* (key_touch_PROXIMITY_SENSOR_EN) */
 712:Generated_Source\PSoC4/key_touch_Filter.c ****     }    
 713:Generated_Source\PSoC4/key_touch_Filter.c ****     
 714:Generated_Source\PSoC4/key_touch_Filter.c ****     key_touch_RunIIRInternal(ptrFilterHistObj, ptrSensor, (uint32)ptrWidget->wdgtType);
 715:Generated_Source\PSoC4/key_touch_Filter.c **** }
ARM GAS  C:\Users\Administrator\AppData\Local\Temp\cc8knBFd.s 			page 20


 716:Generated_Source\PSoC4/key_touch_Filter.c ****     
 717:Generated_Source\PSoC4/key_touch_Filter.c **** /*******************************************************************************
 718:Generated_Source\PSoC4/key_touch_Filter.c **** * Function Name: key_touch_InitializeIIRInternal
 719:Generated_Source\PSoC4/key_touch_Filter.c **** ****************************************************************************//**
 720:Generated_Source\PSoC4/key_touch_Filter.c **** *
 721:Generated_Source\PSoC4/key_touch_Filter.c **** * \brief    Initializes the IIR filter history.
 722:Generated_Source\PSoC4/key_touch_Filter.c **** *
 723:Generated_Source\PSoC4/key_touch_Filter.c **** * \details  Initializes the IIR filter history.
 724:Generated_Source\PSoC4/key_touch_Filter.c **** *
 725:Generated_Source\PSoC4/key_touch_Filter.c **** * \param    ptrFilterHistObj The pointer to the filter RAM object of the sensor.
 726:Generated_Source\PSoC4/key_touch_Filter.c **** * \param    ptrSensorObj     The pointer to the sensor RAM object of the sensor.
 727:Generated_Source\PSoC4/key_touch_Filter.c **** * \param    wdType           Specifies the type of a widget.                                  
 728:Generated_Source\PSoC4/key_touch_Filter.c **** *
 729:Generated_Source\PSoC4/key_touch_Filter.c **** *******************************************************************************/
 730:Generated_Source\PSoC4/key_touch_Filter.c **** void key_touch_InitializeIIRInternal(key_touch_PTR_FILTER_VARIANT ptrFilterHistObj,
 731:Generated_Source\PSoC4/key_touch_Filter.c ****                                             key_touch_RAM_SNS_STRUCT *ptrSensorObj, uint32 wdType)
 732:Generated_Source\PSoC4/key_touch_Filter.c **** {
 733:Generated_Source\PSoC4/key_touch_Filter.c ****     uint32 channel;
 734:Generated_Source\PSoC4/key_touch_Filter.c **** 
 735:Generated_Source\PSoC4/key_touch_Filter.c ****     for(channel = key_touch_NUM_SCAN_FREQS; channel-- > 0u;)
 736:Generated_Source\PSoC4/key_touch_Filter.c ****     {
 737:Generated_Source\PSoC4/key_touch_Filter.c ****         if ((key_touch_WD_TYPE_ENUM)wdType != key_touch_WD_PROXIMITY_E)
 738:Generated_Source\PSoC4/key_touch_Filter.c ****         {
 739:Generated_Source\PSoC4/key_touch_Filter.c ****             #if (key_touch_REGULAR_SENSOR_EN && key_touch_REGULAR_RC_IIR_FILTER_EN)
 740:Generated_Source\PSoC4/key_touch_Filter.c ****                 #if (key_touch_REGULAR_IIR_RC_TYPE == key_touch_IIR_FILTER_PERFORMANCE)
 741:Generated_Source\PSoC4/key_touch_Filter.c ****                     ptrFilterHistObj.ptrRegular->regularChannel[channel].iirHistory = ptrSensorObj-
 742:Generated_Source\PSoC4/key_touch_Filter.c ****                     ptrFilterHistObj.ptrRegular->regularChannel[channel].iirHistoryLow = 0u;
 743:Generated_Source\PSoC4/key_touch_Filter.c ****                 #else
 744:Generated_Source\PSoC4/key_touch_Filter.c ****                     ptrFilterHistObj.ptrRegular->regularChannel[channel].iirHistory = ptrSensorObj-
 745:Generated_Source\PSoC4/key_touch_Filter.c ****                 #endif /* (key_touch_REGULAR_IIR_RC_TYPE == key_touch_IIR_FILTER_PERFORMANCE) */
 746:Generated_Source\PSoC4/key_touch_Filter.c ****             #endif /* (key_touch_REGULAR_SENSOR_EN) */    
 747:Generated_Source\PSoC4/key_touch_Filter.c ****         }
 748:Generated_Source\PSoC4/key_touch_Filter.c ****         else
 749:Generated_Source\PSoC4/key_touch_Filter.c ****         {
 750:Generated_Source\PSoC4/key_touch_Filter.c ****             #if (key_touch_PROXIMITY_SENSOR_EN && key_touch_PROX_RC_IIR_FILTER_EN)
 751:Generated_Source\PSoC4/key_touch_Filter.c ****                 #if (key_touch_PROX_IIR_RC_TYPE == key_touch_IIR_FILTER_PERFORMANCE)
 752:Generated_Source\PSoC4/key_touch_Filter.c ****                     ptrFilterHistObj.ptrProx->proxChannel[channel].iirHistory = ptrSensorObj->raw[c
 753:Generated_Source\PSoC4/key_touch_Filter.c ****                     ptrFilterHistObj.ptrProx->proxChannel[channel].iirHistoryLow = 0u;    
 754:Generated_Source\PSoC4/key_touch_Filter.c ****                 #else
 755:Generated_Source\PSoC4/key_touch_Filter.c ****                     ptrFilterHistObj.ptrProx->proxChannel[channel].iirHistory = ptrSensorObj->raw[c
 756:Generated_Source\PSoC4/key_touch_Filter.c ****                 #endif /* (key_touch_PROX_IIR_RC_TYPE == key_touch_IIR_FILTER_PERFORMANCE) */
 757:Generated_Source\PSoC4/key_touch_Filter.c ****             #endif /* (key_touch_PROX_SENSOR_EN) */
 758:Generated_Source\PSoC4/key_touch_Filter.c ****         }    
 759:Generated_Source\PSoC4/key_touch_Filter.c ****     }    
 760:Generated_Source\PSoC4/key_touch_Filter.c **** }
 761:Generated_Source\PSoC4/key_touch_Filter.c ****  
 762:Generated_Source\PSoC4/key_touch_Filter.c **** 
 763:Generated_Source\PSoC4/key_touch_Filter.c **** /*******************************************************************************
 764:Generated_Source\PSoC4/key_touch_Filter.c **** * Function Name: key_touch_RunIIRInternal
 765:Generated_Source\PSoC4/key_touch_Filter.c **** ****************************************************************************//**
 766:Generated_Source\PSoC4/key_touch_Filter.c **** *
 767:Generated_Source\PSoC4/key_touch_Filter.c **** * \brief    Run the IIR filter.
 768:Generated_Source\PSoC4/key_touch_Filter.c **** *
 769:Generated_Source\PSoC4/key_touch_Filter.c **** * \details  Run the IIR filter.
 770:Generated_Source\PSoC4/key_touch_Filter.c **** *
 771:Generated_Source\PSoC4/key_touch_Filter.c **** * \param    ptrFilterHistObj The pointer to the filter RAM object of the sensor.
 772:Generated_Source\PSoC4/key_touch_Filter.c **** * \param    ptrSensorObj     The pointer to the sensor RAM object of the sensor.
ARM GAS  C:\Users\Administrator\AppData\Local\Temp\cc8knBFd.s 			page 21


 773:Generated_Source\PSoC4/key_touch_Filter.c **** * \param    wdType           Specifies the type of a widget.
 774:Generated_Source\PSoC4/key_touch_Filter.c **** *
 775:Generated_Source\PSoC4/key_touch_Filter.c **** *******************************************************************************/    
 776:Generated_Source\PSoC4/key_touch_Filter.c **** void key_touch_RunIIRInternal(key_touch_PTR_FILTER_VARIANT ptrFilterHistObj, 
 777:Generated_Source\PSoC4/key_touch_Filter.c ****                                      key_touch_RAM_SNS_STRUCT *ptrSensorObj, uint32 wdType)
 778:Generated_Source\PSoC4/key_touch_Filter.c **** {        
 779:Generated_Source\PSoC4/key_touch_Filter.c ****     uint32 channel;
 780:Generated_Source\PSoC4/key_touch_Filter.c ****     uint32 temp;
 781:Generated_Source\PSoC4/key_touch_Filter.c **** 
 782:Generated_Source\PSoC4/key_touch_Filter.c ****     for(channel = key_touch_NUM_SCAN_FREQS; channel-- > 0u;)
 783:Generated_Source\PSoC4/key_touch_Filter.c ****     {
 784:Generated_Source\PSoC4/key_touch_Filter.c ****         if ((key_touch_WD_TYPE_ENUM)wdType != key_touch_WD_PROXIMITY_E)
 785:Generated_Source\PSoC4/key_touch_Filter.c ****         {
 786:Generated_Source\PSoC4/key_touch_Filter.c ****             #if (key_touch_REGULAR_SENSOR_EN && key_touch_REGULAR_RC_IIR_FILTER_EN)
 787:Generated_Source\PSoC4/key_touch_Filter.c ****                 #if (key_touch_REGULAR_IIR_RC_TYPE == key_touch_IIR_FILTER_PERFORMANCE)
 788:Generated_Source\PSoC4/key_touch_Filter.c ****                     temp = ((uint32)ptrFilterHistObj.ptrRegular->regularChannel[channel].iirHistory
 789:Generated_Source\PSoC4/key_touch_Filter.c ****                     temp |= ptrFilterHistObj.ptrRegular->regularChannel[channel].iirHistoryLow;
 790:Generated_Source\PSoC4/key_touch_Filter.c ****                     temp = key_touch_FtIIR1stOrder((uint32)ptrSensorObj->raw[channel],
 791:Generated_Source\PSoC4/key_touch_Filter.c ****                                                         temp,
 792:Generated_Source\PSoC4/key_touch_Filter.c ****                                                         key_touch_REGULAR_IIR_RC_N,
 793:Generated_Source\PSoC4/key_touch_Filter.c ****                                                         key_touch_REGULAR_IIR_RC_SHIFT);
 794:Generated_Source\PSoC4/key_touch_Filter.c ****                     ptrFilterHistObj.ptrRegular->regularChannel[channel].iirHistory = LO16(temp >>k
 795:Generated_Source\PSoC4/key_touch_Filter.c ****                     ptrFilterHistObj.ptrRegular->regularChannel[channel].iirHistoryLow = LO8(temp);
 796:Generated_Source\PSoC4/key_touch_Filter.c ****                     ptrSensorObj->raw[channel] = LO16(temp >>key_touch_REGULAR_IIR_RC_SHIFT);
 797:Generated_Source\PSoC4/key_touch_Filter.c ****                 #else
 798:Generated_Source\PSoC4/key_touch_Filter.c ****                     temp =key_touch_FtIIR1stOrder((uint32)ptrSensorObj->raw[channel],
 799:Generated_Source\PSoC4/key_touch_Filter.c ****                                                         (uint32)ptrFilterHistObj.ptrRegular->regula
 800:Generated_Source\PSoC4/key_touch_Filter.c ****                                                         key_touch_REGULAR_IIR_RC_N,
 801:Generated_Source\PSoC4/key_touch_Filter.c ****                                                         key_touch_REGULAR_IIR_RC_SHIFT);
 802:Generated_Source\PSoC4/key_touch_Filter.c ****                     ptrFilterHistObj.ptrRegular->regularChannel[channel].iirHistory = LO16(temp);
 803:Generated_Source\PSoC4/key_touch_Filter.c ****                     ptrSensorObj->raw[channel] = LO16(temp >>key_touch_REGULAR_IIR_RC_SHIFT);
 804:Generated_Source\PSoC4/key_touch_Filter.c ****                 #endif /* (key_touch_REGULAR_IIR_RC_TYPE == key_touch_IIR_FILTER_PERFORMANCE) */
 805:Generated_Source\PSoC4/key_touch_Filter.c ****             #endif /* (key_touch_REGULAR_SENSOR_EN) */    
 806:Generated_Source\PSoC4/key_touch_Filter.c ****         }
 807:Generated_Source\PSoC4/key_touch_Filter.c ****         else
 808:Generated_Source\PSoC4/key_touch_Filter.c ****         {
 809:Generated_Source\PSoC4/key_touch_Filter.c ****             #if (key_touch_PROXIMITY_SENSOR_EN && key_touch_PROX_RC_IIR_FILTER_EN)
 810:Generated_Source\PSoC4/key_touch_Filter.c ****                 #if (key_touch_PROX_IIR_RC_TYPE == key_touch_IIR_FILTER_PERFORMANCE)
 811:Generated_Source\PSoC4/key_touch_Filter.c ****                     temp =  ptrFilterHistObj.ptrProx->proxChannel[channel].iirHistory << key_touch_
 812:Generated_Source\PSoC4/key_touch_Filter.c ****                     temp |= ptrFilterHistObj.ptrProx->proxChannel[channel].iirHistoryLow;
 813:Generated_Source\PSoC4/key_touch_Filter.c ****                     temp =key_touch_FtIIR1stOrder((uint32)ptrSensorObj->raw[channel],
 814:Generated_Source\PSoC4/key_touch_Filter.c ****                                                         temp,
 815:Generated_Source\PSoC4/key_touch_Filter.c ****                                                         key_touch_PROX_IIR_RC_N,
 816:Generated_Source\PSoC4/key_touch_Filter.c ****                                                         key_touch_PROX_IIR_RC_SHIFT);
 817:Generated_Source\PSoC4/key_touch_Filter.c ****                     ptrFilterHistObj.ptrProx->proxChannel[channel].iirHistory = LO16(temp >>key_tou
 818:Generated_Source\PSoC4/key_touch_Filter.c ****                     ptrFilterHistObj.ptrProx->proxChannel[channel].iirHistoryLow = LO8(temp);
 819:Generated_Source\PSoC4/key_touch_Filter.c ****                     ptrSensorObj->raw[channel] = LO16(temp >>key_touch_PROX_IIR_RC_SHIFT);
 820:Generated_Source\PSoC4/key_touch_Filter.c ****                 #else
 821:Generated_Source\PSoC4/key_touch_Filter.c ****                     temp =key_touch_FtIIR1stOrder((uint32)ptrSensorObj->raw[channel],
 822:Generated_Source\PSoC4/key_touch_Filter.c ****                                                         (uint32)ptrFilterHistObj.ptrProx->proxChann
 823:Generated_Source\PSoC4/key_touch_Filter.c ****                                                         key_touch_PROX_IIR_RC_N,
 824:Generated_Source\PSoC4/key_touch_Filter.c ****                                                         key_touch_PROX_IIR_RC_SHIFT);
 825:Generated_Source\PSoC4/key_touch_Filter.c ****                     ptrFilterHistObj.ptrProx->proxChannel[channel].iirHistory = LO16(temp);
 826:Generated_Source\PSoC4/key_touch_Filter.c ****                     ptrSensorObj->raw[channel] = LO16(temp >>key_touch_PROX_IIR_RC_SHIFT);
 827:Generated_Source\PSoC4/key_touch_Filter.c ****                 #endif /* (key_touch_PROX_IIR_RC_TYPE == key_touch_IIR_FILTER_PERFORMANCE) */
 828:Generated_Source\PSoC4/key_touch_Filter.c ****             #endif /* (key_touch_PROX_SENSOR_EN) */
 829:Generated_Source\PSoC4/key_touch_Filter.c ****         }    
ARM GAS  C:\Users\Administrator\AppData\Local\Temp\cc8knBFd.s 			page 22


 830:Generated_Source\PSoC4/key_touch_Filter.c ****     }        
 831:Generated_Source\PSoC4/key_touch_Filter.c **** }    
 832:Generated_Source\PSoC4/key_touch_Filter.c **** #endif /* #if (key_touch_REGULAR_RC_IIR_FILTER_EN || key_touch_PROX_RC_IIR_FILTER_EN) */
 833:Generated_Source\PSoC4/key_touch_Filter.c **** 
 834:Generated_Source\PSoC4/key_touch_Filter.c **** 
 835:Generated_Source\PSoC4/key_touch_Filter.c **** #if (key_touch_REGULAR_RC_MEDIAN_FILTER_EN || key_touch_PROX_RC_MEDIAN_FILTER_EN)
 836:Generated_Source\PSoC4/key_touch_Filter.c **** 
 837:Generated_Source\PSoC4/key_touch_Filter.c **** /*******************************************************************************
 838:Generated_Source\PSoC4/key_touch_Filter.c **** * Function Name: key_touch_InitializeMedian
 839:Generated_Source\PSoC4/key_touch_Filter.c **** ****************************************************************************//**
 840:Generated_Source\PSoC4/key_touch_Filter.c **** *
 841:Generated_Source\PSoC4/key_touch_Filter.c **** * \brief    Initializes the Median filter history.
 842:Generated_Source\PSoC4/key_touch_Filter.c **** *
 843:Generated_Source\PSoC4/key_touch_Filter.c **** * \details  Initializes the Median filter history.
 844:Generated_Source\PSoC4/key_touch_Filter.c **** *
 845:Generated_Source\PSoC4/key_touch_Filter.c **** * \param    widgetId Specifies the ID number of the widget.
 846:Generated_Source\PSoC4/key_touch_Filter.c **** * \param    sensorId Specifies the ID number of the sensor in the widget.
 847:Generated_Source\PSoC4/key_touch_Filter.c **** *
 848:Generated_Source\PSoC4/key_touch_Filter.c **** *******************************************************************************/
 849:Generated_Source\PSoC4/key_touch_Filter.c **** void key_touch_InitializeMedian(uint32 widgetId, uint32 sensorId)
 850:Generated_Source\PSoC4/key_touch_Filter.c **** {
 851:Generated_Source\PSoC4/key_touch_Filter.c ****     key_touch_FLASH_WD_STRUCT const *ptrWidget = &key_touch_dsFlash.wdgtArray[widgetId];      
 852:Generated_Source\PSoC4/key_touch_Filter.c ****     key_touch_RAM_SNS_STRUCT *ptrSensor = NULL;    
 853:Generated_Source\PSoC4/key_touch_Filter.c ****     key_touch_PTR_FILTER_VARIANT ptrFilterHistObj; 
 854:Generated_Source\PSoC4/key_touch_Filter.c ****               
 855:Generated_Source\PSoC4/key_touch_Filter.c ****     /* Find pointer to specified sensor object */     
 856:Generated_Source\PSoC4/key_touch_Filter.c ****     ptrSensor = ptrWidget->ptr2SnsRam;
 857:Generated_Source\PSoC4/key_touch_Filter.c ****     ptrSensor = &ptrSensor[sensorId];
 858:Generated_Source\PSoC4/key_touch_Filter.c ****     
 859:Generated_Source\PSoC4/key_touch_Filter.c ****     /* Find pointer to specified filter sensor object */     
 860:Generated_Source\PSoC4/key_touch_Filter.c ****     ptrFilterHistObj.ptr = ptrWidget->ptr2FltrHistory;
 861:Generated_Source\PSoC4/key_touch_Filter.c ****     
 862:Generated_Source\PSoC4/key_touch_Filter.c ****     if ((key_touch_WD_TYPE_ENUM)ptrWidget->wdgtType != key_touch_WD_PROXIMITY_E)
 863:Generated_Source\PSoC4/key_touch_Filter.c ****     {
 864:Generated_Source\PSoC4/key_touch_Filter.c ****         #if (key_touch_REGULAR_SENSOR_EN)
 865:Generated_Source\PSoC4/key_touch_Filter.c ****             ptrFilterHistObj.ptrRegular = &ptrFilterHistObj.ptrRegular[sensorId];
 866:Generated_Source\PSoC4/key_touch_Filter.c ****         #endif /* (key_touch_REGULAR_SENSOR_EN) */
 867:Generated_Source\PSoC4/key_touch_Filter.c ****     }
 868:Generated_Source\PSoC4/key_touch_Filter.c ****     else
 869:Generated_Source\PSoC4/key_touch_Filter.c ****     {
 870:Generated_Source\PSoC4/key_touch_Filter.c ****         #if (key_touch_PROXIMITY_SENSOR_EN)
 871:Generated_Source\PSoC4/key_touch_Filter.c ****             ptrFilterHistObj.ptrProx = &ptrFilterHistObj.ptrProx[sensorId];
 872:Generated_Source\PSoC4/key_touch_Filter.c ****         #endif /* (key_touch_PROXIMITY_SENSOR_EN) */
 873:Generated_Source\PSoC4/key_touch_Filter.c ****     }
 874:Generated_Source\PSoC4/key_touch_Filter.c ****     
 875:Generated_Source\PSoC4/key_touch_Filter.c ****     key_touch_InitializeMedianInternal(ptrFilterHistObj, ptrSensor, (uint32)ptrWidget->wdgtType);
 876:Generated_Source\PSoC4/key_touch_Filter.c **** }     
 877:Generated_Source\PSoC4/key_touch_Filter.c **** 
 878:Generated_Source\PSoC4/key_touch_Filter.c **** 
 879:Generated_Source\PSoC4/key_touch_Filter.c **** /*******************************************************************************
 880:Generated_Source\PSoC4/key_touch_Filter.c **** * Function Name: key_touch_RunMedian
 881:Generated_Source\PSoC4/key_touch_Filter.c **** ****************************************************************************//**
 882:Generated_Source\PSoC4/key_touch_Filter.c **** *
 883:Generated_Source\PSoC4/key_touch_Filter.c **** * \brief    Executes the Median filter algorithm on a sensor indicated by an input 
 884:Generated_Source\PSoC4/key_touch_Filter.c **** *           parameter. 
 885:Generated_Source\PSoC4/key_touch_Filter.c **** *
 886:Generated_Source\PSoC4/key_touch_Filter.c **** * \details  Executes the Median filter algorithm on a sensor indicated by an input 
ARM GAS  C:\Users\Administrator\AppData\Local\Temp\cc8knBFd.s 			page 23


 887:Generated_Source\PSoC4/key_touch_Filter.c **** *           parameter. 
 888:Generated_Source\PSoC4/key_touch_Filter.c **** *
 889:Generated_Source\PSoC4/key_touch_Filter.c **** * \param    widgetId Specifies the ID number of the widget.
 890:Generated_Source\PSoC4/key_touch_Filter.c **** * \param    sensorId Specifies the ID number of the sensor in the widget.
 891:Generated_Source\PSoC4/key_touch_Filter.c **** *
 892:Generated_Source\PSoC4/key_touch_Filter.c **** *******************************************************************************/
 893:Generated_Source\PSoC4/key_touch_Filter.c **** void key_touch_RunMedian(uint32 widgetId, uint32 sensorId)
 894:Generated_Source\PSoC4/key_touch_Filter.c **** {
 895:Generated_Source\PSoC4/key_touch_Filter.c ****     key_touch_FLASH_WD_STRUCT const *ptrWidget = &key_touch_dsFlash.wdgtArray[widgetId];      
 896:Generated_Source\PSoC4/key_touch_Filter.c ****     key_touch_RAM_SNS_STRUCT *ptrSensor = NULL;    
 897:Generated_Source\PSoC4/key_touch_Filter.c ****     key_touch_PTR_FILTER_VARIANT ptrFilterHistObj; 
 898:Generated_Source\PSoC4/key_touch_Filter.c ****               
 899:Generated_Source\PSoC4/key_touch_Filter.c ****     /* Find pointer to specified sensor object */     
 900:Generated_Source\PSoC4/key_touch_Filter.c ****     ptrSensor = ptrWidget->ptr2SnsRam;
 901:Generated_Source\PSoC4/key_touch_Filter.c ****     ptrSensor = &ptrSensor[sensorId];
 902:Generated_Source\PSoC4/key_touch_Filter.c ****     
 903:Generated_Source\PSoC4/key_touch_Filter.c ****     /* Find pointer to specified filter sensor object */     
 904:Generated_Source\PSoC4/key_touch_Filter.c ****     ptrFilterHistObj.ptr = ptrWidget->ptr2FltrHistory;
 905:Generated_Source\PSoC4/key_touch_Filter.c ****     
 906:Generated_Source\PSoC4/key_touch_Filter.c ****     if ((key_touch_WD_TYPE_ENUM)ptrWidget->wdgtType != key_touch_WD_PROXIMITY_E)
 907:Generated_Source\PSoC4/key_touch_Filter.c ****     {
 908:Generated_Source\PSoC4/key_touch_Filter.c ****         #if (key_touch_REGULAR_SENSOR_EN)
 909:Generated_Source\PSoC4/key_touch_Filter.c ****             ptrFilterHistObj.ptrRegular = &ptrFilterHistObj.ptrRegular[sensorId];
 910:Generated_Source\PSoC4/key_touch_Filter.c ****         #endif /* (key_touch_REGULAR_SENSOR_EN) */
 911:Generated_Source\PSoC4/key_touch_Filter.c ****     }
 912:Generated_Source\PSoC4/key_touch_Filter.c ****     else
 913:Generated_Source\PSoC4/key_touch_Filter.c ****     {
 914:Generated_Source\PSoC4/key_touch_Filter.c ****         #if (key_touch_PROXIMITY_SENSOR_EN)
 915:Generated_Source\PSoC4/key_touch_Filter.c ****             ptrFilterHistObj.ptrProx = &ptrFilterHistObj.ptrProx[sensorId];
 916:Generated_Source\PSoC4/key_touch_Filter.c ****         #endif /* (key_touch_PROXIMITY_SENSOR_EN) */
 917:Generated_Source\PSoC4/key_touch_Filter.c ****     }
 918:Generated_Source\PSoC4/key_touch_Filter.c ****     
 919:Generated_Source\PSoC4/key_touch_Filter.c ****     key_touch_RunMedianInternal(ptrFilterHistObj, ptrSensor, (uint32)ptrWidget->wdgtType);
 920:Generated_Source\PSoC4/key_touch_Filter.c **** }
 921:Generated_Source\PSoC4/key_touch_Filter.c ****    
 922:Generated_Source\PSoC4/key_touch_Filter.c **** 
 923:Generated_Source\PSoC4/key_touch_Filter.c **** /*******************************************************************************
 924:Generated_Source\PSoC4/key_touch_Filter.c **** * Function Name: key_touch_InitializeMedianInternal
 925:Generated_Source\PSoC4/key_touch_Filter.c **** ****************************************************************************//**
 926:Generated_Source\PSoC4/key_touch_Filter.c **** *
 927:Generated_Source\PSoC4/key_touch_Filter.c **** * \brief    Initializes the Median filter.
 928:Generated_Source\PSoC4/key_touch_Filter.c **** *
 929:Generated_Source\PSoC4/key_touch_Filter.c **** * \details  Initializes the Median filter.
 930:Generated_Source\PSoC4/key_touch_Filter.c **** *
 931:Generated_Source\PSoC4/key_touch_Filter.c **** * \param    ptrFilterHistObj The pointer to the filter RAM object of the sensor.
 932:Generated_Source\PSoC4/key_touch_Filter.c **** * \param    ptrSensorObj     The pointer to the sensor RAM object of the sensor.
 933:Generated_Source\PSoC4/key_touch_Filter.c **** * \param    wdType           Specifies the type of a widget.
 934:Generated_Source\PSoC4/key_touch_Filter.c **** *
 935:Generated_Source\PSoC4/key_touch_Filter.c **** *******************************************************************************/
 936:Generated_Source\PSoC4/key_touch_Filter.c **** void key_touch_InitializeMedianInternal(key_touch_PTR_FILTER_VARIANT ptrFilterHistObj,
 937:Generated_Source\PSoC4/key_touch_Filter.c ****                                                key_touch_RAM_SNS_STRUCT *ptrSensorObj, uint32 wdTyp
 938:Generated_Source\PSoC4/key_touch_Filter.c **** {
 939:Generated_Source\PSoC4/key_touch_Filter.c ****     uint32 channel;
 940:Generated_Source\PSoC4/key_touch_Filter.c **** 
 941:Generated_Source\PSoC4/key_touch_Filter.c ****     for(channel = key_touch_NUM_SCAN_FREQS; channel-- > 0u;)
 942:Generated_Source\PSoC4/key_touch_Filter.c ****     {
 943:Generated_Source\PSoC4/key_touch_Filter.c ****         if ((key_touch_WD_TYPE_ENUM)wdType != key_touch_WD_PROXIMITY_E)
ARM GAS  C:\Users\Administrator\AppData\Local\Temp\cc8knBFd.s 			page 24


 944:Generated_Source\PSoC4/key_touch_Filter.c ****         {
 945:Generated_Source\PSoC4/key_touch_Filter.c ****             #if (key_touch_REGULAR_SENSOR_EN && key_touch_REGULAR_RC_MEDIAN_FILTER_EN)
 946:Generated_Source\PSoC4/key_touch_Filter.c ****                 ptrFilterHistObj.ptrRegular->regularChannel[channel].medHistory[0u] = ptrSensorObj-
 947:Generated_Source\PSoC4/key_touch_Filter.c ****                 ptrFilterHistObj.ptrRegular->regularChannel[channel].medHistory[1u] = ptrSensorObj-
 948:Generated_Source\PSoC4/key_touch_Filter.c ****             #endif /* (key_touch_REGULAR_SENSOR_EN) */
 949:Generated_Source\PSoC4/key_touch_Filter.c ****         }
 950:Generated_Source\PSoC4/key_touch_Filter.c ****         else
 951:Generated_Source\PSoC4/key_touch_Filter.c ****         {
 952:Generated_Source\PSoC4/key_touch_Filter.c ****             #if (key_touch_PROXIMITY_SENSOR_EN && key_touch_PROX_RC_MEDIAN_FILTER_EN)
 953:Generated_Source\PSoC4/key_touch_Filter.c ****                 ptrFilterHistObj.ptrProx->proxChannel[channel].medHistory[0u] = ptrSensorObj->raw[c
 954:Generated_Source\PSoC4/key_touch_Filter.c ****                 ptrFilterHistObj.ptrProx->proxChannel[channel].medHistory[1u] = ptrSensorObj->raw[c
 955:Generated_Source\PSoC4/key_touch_Filter.c ****             #endif /* (key_touch_PROXIMITY_SENSOR_EN) */               
 956:Generated_Source\PSoC4/key_touch_Filter.c ****         }
 957:Generated_Source\PSoC4/key_touch_Filter.c ****     }
 958:Generated_Source\PSoC4/key_touch_Filter.c **** }
 959:Generated_Source\PSoC4/key_touch_Filter.c **** 
 960:Generated_Source\PSoC4/key_touch_Filter.c **** 
 961:Generated_Source\PSoC4/key_touch_Filter.c **** /*******************************************************************************
 962:Generated_Source\PSoC4/key_touch_Filter.c **** * Function Name: key_touch_RunMedianInternal
 963:Generated_Source\PSoC4/key_touch_Filter.c **** ****************************************************************************//**
 964:Generated_Source\PSoC4/key_touch_Filter.c **** *
 965:Generated_Source\PSoC4/key_touch_Filter.c **** * \brief    Runs the Median filter.
 966:Generated_Source\PSoC4/key_touch_Filter.c **** *
 967:Generated_Source\PSoC4/key_touch_Filter.c **** * \details  Runs the Median filter.
 968:Generated_Source\PSoC4/key_touch_Filter.c **** *
 969:Generated_Source\PSoC4/key_touch_Filter.c **** * \param    ptrFilterHistObj The pointer to the filter RAM object of the sensor.
 970:Generated_Source\PSoC4/key_touch_Filter.c **** * \param    ptrSensorObj     The pointer to the sensor RAM object of the sensor.
 971:Generated_Source\PSoC4/key_touch_Filter.c **** * \param    wdType           Specifies the type of a widget.
 972:Generated_Source\PSoC4/key_touch_Filter.c **** *
 973:Generated_Source\PSoC4/key_touch_Filter.c **** *******************************************************************************/
 974:Generated_Source\PSoC4/key_touch_Filter.c **** void key_touch_RunMedianInternal(key_touch_PTR_FILTER_VARIANT ptrFilterHistObj,
 975:Generated_Source\PSoC4/key_touch_Filter.c ****                                         key_touch_RAM_SNS_STRUCT *ptrSensorObj, uint32 wdType)
 976:Generated_Source\PSoC4/key_touch_Filter.c **** {
 977:Generated_Source\PSoC4/key_touch_Filter.c ****     uint32 channel;
 978:Generated_Source\PSoC4/key_touch_Filter.c ****     
 979:Generated_Source\PSoC4/key_touch_Filter.c ****     #if ((key_touch_REGULAR_SENSOR_EN && key_touch_REGULAR_RC_MEDIAN_FILTER_EN) || \
 980:Generated_Source\PSoC4/key_touch_Filter.c ****          (key_touch_PROXIMITY_SENSOR_EN && key_touch_PROX_RC_MEDIAN_FILTER_EN))
 981:Generated_Source\PSoC4/key_touch_Filter.c ****         uint32 temp;
 982:Generated_Source\PSoC4/key_touch_Filter.c ****     #endif
 983:Generated_Source\PSoC4/key_touch_Filter.c ****     
 984:Generated_Source\PSoC4/key_touch_Filter.c ****     for(channel = key_touch_NUM_SCAN_FREQS; channel-- > 0u;)
 985:Generated_Source\PSoC4/key_touch_Filter.c ****     {    
 986:Generated_Source\PSoC4/key_touch_Filter.c ****         if ((key_touch_WD_TYPE_ENUM)wdType != key_touch_WD_PROXIMITY_E)
 987:Generated_Source\PSoC4/key_touch_Filter.c ****         {                                             
 988:Generated_Source\PSoC4/key_touch_Filter.c ****             #if (key_touch_REGULAR_SENSOR_EN && key_touch_REGULAR_RC_MEDIAN_FILTER_EN)
 989:Generated_Source\PSoC4/key_touch_Filter.c ****                 temp = key_touch_FtMedian((uint32)ptrSensorObj->raw[channel],\
 990:Generated_Source\PSoC4/key_touch_Filter.c ****                                                  (uint32)ptrFilterHistObj.ptrRegular->regularChanne
 991:Generated_Source\PSoC4/key_touch_Filter.c ****                                                  (uint32)ptrFilterHistObj.ptrRegular->regularChanne
 992:Generated_Source\PSoC4/key_touch_Filter.c ****                 ptrFilterHistObj.ptrRegular->regularChannel[channel].medHistory[1u] = \
 993:Generated_Source\PSoC4/key_touch_Filter.c ****                 ptrFilterHistObj.ptrRegular->regularChannel[channel].medHistory[0u];
 994:Generated_Source\PSoC4/key_touch_Filter.c ****                 ptrFilterHistObj.ptrRegular->regularChannel[channel].medHistory[0u] = ptrSensorObj-
 995:Generated_Source\PSoC4/key_touch_Filter.c ****                 ptrSensorObj->raw[channel] = LO16(temp);
 996:Generated_Source\PSoC4/key_touch_Filter.c ****             #endif /* (key_touch_REGULAR_SENSOR_EN) */     
 997:Generated_Source\PSoC4/key_touch_Filter.c ****         }
 998:Generated_Source\PSoC4/key_touch_Filter.c ****         else 
 999:Generated_Source\PSoC4/key_touch_Filter.c ****         {                   
1000:Generated_Source\PSoC4/key_touch_Filter.c ****             #if (key_touch_PROXIMITY_SENSOR_EN && key_touch_PROX_RC_MEDIAN_FILTER_EN)
ARM GAS  C:\Users\Administrator\AppData\Local\Temp\cc8knBFd.s 			page 25


1001:Generated_Source\PSoC4/key_touch_Filter.c ****                 temp = key_touch_FtMedian((uint32)ptrSensorObj->raw[channel],\
1002:Generated_Source\PSoC4/key_touch_Filter.c ****                                                  (uint32)ptrFilterHistObj.ptrProx->proxChannel[chan
1003:Generated_Source\PSoC4/key_touch_Filter.c ****                                                  (uint32)ptrFilterHistObj.ptrProx->proxChannel[chan
1004:Generated_Source\PSoC4/key_touch_Filter.c ****                 ptrFilterHistObj.ptrProx->proxChannel[channel].medHistory[1u] = \
1005:Generated_Source\PSoC4/key_touch_Filter.c ****                 ptrFilterHistObj.ptrProx->proxChannel[channel].medHistory[0u];
1006:Generated_Source\PSoC4/key_touch_Filter.c ****                 ptrFilterHistObj.ptrProx->proxChannel[channel].medHistory[0u] = ptrSensorObj->raw[c
1007:Generated_Source\PSoC4/key_touch_Filter.c ****                 ptrSensorObj->raw[channel] = LO16(temp);
1008:Generated_Source\PSoC4/key_touch_Filter.c ****             #endif /* (key_touch_PROXIMITY_SENSOR_EN) */               
1009:Generated_Source\PSoC4/key_touch_Filter.c ****         }
1010:Generated_Source\PSoC4/key_touch_Filter.c ****     }
1011:Generated_Source\PSoC4/key_touch_Filter.c **** }
1012:Generated_Source\PSoC4/key_touch_Filter.c **** #endif /* (key_touch_REGULAR_RC_MEDIAN_FILTER_EN || key_touch_PROX_RC_MEDIAN_FILTER_EN) */
1013:Generated_Source\PSoC4/key_touch_Filter.c **** 
1014:Generated_Source\PSoC4/key_touch_Filter.c **** 
1015:Generated_Source\PSoC4/key_touch_Filter.c **** #if (key_touch_REGULAR_RC_AVERAGE_FILTER_EN || key_touch_PROX_RC_AVERAGE_FILTER_EN)
1016:Generated_Source\PSoC4/key_touch_Filter.c **** 
1017:Generated_Source\PSoC4/key_touch_Filter.c **** /*******************************************************************************
1018:Generated_Source\PSoC4/key_touch_Filter.c **** * Function Name: key_touch_InitializeAverage
1019:Generated_Source\PSoC4/key_touch_Filter.c **** ****************************************************************************//**
1020:Generated_Source\PSoC4/key_touch_Filter.c **** *
1021:Generated_Source\PSoC4/key_touch_Filter.c **** * \brief    Initializes the average filter history.
1022:Generated_Source\PSoC4/key_touch_Filter.c **** *
1023:Generated_Source\PSoC4/key_touch_Filter.c **** * \details  Initializes the average filter history.
1024:Generated_Source\PSoC4/key_touch_Filter.c **** *
1025:Generated_Source\PSoC4/key_touch_Filter.c **** * \param    widgetId Specifies the ID number of the widget.
1026:Generated_Source\PSoC4/key_touch_Filter.c **** * \param    sensorId Specifies the ID number of the sensor in the widget.
1027:Generated_Source\PSoC4/key_touch_Filter.c **** *
1028:Generated_Source\PSoC4/key_touch_Filter.c **** *******************************************************************************/
1029:Generated_Source\PSoC4/key_touch_Filter.c **** void key_touch_InitializeAverage(uint32 widgetId, uint32 sensorId)
1030:Generated_Source\PSoC4/key_touch_Filter.c **** {
1031:Generated_Source\PSoC4/key_touch_Filter.c ****     key_touch_FLASH_WD_STRUCT const *ptrWidget = &key_touch_dsFlash.wdgtArray[widgetId];      
1032:Generated_Source\PSoC4/key_touch_Filter.c ****     key_touch_RAM_SNS_STRUCT *ptrSensor = NULL;
1033:Generated_Source\PSoC4/key_touch_Filter.c ****     key_touch_PTR_FILTER_VARIANT ptrFilterHistObj;
1034:Generated_Source\PSoC4/key_touch_Filter.c **** 
1035:Generated_Source\PSoC4/key_touch_Filter.c ****     /* Find pointer to specified sensor object */
1036:Generated_Source\PSoC4/key_touch_Filter.c ****     ptrSensor = ptrWidget->ptr2SnsRam;
1037:Generated_Source\PSoC4/key_touch_Filter.c ****     ptrSensor = &ptrSensor[sensorId];
1038:Generated_Source\PSoC4/key_touch_Filter.c ****     
1039:Generated_Source\PSoC4/key_touch_Filter.c ****     /* Find pointer to specified filter sensor object */
1040:Generated_Source\PSoC4/key_touch_Filter.c ****     ptrFilterHistObj.ptr = ptrWidget->ptr2FltrHistory;
1041:Generated_Source\PSoC4/key_touch_Filter.c **** 
1042:Generated_Source\PSoC4/key_touch_Filter.c ****     if ((key_touch_WD_TYPE_ENUM)ptrWidget->wdgtType != key_touch_WD_PROXIMITY_E)
1043:Generated_Source\PSoC4/key_touch_Filter.c ****     {
1044:Generated_Source\PSoC4/key_touch_Filter.c ****         #if (key_touch_REGULAR_SENSOR_EN)
1045:Generated_Source\PSoC4/key_touch_Filter.c ****             ptrFilterHistObj.ptrRegular = &ptrFilterHistObj.ptrRegular[sensorId];
1046:Generated_Source\PSoC4/key_touch_Filter.c ****         #endif /* (key_touch_REGULAR_SENSOR_EN) */
1047:Generated_Source\PSoC4/key_touch_Filter.c ****     }
1048:Generated_Source\PSoC4/key_touch_Filter.c ****     else
1049:Generated_Source\PSoC4/key_touch_Filter.c ****     {
1050:Generated_Source\PSoC4/key_touch_Filter.c ****         #if (key_touch_PROXIMITY_SENSOR_EN)
1051:Generated_Source\PSoC4/key_touch_Filter.c ****             ptrFilterHistObj.ptrProx = &ptrFilterHistObj.ptrProx[sensorId];
1052:Generated_Source\PSoC4/key_touch_Filter.c ****         #endif /* (key_touch_PROXIMITY_SENSOR_EN) */
1053:Generated_Source\PSoC4/key_touch_Filter.c ****     }
1054:Generated_Source\PSoC4/key_touch_Filter.c **** 
1055:Generated_Source\PSoC4/key_touch_Filter.c ****     key_touch_InitializeAverageInternal(ptrFilterHistObj, ptrSensor, (uint32)ptrWidget->wdgtType);
1056:Generated_Source\PSoC4/key_touch_Filter.c **** }
1057:Generated_Source\PSoC4/key_touch_Filter.c **** 
ARM GAS  C:\Users\Administrator\AppData\Local\Temp\cc8knBFd.s 			page 26


1058:Generated_Source\PSoC4/key_touch_Filter.c **** 
1059:Generated_Source\PSoC4/key_touch_Filter.c **** /*******************************************************************************
1060:Generated_Source\PSoC4/key_touch_Filter.c **** * Function Name: key_touch_RunAverage
1061:Generated_Source\PSoC4/key_touch_Filter.c **** ****************************************************************************//**
1062:Generated_Source\PSoC4/key_touch_Filter.c **** *
1063:Generated_Source\PSoC4/key_touch_Filter.c **** * \brief    Executes the average filter algorithm on a sensor indicated by an input 
1064:Generated_Source\PSoC4/key_touch_Filter.c **** *           parameter. 
1065:Generated_Source\PSoC4/key_touch_Filter.c **** *
1066:Generated_Source\PSoC4/key_touch_Filter.c **** * \details  Executes the average filter algorithm on a sensor indicated by an input 
1067:Generated_Source\PSoC4/key_touch_Filter.c **** *           parameter. 
1068:Generated_Source\PSoC4/key_touch_Filter.c **** *
1069:Generated_Source\PSoC4/key_touch_Filter.c **** * \param    widgetId Specifies the ID number of the widget.
1070:Generated_Source\PSoC4/key_touch_Filter.c **** * \param    sensorId Specifies the ID number of the sensor in the widget.
1071:Generated_Source\PSoC4/key_touch_Filter.c **** *
1072:Generated_Source\PSoC4/key_touch_Filter.c **** *******************************************************************************/
1073:Generated_Source\PSoC4/key_touch_Filter.c **** void key_touch_RunAverage(uint32 widgetId, uint32 sensorId)
1074:Generated_Source\PSoC4/key_touch_Filter.c **** {
1075:Generated_Source\PSoC4/key_touch_Filter.c ****     key_touch_FLASH_WD_STRUCT const *ptrWidget = &key_touch_dsFlash.wdgtArray[widgetId];      
1076:Generated_Source\PSoC4/key_touch_Filter.c ****     key_touch_RAM_SNS_STRUCT *ptrSensor = NULL;    
1077:Generated_Source\PSoC4/key_touch_Filter.c ****     key_touch_PTR_FILTER_VARIANT ptrFilterHistObj; 
1078:Generated_Source\PSoC4/key_touch_Filter.c ****               
1079:Generated_Source\PSoC4/key_touch_Filter.c ****     /* Find pointer to specified sensor object */     
1080:Generated_Source\PSoC4/key_touch_Filter.c ****     ptrSensor = ptrWidget->ptr2SnsRam;
1081:Generated_Source\PSoC4/key_touch_Filter.c ****     ptrSensor = &ptrSensor[sensorId];
1082:Generated_Source\PSoC4/key_touch_Filter.c ****     
1083:Generated_Source\PSoC4/key_touch_Filter.c ****     /* Find pointer to specified filter sensor object */     
1084:Generated_Source\PSoC4/key_touch_Filter.c ****     ptrFilterHistObj.ptr = ptrWidget->ptr2FltrHistory;
1085:Generated_Source\PSoC4/key_touch_Filter.c ****     
1086:Generated_Source\PSoC4/key_touch_Filter.c ****     if ((key_touch_WD_TYPE_ENUM)ptrWidget->wdgtType != key_touch_WD_PROXIMITY_E)
1087:Generated_Source\PSoC4/key_touch_Filter.c ****     {
1088:Generated_Source\PSoC4/key_touch_Filter.c ****         #if (key_touch_REGULAR_SENSOR_EN)
1089:Generated_Source\PSoC4/key_touch_Filter.c ****             ptrFilterHistObj.ptrRegular = &ptrFilterHistObj.ptrRegular[sensorId];
1090:Generated_Source\PSoC4/key_touch_Filter.c ****         #endif /* (key_touch_REGULAR_SENSOR_EN) */
1091:Generated_Source\PSoC4/key_touch_Filter.c ****     }
1092:Generated_Source\PSoC4/key_touch_Filter.c ****     else
1093:Generated_Source\PSoC4/key_touch_Filter.c ****     {
1094:Generated_Source\PSoC4/key_touch_Filter.c ****         #if (key_touch_PROXIMITY_SENSOR_EN)
1095:Generated_Source\PSoC4/key_touch_Filter.c ****             ptrFilterHistObj.ptrProx = &ptrFilterHistObj.ptrProx[sensorId];
1096:Generated_Source\PSoC4/key_touch_Filter.c ****         #endif /* (key_touch_PROXIMITY_SENSOR_EN) */
1097:Generated_Source\PSoC4/key_touch_Filter.c ****     }
1098:Generated_Source\PSoC4/key_touch_Filter.c ****     
1099:Generated_Source\PSoC4/key_touch_Filter.c ****     key_touch_RunAverageInternal(ptrFilterHistObj, ptrSensor, (uint32)ptrWidget->wdgtType);
1100:Generated_Source\PSoC4/key_touch_Filter.c **** }
1101:Generated_Source\PSoC4/key_touch_Filter.c **** 
1102:Generated_Source\PSoC4/key_touch_Filter.c **** 
1103:Generated_Source\PSoC4/key_touch_Filter.c **** /*******************************************************************************
1104:Generated_Source\PSoC4/key_touch_Filter.c **** * Function Name: key_touch_InitializeAverageInternal
1105:Generated_Source\PSoC4/key_touch_Filter.c **** ****************************************************************************//**
1106:Generated_Source\PSoC4/key_touch_Filter.c **** *
1107:Generated_Source\PSoC4/key_touch_Filter.c **** * \brief    Initializes the average filter.
1108:Generated_Source\PSoC4/key_touch_Filter.c **** *
1109:Generated_Source\PSoC4/key_touch_Filter.c **** * \details  Initializes the average filter.
1110:Generated_Source\PSoC4/key_touch_Filter.c **** *
1111:Generated_Source\PSoC4/key_touch_Filter.c **** * \param    ptrFilterHistObj The pointer to the filter RAM object of the sensor.
1112:Generated_Source\PSoC4/key_touch_Filter.c **** * \param    ptrSensorObj     The pointer to the sensor RAM object of the sensor.
1113:Generated_Source\PSoC4/key_touch_Filter.c **** * \param    wdType           Specifies the type of a widget.
1114:Generated_Source\PSoC4/key_touch_Filter.c **** *
ARM GAS  C:\Users\Administrator\AppData\Local\Temp\cc8knBFd.s 			page 27


1115:Generated_Source\PSoC4/key_touch_Filter.c **** *******************************************************************************/
1116:Generated_Source\PSoC4/key_touch_Filter.c **** void key_touch_InitializeAverageInternal(key_touch_PTR_FILTER_VARIANT ptrFilterHistObj,\
1117:Generated_Source\PSoC4/key_touch_Filter.c ****                                                   key_touch_RAM_SNS_STRUCT *ptrSensorObj, uint32 wd
1118:Generated_Source\PSoC4/key_touch_Filter.c **** {
1119:Generated_Source\PSoC4/key_touch_Filter.c ****     uint32 channel;
1120:Generated_Source\PSoC4/key_touch_Filter.c **** 
1121:Generated_Source\PSoC4/key_touch_Filter.c ****     for(channel = key_touch_NUM_SCAN_FREQS; channel-- > 0u;)
1122:Generated_Source\PSoC4/key_touch_Filter.c ****     {
1123:Generated_Source\PSoC4/key_touch_Filter.c ****         if ((key_touch_WD_TYPE_ENUM)wdType != key_touch_WD_PROXIMITY_E)
1124:Generated_Source\PSoC4/key_touch_Filter.c ****         {
1125:Generated_Source\PSoC4/key_touch_Filter.c ****             #if (key_touch_REGULAR_SENSOR_EN && key_touch_REGULAR_RC_AVERAGE_FILTER_EN)
1126:Generated_Source\PSoC4/key_touch_Filter.c ****                 ptrFilterHistObj.ptrRegular->regularChannel[channel].avgHistory[0] = ptrSensorObj->
1127:Generated_Source\PSoC4/key_touch_Filter.c ****                 #if (key_touch_REGULAR_AVERAGE_LEN == key_touch_AVERAGE_FILTER_LEN_4)
1128:Generated_Source\PSoC4/key_touch_Filter.c ****                     ptrFilterHistObj.ptrRegular->regularChannel[channel].avgHistory[1u] = ptrSensor
1129:Generated_Source\PSoC4/key_touch_Filter.c ****                     ptrFilterHistObj.ptrRegular->regularChannel[channel].avgHistory[2u] = ptrSensor
1130:Generated_Source\PSoC4/key_touch_Filter.c ****                 #endif /* key_touch_REGULAR_AVERAGE_LEN == key_touch_AVERAGE_FILTER_LEN_4 */
1131:Generated_Source\PSoC4/key_touch_Filter.c ****             #endif /* (key_touch_REGULAR_SENSOR_EN) */      
1132:Generated_Source\PSoC4/key_touch_Filter.c ****         }
1133:Generated_Source\PSoC4/key_touch_Filter.c ****         else
1134:Generated_Source\PSoC4/key_touch_Filter.c ****         {
1135:Generated_Source\PSoC4/key_touch_Filter.c ****             #if (key_touch_PROXIMITY_SENSOR_EN && key_touch_PROX_RC_AVERAGE_FILTER_EN)
1136:Generated_Source\PSoC4/key_touch_Filter.c ****                 ptrFilterHistObj.ptrProx->proxChannel[channel].avgHistory[0] = ptrSensorObj->raw[ch
1137:Generated_Source\PSoC4/key_touch_Filter.c ****                     #if (key_touch_PROX_AVERAGE_LEN == key_touch_AVERAGE_FILTER_LEN_4)
1138:Generated_Source\PSoC4/key_touch_Filter.c ****                         ptrFilterHistObj.ptrProx->proxChannel[channel].avgHistory[1u] = ptrSensorOb
1139:Generated_Source\PSoC4/key_touch_Filter.c ****                         ptrFilterHistObj.ptrProx->proxChannel[channel].avgHistory[2u] = ptrSensorOb
1140:Generated_Source\PSoC4/key_touch_Filter.c ****                     #endif /* key_touch_REGULAR_AVERAGE_LEN == key_touch_AVERAGE_FILTER_LEN_4 */
1141:Generated_Source\PSoC4/key_touch_Filter.c ****             #endif /* (key_touch_PROXIMITY_SENSOR_EN) */
1142:Generated_Source\PSoC4/key_touch_Filter.c ****         }
1143:Generated_Source\PSoC4/key_touch_Filter.c ****     }
1144:Generated_Source\PSoC4/key_touch_Filter.c **** }
1145:Generated_Source\PSoC4/key_touch_Filter.c **** 
1146:Generated_Source\PSoC4/key_touch_Filter.c **** 
1147:Generated_Source\PSoC4/key_touch_Filter.c **** /*******************************************************************************
1148:Generated_Source\PSoC4/key_touch_Filter.c **** * Function Name: key_touch_RunAverageInternal
1149:Generated_Source\PSoC4/key_touch_Filter.c **** ****************************************************************************//**
1150:Generated_Source\PSoC4/key_touch_Filter.c **** *
1151:Generated_Source\PSoC4/key_touch_Filter.c **** * \brief    Runs the average filter.
1152:Generated_Source\PSoC4/key_touch_Filter.c **** *
1153:Generated_Source\PSoC4/key_touch_Filter.c **** * \details  Runs the average filter.
1154:Generated_Source\PSoC4/key_touch_Filter.c **** *
1155:Generated_Source\PSoC4/key_touch_Filter.c **** * \param    ptrFilterHistObj The pointer to the filter RAM object of the sensor.
1156:Generated_Source\PSoC4/key_touch_Filter.c **** * \param    ptrSensorObj     The pointer to the sensor RAM object of the sensor.
1157:Generated_Source\PSoC4/key_touch_Filter.c **** * \param    wdType           Specifies the type of a widget.
1158:Generated_Source\PSoC4/key_touch_Filter.c **** *
1159:Generated_Source\PSoC4/key_touch_Filter.c **** *******************************************************************************/
1160:Generated_Source\PSoC4/key_touch_Filter.c **** void key_touch_RunAverageInternal(key_touch_PTR_FILTER_VARIANT ptrFilterHistObj,\
1161:Generated_Source\PSoC4/key_touch_Filter.c ****                                            key_touch_RAM_SNS_STRUCT *ptrSensorObj, uint32 wdType)
1162:Generated_Source\PSoC4/key_touch_Filter.c **** {
1163:Generated_Source\PSoC4/key_touch_Filter.c ****     uint32 channel;
1164:Generated_Source\PSoC4/key_touch_Filter.c ****     uint32 temp;
1165:Generated_Source\PSoC4/key_touch_Filter.c **** 
1166:Generated_Source\PSoC4/key_touch_Filter.c ****     for(channel = key_touch_NUM_SCAN_FREQS; channel-- > 0u;)
1167:Generated_Source\PSoC4/key_touch_Filter.c ****     {
1168:Generated_Source\PSoC4/key_touch_Filter.c ****         if ((key_touch_WD_TYPE_ENUM)wdType != key_touch_WD_PROXIMITY_E)
1169:Generated_Source\PSoC4/key_touch_Filter.c ****         {
1170:Generated_Source\PSoC4/key_touch_Filter.c ****             #if (key_touch_REGULAR_SENSOR_EN && key_touch_REGULAR_RC_AVERAGE_FILTER_EN)
1171:Generated_Source\PSoC4/key_touch_Filter.c ****                 #if (key_touch_REGULAR_AVERAGE_LEN == key_touch_AVERAGE_FILTER_LEN_2)
ARM GAS  C:\Users\Administrator\AppData\Local\Temp\cc8knBFd.s 			page 28


1172:Generated_Source\PSoC4/key_touch_Filter.c ****                     temp = ((uint32)ptrSensorObj->raw[channel] + 
1173:Generated_Source\PSoC4/key_touch_Filter.c ****                             (uint32)ptrFilterHistObj.ptrRegular->regularChannel[channel].avgHistory
1174:Generated_Source\PSoC4/key_touch_Filter.c ****                     ptrFilterHistObj.ptrRegular->regularChannel[channel].avgHistory[0] = ptrSensorO
1175:Generated_Source\PSoC4/key_touch_Filter.c ****                     ptrSensorObj->raw[channel] = LO16(temp);
1176:Generated_Source\PSoC4/key_touch_Filter.c ****                 #else
1177:Generated_Source\PSoC4/key_touch_Filter.c ****                     temp = ((uint32)ptrSensorObj->raw[channel] + 
1178:Generated_Source\PSoC4/key_touch_Filter.c ****                             (uint32)ptrFilterHistObj.ptrRegular->regularChannel[channel].avgHistory
1179:Generated_Source\PSoC4/key_touch_Filter.c ****                             (uint32)ptrFilterHistObj.ptrRegular->regularChannel[channel].avgHistory
1180:Generated_Source\PSoC4/key_touch_Filter.c ****                             (uint32)ptrFilterHistObj.ptrRegular->regularChannel[channel].avgHistory
1181:Generated_Source\PSoC4/key_touch_Filter.c **** 
1182:Generated_Source\PSoC4/key_touch_Filter.c ****                     ptrFilterHistObj.ptrRegular->regularChannel[channel].avgHistory[2u] =
1183:Generated_Source\PSoC4/key_touch_Filter.c ****                     ptrFilterHistObj.ptrRegular->regularChannel[channel].avgHistory[1u];
1184:Generated_Source\PSoC4/key_touch_Filter.c ****                     ptrFilterHistObj.ptrRegular->regularChannel[channel].avgHistory[1u] =
1185:Generated_Source\PSoC4/key_touch_Filter.c ****                     ptrFilterHistObj.ptrRegular->regularChannel[channel].avgHistory[0];
1186:Generated_Source\PSoC4/key_touch_Filter.c ****                     ptrFilterHistObj.ptrRegular->regularChannel[channel].avgHistory[0] = ptrSensorO
1187:Generated_Source\PSoC4/key_touch_Filter.c ****                     ptrSensorObj->raw[channel] = LO16(temp);
1188:Generated_Source\PSoC4/key_touch_Filter.c ****                 #endif /* key_touch_REGULAR_AVERAGE_LEN == key_touch_AVERAGE_FILTER_LEN_4 */
1189:Generated_Source\PSoC4/key_touch_Filter.c ****             #endif /* (key_touch_REGULAR_SENSOR_EN) */
1190:Generated_Source\PSoC4/key_touch_Filter.c ****         }
1191:Generated_Source\PSoC4/key_touch_Filter.c ****         else 
1192:Generated_Source\PSoC4/key_touch_Filter.c ****         {
1193:Generated_Source\PSoC4/key_touch_Filter.c ****             #if (key_touch_PROXIMITY_SENSOR_EN && key_touch_PROX_RC_AVERAGE_FILTER_EN)
1194:Generated_Source\PSoC4/key_touch_Filter.c ****                 #if (key_touch_PROX_AVERAGE_LEN == key_touch_AVERAGE_FILTER_LEN_2)     
1195:Generated_Source\PSoC4/key_touch_Filter.c ****                     temp = ((uint32)ptrSensorObj->raw[channel] + 
1196:Generated_Source\PSoC4/key_touch_Filter.c ****                             (uint32)ptrFilterHistObj.ptrProx->proxChannel[channel].avgHistory[0]) >
1197:Generated_Source\PSoC4/key_touch_Filter.c ****                     ptrFilterHistObj.ptrProx->proxChannel[channel].avgHistory[0] = ptrSensorObj->ra
1198:Generated_Source\PSoC4/key_touch_Filter.c ****                     ptrSensorObj->raw[channel] = LO16(temp);
1199:Generated_Source\PSoC4/key_touch_Filter.c ****                 #else
1200:Generated_Source\PSoC4/key_touch_Filter.c ****                     temp = ((uint32)ptrSensorObj->raw[channel] + 
1201:Generated_Source\PSoC4/key_touch_Filter.c ****                             (uint32)ptrFilterHistObj.ptrProx->proxChannel[channel].avgHistory[0] +
1202:Generated_Source\PSoC4/key_touch_Filter.c ****                             (uint32)ptrFilterHistObj.ptrProx->proxChannel[channel].avgHistory[1u] +
1203:Generated_Source\PSoC4/key_touch_Filter.c ****                             (uint32)ptrFilterHistObj.ptrProx->proxChannel[channel].avgHistory[2u]) 
1204:Generated_Source\PSoC4/key_touch_Filter.c ****                     
1205:Generated_Source\PSoC4/key_touch_Filter.c ****                     ptrFilterHistObj.ptrProx->proxChannel[channel].avgHistory[2u] =
1206:Generated_Source\PSoC4/key_touch_Filter.c ****                     ptrFilterHistObj.ptrProx->proxChannel[channel].avgHistory[1u];
1207:Generated_Source\PSoC4/key_touch_Filter.c ****                     ptrFilterHistObj.ptrProx->proxChannel[channel].avgHistory[1u] =
1208:Generated_Source\PSoC4/key_touch_Filter.c ****                     ptrFilterHistObj.ptrProx->proxChannel[channel].avgHistory[0];
1209:Generated_Source\PSoC4/key_touch_Filter.c ****                     ptrFilterHistObj.ptrProx->proxChannel[channel].avgHistory[0] = ptrSensorObj->ra
1210:Generated_Source\PSoC4/key_touch_Filter.c ****                     ptrSensorObj->raw[channel] = LO16(temp);
1211:Generated_Source\PSoC4/key_touch_Filter.c ****                 #endif /* key_touch_PROX_AVERAGE_LEN == key_touch_AVERAGE_FILTER_LEN_4 */
1212:Generated_Source\PSoC4/key_touch_Filter.c ****             #endif /* (key_touch_PROXIMITY_SENSOR_EN) */
1213:Generated_Source\PSoC4/key_touch_Filter.c ****         }
1214:Generated_Source\PSoC4/key_touch_Filter.c ****     }
1215:Generated_Source\PSoC4/key_touch_Filter.c **** }
1216:Generated_Source\PSoC4/key_touch_Filter.c **** #endif /* (key_touch_REGULAR_RC_AVERAGE_FILTER_EN || key_touch_PROX_RC_AVERAGE_FILTER_EN) */
1217:Generated_Source\PSoC4/key_touch_Filter.c **** 
1218:Generated_Source\PSoC4/key_touch_Filter.c **** 
1219:Generated_Source\PSoC4/key_touch_Filter.c **** #if ((key_touch_REGULAR_RC_FILTER_EN || key_touch_PROX_RC_FILTER_EN))
1220:Generated_Source\PSoC4/key_touch_Filter.c **** /*******************************************************************************
1221:Generated_Source\PSoC4/key_touch_Filter.c **** * Function Name: key_touch_FtRunEnabledFilters
1222:Generated_Source\PSoC4/key_touch_Filter.c **** ****************************************************************************//**
1223:Generated_Source\PSoC4/key_touch_Filter.c **** *
1224:Generated_Source\PSoC4/key_touch_Filter.c **** * \brief    Runs all enabled filters.
1225:Generated_Source\PSoC4/key_touch_Filter.c **** *
1226:Generated_Source\PSoC4/key_touch_Filter.c **** * \details  Runs all enabled filters.
1227:Generated_Source\PSoC4/key_touch_Filter.c **** *
1228:Generated_Source\PSoC4/key_touch_Filter.c **** * \param    widgetId Specifies the ID number of a widget to update the IIR filter history.*
ARM GAS  C:\Users\Administrator\AppData\Local\Temp\cc8knBFd.s 			page 29


1229:Generated_Source\PSoC4/key_touch_Filter.c **** * \param    sensorId Specifies the ID number of a sensor in the widget to update the IIR 
1230:Generated_Source\PSoC4/key_touch_Filter.c **** *           filter history.
1231:Generated_Source\PSoC4/key_touch_Filter.c **** *
1232:Generated_Source\PSoC4/key_touch_Filter.c **** *******************************************************************************/
1233:Generated_Source\PSoC4/key_touch_Filter.c **** void key_touch_FtRunEnabledFilters(uint32 widgetId, uint32 sensorId)
1234:Generated_Source\PSoC4/key_touch_Filter.c **** {
1235:Generated_Source\PSoC4/key_touch_Filter.c ****     key_touch_FLASH_WD_STRUCT const *ptrWidget = &key_touch_dsFlash.wdgtArray[widgetId];      
1236:Generated_Source\PSoC4/key_touch_Filter.c ****     key_touch_RAM_SNS_STRUCT *ptrSensor = NULL;    
1237:Generated_Source\PSoC4/key_touch_Filter.c ****     key_touch_PTR_FILTER_VARIANT ptrFilterHistObj; 
1238:Generated_Source\PSoC4/key_touch_Filter.c ****               
1239:Generated_Source\PSoC4/key_touch_Filter.c ****     /* Find pointer to specified sensor object */     
1240:Generated_Source\PSoC4/key_touch_Filter.c ****     ptrSensor = ptrWidget->ptr2SnsRam;
1241:Generated_Source\PSoC4/key_touch_Filter.c ****     ptrSensor = &ptrSensor[sensorId];
1242:Generated_Source\PSoC4/key_touch_Filter.c ****     
1243:Generated_Source\PSoC4/key_touch_Filter.c ****     /* Find pointer to specified filter sensor object */     
1244:Generated_Source\PSoC4/key_touch_Filter.c ****     ptrFilterHistObj.ptr = ptrWidget->ptr2FltrHistory;
1245:Generated_Source\PSoC4/key_touch_Filter.c ****     
1246:Generated_Source\PSoC4/key_touch_Filter.c ****     if ((key_touch_WD_TYPE_ENUM)ptrWidget->wdgtType != key_touch_WD_PROXIMITY_E)
1247:Generated_Source\PSoC4/key_touch_Filter.c ****     {
1248:Generated_Source\PSoC4/key_touch_Filter.c ****         #if (key_touch_REGULAR_SENSOR_EN)
1249:Generated_Source\PSoC4/key_touch_Filter.c ****             ptrFilterHistObj.ptrRegular = &ptrFilterHistObj.ptrRegular[sensorId];
1250:Generated_Source\PSoC4/key_touch_Filter.c ****         #endif /* (key_touch_REGULAR_SENSOR_EN) */
1251:Generated_Source\PSoC4/key_touch_Filter.c ****     }
1252:Generated_Source\PSoC4/key_touch_Filter.c ****     else
1253:Generated_Source\PSoC4/key_touch_Filter.c ****     {
1254:Generated_Source\PSoC4/key_touch_Filter.c ****         #if (key_touch_PROXIMITY_SENSOR_EN)
1255:Generated_Source\PSoC4/key_touch_Filter.c ****             ptrFilterHistObj.ptrProx = &ptrFilterHistObj.ptrProx[sensorId];
1256:Generated_Source\PSoC4/key_touch_Filter.c ****         #endif /* (key_touch_PROXIMITY_SENSOR_EN) */
1257:Generated_Source\PSoC4/key_touch_Filter.c ****     }
1258:Generated_Source\PSoC4/key_touch_Filter.c ****     
1259:Generated_Source\PSoC4/key_touch_Filter.c ****     key_touch_FtRunEnabledFiltersInternal(ptrFilterHistObj, ptrSensor, (uint32)ptrWidget->wdgtType)
1260:Generated_Source\PSoC4/key_touch_Filter.c **** }
1261:Generated_Source\PSoC4/key_touch_Filter.c **** 
1262:Generated_Source\PSoC4/key_touch_Filter.c **** 
1263:Generated_Source\PSoC4/key_touch_Filter.c **** /*******************************************************************************
1264:Generated_Source\PSoC4/key_touch_Filter.c **** * Function Name: key_touch_FtRunEnabledFiltersInternal
1265:Generated_Source\PSoC4/key_touch_Filter.c **** ****************************************************************************//**
1266:Generated_Source\PSoC4/key_touch_Filter.c **** *
1267:Generated_Source\PSoC4/key_touch_Filter.c **** * \brief    Runs all enabled filters.
1268:Generated_Source\PSoC4/key_touch_Filter.c **** *
1269:Generated_Source\PSoC4/key_touch_Filter.c **** * \details  Runs all enabled filters.
1270:Generated_Source\PSoC4/key_touch_Filter.c **** *
1271:Generated_Source\PSoC4/key_touch_Filter.c **** * \param    ptrFilterHistObj The pointer to the filter RAM object of the sensor.
1272:Generated_Source\PSoC4/key_touch_Filter.c **** * \param    ptrSensorObj     The pointer to the sensor RAM object of the sensor.
1273:Generated_Source\PSoC4/key_touch_Filter.c **** * \param    wdType           Specifies the type of a widget.
1274:Generated_Source\PSoC4/key_touch_Filter.c **** *
1275:Generated_Source\PSoC4/key_touch_Filter.c **** *******************************************************************************/
1276:Generated_Source\PSoC4/key_touch_Filter.c **** void key_touch_FtRunEnabledFiltersInternal(key_touch_PTR_FILTER_VARIANT ptrFilterHistObj, 
1277:Generated_Source\PSoC4/key_touch_Filter.c ****                                                   key_touch_RAM_SNS_STRUCT *ptrSensorObj, uint32 wd
1278:Generated_Source\PSoC4/key_touch_Filter.c **** {
1279:Generated_Source\PSoC4/key_touch_Filter.c ****     #if (key_touch_REGULAR_RC_MEDIAN_FILTER_EN || key_touch_PROX_RC_MEDIAN_FILTER_EN)
1280:Generated_Source\PSoC4/key_touch_Filter.c ****         key_touch_RunMedianInternal(ptrFilterHistObj, ptrSensorObj, wdType);
1281:Generated_Source\PSoC4/key_touch_Filter.c ****     #endif /* (key_touch_REGULAR_RC_MEDIAN_FILTER_EN || key_touch_PROX_RC_MEDIAN_FILTER_EN) */
1282:Generated_Source\PSoC4/key_touch_Filter.c ****     
1283:Generated_Source\PSoC4/key_touch_Filter.c ****     #if (key_touch_REGULAR_RC_IIR_FILTER_EN || key_touch_PROX_RC_IIR_FILTER_EN)    
1284:Generated_Source\PSoC4/key_touch_Filter.c ****         key_touch_RunIIRInternal(ptrFilterHistObj, ptrSensorObj, wdType);
1285:Generated_Source\PSoC4/key_touch_Filter.c ****     #endif /* (key_touch_REGULAR_RC_IIR_FILTER_EN || key_touch_PROX_RC_IIR_FILTER_EN) */ 
ARM GAS  C:\Users\Administrator\AppData\Local\Temp\cc8knBFd.s 			page 30


1286:Generated_Source\PSoC4/key_touch_Filter.c **** 
1287:Generated_Source\PSoC4/key_touch_Filter.c ****     #if (key_touch_REGULAR_RC_AVERAGE_FILTER_EN || key_touch_PROX_RC_AVERAGE_FILTER_EN)
1288:Generated_Source\PSoC4/key_touch_Filter.c ****         key_touch_RunAverageInternal(ptrFilterHistObj, ptrSensorObj, wdType);
1289:Generated_Source\PSoC4/key_touch_Filter.c ****     #endif /* (key_touch_REGULAR_RC_AVERAGE_FILTER_EN || key_touch_PROX_RC_AVERAGE_FILTER_EN) */   
1290:Generated_Source\PSoC4/key_touch_Filter.c **** }
1291:Generated_Source\PSoC4/key_touch_Filter.c **** #endif /* (key_touch_REGULAR_RC_FILTER_EN || key_touch_PROX_RC_FILTER_EN) */
1292:Generated_Source\PSoC4/key_touch_Filter.c **** 
1293:Generated_Source\PSoC4/key_touch_Filter.c **** 
1294:Generated_Source\PSoC4/key_touch_Filter.c **** #if (key_touch_CSD_AUTOTUNE & key_touch_CSD_SS_TH_EN)
1295:Generated_Source\PSoC4/key_touch_Filter.c **** /*******************************************************************************
1296:Generated_Source\PSoC4/key_touch_Filter.c **** * Function Name: key_touch_RunNoiseEnvelope
1297:Generated_Source\PSoC4/key_touch_Filter.c **** ****************************************************************************//**
1298:Generated_Source\PSoC4/key_touch_Filter.c **** *
1299:Generated_Source\PSoC4/key_touch_Filter.c **** * \brief    Executes the noise envelope  filter algorithm on a sensor indicated by 
1300:Generated_Source\PSoC4/key_touch_Filter.c **** *           an input parameter to measure the pk-to-pk noise in the sensor raw count.
1301:Generated_Source\PSoC4/key_touch_Filter.c **** *
1302:Generated_Source\PSoC4/key_touch_Filter.c **** * \details  Executes the noise envelope  filter algorithm on a sensor indicated by 
1303:Generated_Source\PSoC4/key_touch_Filter.c **** *           an input parameter to measure the pk-to-pk noise in the sensor raw count.
1304:Generated_Source\PSoC4/key_touch_Filter.c **** *
1305:Generated_Source\PSoC4/key_touch_Filter.c **** * \param    widgetId Specifies the ID number of the widget.
1306:Generated_Source\PSoC4/key_touch_Filter.c **** * \param    sensorId Specifies the ID number of the sensor in the widget.
1307:Generated_Source\PSoC4/key_touch_Filter.c **** *
1308:Generated_Source\PSoC4/key_touch_Filter.c **** *******************************************************************************/
1309:Generated_Source\PSoC4/key_touch_Filter.c **** void key_touch_RunNoiseEnvelope(uint32 widgetId, uint32 sensorId)
1310:Generated_Source\PSoC4/key_touch_Filter.c **** {
1311:Generated_Source\PSoC4/key_touch_Filter.c ****     key_touch_FLASH_WD_STRUCT const *ptrWidget = &key_touch_dsFlash.wdgtArray[widgetId];
1312:Generated_Source\PSoC4/key_touch_Filter.c ****     key_touch_RAM_WD_BASE_STRUCT *ptrWidgetRam = ptrWidget->ptr2WdgtRam;
1313:Generated_Source\PSoC4/key_touch_Filter.c ****     key_touch_RAM_SNS_STRUCT *ptrSensor = NULL;    
1314:Generated_Source\PSoC4/key_touch_Filter.c ****     SMARTSENSE_CSD_NOISE_ENVELOPE_STRUCT *ptrNoiseEnvelope = NULL;
1315:Generated_Source\PSoC4/key_touch_Filter.c **** 
1316:Generated_Source\PSoC4/key_touch_Filter.c ****     /* Find pointer to specified sensor object */
1317:Generated_Source\PSoC4/key_touch_Filter.c ****     ptrSensor = ptrWidget->ptr2SnsRam;
1318:Generated_Source\PSoC4/key_touch_Filter.c ****     ptrSensor = &ptrSensor[sensorId];
1319:Generated_Source\PSoC4/key_touch_Filter.c ****     
1320:Generated_Source\PSoC4/key_touch_Filter.c ****     /* Find pointer to specified filter sensor object */
1321:Generated_Source\PSoC4/key_touch_Filter.c ****     ptrNoiseEnvelope = ptrWidget->ptr2NoiseEnvlp;
1322:Generated_Source\PSoC4/key_touch_Filter.c ****     ptrNoiseEnvelope = &ptrNoiseEnvelope[sensorId];    
1323:Generated_Source\PSoC4/key_touch_Filter.c **** 
1324:Generated_Source\PSoC4/key_touch_Filter.c ****     SmartSense_RunNoiseEnvelope(ptrSensor->raw[0u], ptrWidgetRam->sigPFC, ptrNoiseEnvelope);
1325:Generated_Source\PSoC4/key_touch_Filter.c **** }
1326:Generated_Source\PSoC4/key_touch_Filter.c **** 
1327:Generated_Source\PSoC4/key_touch_Filter.c **** 
1328:Generated_Source\PSoC4/key_touch_Filter.c **** /*******************************************************************************
1329:Generated_Source\PSoC4/key_touch_Filter.c **** * Function Name: key_touch_InitializeNoiseEnvelope
1330:Generated_Source\PSoC4/key_touch_Filter.c **** ****************************************************************************//**
1331:Generated_Source\PSoC4/key_touch_Filter.c **** *
1332:Generated_Source\PSoC4/key_touch_Filter.c **** * \brief    Initializes the noise-envelope filter
1333:Generated_Source\PSoC4/key_touch_Filter.c **** *
1334:Generated_Source\PSoC4/key_touch_Filter.c **** * \details  Initializes the noise-envelope filter
1335:Generated_Source\PSoC4/key_touch_Filter.c **** *
1336:Generated_Source\PSoC4/key_touch_Filter.c **** * \param    widgetId Specifies the ID number of the widget.
1337:Generated_Source\PSoC4/key_touch_Filter.c **** * \param    sensorId Specifies the ID number of the sensor in the widget.
1338:Generated_Source\PSoC4/key_touch_Filter.c **** *
1339:Generated_Source\PSoC4/key_touch_Filter.c **** *******************************************************************************/
1340:Generated_Source\PSoC4/key_touch_Filter.c **** void key_touch_InitializeNoiseEnvelope(uint32 widgetId, uint32 sensorId)
1341:Generated_Source\PSoC4/key_touch_Filter.c **** {
1342:Generated_Source\PSoC4/key_touch_Filter.c ****     key_touch_FLASH_WD_STRUCT const *ptrWidget = &key_touch_dsFlash.wdgtArray[widgetId];
ARM GAS  C:\Users\Administrator\AppData\Local\Temp\cc8knBFd.s 			page 31


1343:Generated_Source\PSoC4/key_touch_Filter.c ****     key_touch_RAM_WD_BASE_STRUCT *ptrWidgetRam = ptrWidget->ptr2WdgtRam;
1344:Generated_Source\PSoC4/key_touch_Filter.c ****     key_touch_RAM_SNS_STRUCT *ptrSensor = NULL;    
1345:Generated_Source\PSoC4/key_touch_Filter.c ****     SMARTSENSE_CSD_NOISE_ENVELOPE_STRUCT *ptrNoiseEnvelope = NULL;
1346:Generated_Source\PSoC4/key_touch_Filter.c **** 
1347:Generated_Source\PSoC4/key_touch_Filter.c ****     /* Find pointer to specified sensor object */
1348:Generated_Source\PSoC4/key_touch_Filter.c ****     ptrSensor = ptrWidget->ptr2SnsRam;
1349:Generated_Source\PSoC4/key_touch_Filter.c ****     ptrSensor = &ptrSensor[sensorId];
1350:Generated_Source\PSoC4/key_touch_Filter.c ****     
1351:Generated_Source\PSoC4/key_touch_Filter.c ****     /* Find pointer to specified filter sensor object */
1352:Generated_Source\PSoC4/key_touch_Filter.c ****     ptrNoiseEnvelope = ptrWidget->ptr2NoiseEnvlp;
1353:Generated_Source\PSoC4/key_touch_Filter.c ****     ptrNoiseEnvelope = &ptrNoiseEnvelope[sensorId];    
1354:Generated_Source\PSoC4/key_touch_Filter.c **** 
1355:Generated_Source\PSoC4/key_touch_Filter.c ****     SmartSense_InitializeNoiseEnvelope(ptrSensor->raw[0u], ptrWidgetRam->sigPFC, ptrNoiseEnvelope);
1356:Generated_Source\PSoC4/key_touch_Filter.c **** }
1357:Generated_Source\PSoC4/key_touch_Filter.c **** #endif /* #if key_touch_CSD_AUTOTUNE & key_touch_CSD_SS_TH_EN */
1358:Generated_Source\PSoC4/key_touch_Filter.c **** 
1359:Generated_Source\PSoC4/key_touch_Filter.c **** 
1360:Generated_Source\PSoC4/key_touch_Filter.c **** #if (key_touch_POS_MEDIAN_FILTER_EN || key_touch_REGULAR_RC_MEDIAN_FILTER_EN || key_touch_PROX_RC_M
1361:Generated_Source\PSoC4/key_touch_Filter.c **** /*******************************************************************************
1362:Generated_Source\PSoC4/key_touch_Filter.c **** * Function Name: key_touch_FtMedian
1363:Generated_Source\PSoC4/key_touch_Filter.c **** ****************************************************************************//**
1364:Generated_Source\PSoC4/key_touch_Filter.c **** *
1365:Generated_Source\PSoC4/key_touch_Filter.c **** * \brief    Return the median value from the three passed arguments.
1366:Generated_Source\PSoC4/key_touch_Filter.c **** *
1367:Generated_Source\PSoC4/key_touch_Filter.c **** * \details  Return the median value from the three passed arguments.
1368:Generated_Source\PSoC4/key_touch_Filter.c **** *
1369:Generated_Source\PSoC4/key_touch_Filter.c **** * \param    x1 The first value to be compared.
1370:Generated_Source\PSoC4/key_touch_Filter.c **** * \param    x2 The second value to be compared.
1371:Generated_Source\PSoC4/key_touch_Filter.c **** * \param    x3 The third value to be compared.
1372:Generated_Source\PSoC4/key_touch_Filter.c **** *
1373:Generated_Source\PSoC4/key_touch_Filter.c **** * \return   Returns the median value of input arguments.
1374:Generated_Source\PSoC4/key_touch_Filter.c **** *
1375:Generated_Source\PSoC4/key_touch_Filter.c **** *******************************************************************************/
1376:Generated_Source\PSoC4/key_touch_Filter.c **** uint32 key_touch_FtMedian(uint32 x1, uint32 x2, uint32 x3)
1377:Generated_Source\PSoC4/key_touch_Filter.c **** {
1378:Generated_Source\PSoC4/key_touch_Filter.c ****     uint32 tmp;
1379:Generated_Source\PSoC4/key_touch_Filter.c **** 
1380:Generated_Source\PSoC4/key_touch_Filter.c ****     if (x1 > x2)
1381:Generated_Source\PSoC4/key_touch_Filter.c ****     {
1382:Generated_Source\PSoC4/key_touch_Filter.c ****         tmp = x2;
1383:Generated_Source\PSoC4/key_touch_Filter.c ****         x2 = x1;
1384:Generated_Source\PSoC4/key_touch_Filter.c ****         x1 = tmp;
1385:Generated_Source\PSoC4/key_touch_Filter.c ****     }
1386:Generated_Source\PSoC4/key_touch_Filter.c **** 
1387:Generated_Source\PSoC4/key_touch_Filter.c ****     if (x2 > x3)
1388:Generated_Source\PSoC4/key_touch_Filter.c ****     {
1389:Generated_Source\PSoC4/key_touch_Filter.c ****         x2 = x3;
1390:Generated_Source\PSoC4/key_touch_Filter.c ****     }
1391:Generated_Source\PSoC4/key_touch_Filter.c **** 
1392:Generated_Source\PSoC4/key_touch_Filter.c ****     return ((x1 > x2) ? x1 : x2);
1393:Generated_Source\PSoC4/key_touch_Filter.c **** }
1394:Generated_Source\PSoC4/key_touch_Filter.c **** #endif /*key_touch_POS_MEDIAN_FILTER_EN || key_touch_REGULAR_RC_MEDIAN_FILTER_EN || key_touch_PROX_
1395:Generated_Source\PSoC4/key_touch_Filter.c **** 
1396:Generated_Source\PSoC4/key_touch_Filter.c **** 
1397:Generated_Source\PSoC4/key_touch_Filter.c **** /*******************************************************************************
1398:Generated_Source\PSoC4/key_touch_Filter.c **** * Function Name: key_touch_FtIIR1stOrder
1399:Generated_Source\PSoC4/key_touch_Filter.c **** ****************************************************************************//**
ARM GAS  C:\Users\Administrator\AppData\Local\Temp\cc8knBFd.s 			page 32


1400:Generated_Source\PSoC4/key_touch_Filter.c **** *
1401:Generated_Source\PSoC4/key_touch_Filter.c **** * \brief    Return the filtered data by the IIR 1-st order algorithm
1402:Generated_Source\PSoC4/key_touch_Filter.c **** *
1403:Generated_Source\PSoC4/key_touch_Filter.c **** * \details  Return the filtered data by the IIR 1-st order algorithm
1404:Generated_Source\PSoC4/key_touch_Filter.c **** *
1405:Generated_Source\PSoC4/key_touch_Filter.c **** * \param    input      The data to be filtered.
1406:Generated_Source\PSoC4/key_touch_Filter.c **** * \param    prevOutput The previous filtered data.
1407:Generated_Source\PSoC4/key_touch_Filter.c **** * \param    n          The IIR filter coefficient (n/256).
1408:Generated_Source\PSoC4/key_touch_Filter.c **** * \param    shift      The parameter is used to shift input data to have free LSB 
1409:Generated_Source\PSoC4/key_touch_Filter.c **** *                       bits for a fraction storage of the filter output calculation.
1410:Generated_Source\PSoC4/key_touch_Filter.c **** *
1411:Generated_Source\PSoC4/key_touch_Filter.c **** * \return   Returns the filtered data.
1412:Generated_Source\PSoC4/key_touch_Filter.c **** *
1413:Generated_Source\PSoC4/key_touch_Filter.c **** *******************************************************************************/
1414:Generated_Source\PSoC4/key_touch_Filter.c **** uint32 key_touch_FtIIR1stOrder(uint32 input, uint32 prevOutput, uint32 n, uint32 shift)
1415:Generated_Source\PSoC4/key_touch_Filter.c **** {   
 340              		.loc 1 1415 0
 341              		.cfi_startproc
 342              	.LVL49:
1416:Generated_Source\PSoC4/key_touch_Filter.c ****     uint32 output;
1417:Generated_Source\PSoC4/key_touch_Filter.c ****    
1418:Generated_Source\PSoC4/key_touch_Filter.c ****     /*
1419:Generated_Source\PSoC4/key_touch_Filter.c ****     * n - IIR filter coefficient (n/256)
1420:Generated_Source\PSoC4/key_touch_Filter.c ****     * shift - Used to shift input data to have free LSB bits
1421:Generated_Source\PSoC4/key_touch_Filter.c ****     * for fraction storage of filter output calculation
1422:Generated_Source\PSoC4/key_touch_Filter.c ****     */
1423:Generated_Source\PSoC4/key_touch_Filter.c ****     output = ((n * (input << shift)) + ((key_touch_IIR_COEFFICIENT_K - n) * prevOutput)) >> 8u;
 343              		.loc 1 1423 0
 344 0000 9840     		lsl	r0, r0, r3
 345              	.LVL50:
 346 0002 031C     		mov	r3, r0
 347              	.LVL51:
 348 0004 5343     		mul	r3, r2
 349 0006 8020     		mov	r0, #128
 350 0008 4000     		lsl	r0, r0, #1
 351 000a 801A     		sub	r0, r0, r2
 352 000c 4143     		mul	r1, r0
 353              	.LVL52:
 354 000e 5818     		add	r0, r3, r1
 355 0010 000A     		lsr	r0, r0, #8
 356              	.LVL53:
1424:Generated_Source\PSoC4/key_touch_Filter.c ****     
1425:Generated_Source\PSoC4/key_touch_Filter.c ****     /* Shift operation of output will be done in upper level API if needed */
1426:Generated_Source\PSoC4/key_touch_Filter.c ****     return output;
1427:Generated_Source\PSoC4/key_touch_Filter.c **** }
 357              		.loc 1 1427 0
 358              		@ sp needed
 359 0012 7047     		bx	lr
 360              		.cfi_endproc
 361              	.LFE11:
 362              		.size	key_touch_FtIIR1stOrder, .-key_touch_FtIIR1stOrder
 363              		.section	.text.key_touch_FtUpdateBaseline,"ax",%progbits
 364              		.align	2
 365              		.global	key_touch_FtUpdateBaseline
 366              		.code	16
 367              		.thumb_func
 368              		.type	key_touch_FtUpdateBaseline, %function
ARM GAS  C:\Users\Administrator\AppData\Local\Temp\cc8knBFd.s 			page 33


 369              	key_touch_FtUpdateBaseline:
 370              	.LFB5:
 325:Generated_Source\PSoC4/key_touch_Filter.c ****     uint32 sign;
 371              		.loc 1 325 0
 372              		.cfi_startproc
 373              	.LVL54:
 374 0000 F0B5     		push	{r4, r5, r6, r7, lr}
 375              		.cfi_def_cfa_offset 20
 376              		.cfi_offset 4, -20
 377              		.cfi_offset 5, -16
 378              		.cfi_offset 6, -12
 379              		.cfi_offset 7, -8
 380              		.cfi_offset 14, -4
 381 0002 83B0     		sub	sp, sp, #12
 382              		.cfi_def_cfa_offset 32
 383 0004 071C     		mov	r7, r0
 384 0006 0E1C     		mov	r6, r1
 385 0008 0192     		str	r2, [sp, #4]
 386              	.LVL55:
 336:Generated_Source\PSoC4/key_touch_Filter.c ****     {               
 387              		.loc 1 336 0
 388 000a 0123     		mov	r3, #1
 389 000c 3BE0     		b	.L28
 390              	.LVL56:
 391              	.L35:
 348:Generated_Source\PSoC4/key_touch_Filter.c ****         {
 392              		.loc 1 348 0
 393 000e 6300     		lsl	r3, r4, #1
 394 0010 985B     		ldrh	r0, [r3, r6]
 395 0012 F318     		add	r3, r6, r3
 396 0014 5988     		ldrh	r1, [r3, #2]
 397 0016 8842     		cmp	r0, r1
 398 0018 05D3     		bcc	.L29
 350:Generated_Source\PSoC4/key_touch_Filter.c ****             sign = 1u;
 399              		.loc 1 350 0
 400 001a 431A     		sub	r3, r0, r1
 401              	.LVL57:
 352:Generated_Source\PSoC4/key_touch_Filter.c ****         }
 402              		.loc 1 352 0
 403 001c 3219     		add	r2, r6, r4
 404 001e 0025     		mov	r5, #0
 405 0020 1572     		strb	r5, [r2, #8]
 351:Generated_Source\PSoC4/key_touch_Filter.c ****             ptrSensor->negBslnRstCnt[channel] = 0u;
 406              		.loc 1 351 0
 407 0022 0122     		mov	r2, #1
 408 0024 01E0     		b	.L30
 409              	.LVL58:
 410              	.L29:
 356:Generated_Source\PSoC4/key_touch_Filter.c ****             sign = 0u;
 411              		.loc 1 356 0
 412 0026 0B1A     		sub	r3, r1, r0
 413              	.LVL59:
 357:Generated_Source\PSoC4/key_touch_Filter.c ****         }     
 414              		.loc 1 357 0
 415 0028 0022     		mov	r2, #0
 416              	.LVL60:
 417              	.L30:
ARM GAS  C:\Users\Administrator\AppData\Local\Temp\cc8knBFd.s 			page 34


 361:Generated_Source\PSoC4/key_touch_Filter.c ****         {
 418              		.loc 1 361 0
 419 002a 002A     		cmp	r2, #0
 420 002c 11D1     		bne	.L31
 361:Generated_Source\PSoC4/key_touch_Filter.c ****         {
 421              		.loc 1 361 0 is_stmt 0 discriminator 1
 422 002e 7D79     		ldrb	r5, [r7, #5]
 423 0030 9D42     		cmp	r5, r3
 424 0032 0ED2     		bcs	.L31
 363:Generated_Source\PSoC4/key_touch_Filter.c ****             {                
 425              		.loc 1 363 0 is_stmt 1
 426 0034 3319     		add	r3, r6, r4
 427              	.LVL61:
 428 0036 1B7A     		ldrb	r3, [r3, #8]
 429 0038 3A7A     		ldrb	r2, [r7, #8]
 430              	.LVL62:
 431 003a 9342     		cmp	r3, r2
 432 003c 05D3     		bcc	.L32
 365:Generated_Source\PSoC4/key_touch_Filter.c ****             }
 433              		.loc 1 365 0
 434 003e 301C     		mov	r0, r6
 435 0040 0199     		ldr	r1, [sp, #4]
 436 0042 221C     		mov	r2, r4
 437 0044 FFF7FEFF 		bl	key_touch_FtInitializeBaselineChannel
 438              	.LVL63:
 439 0048 1CE0     		b	.L33
 440              	.L32:
 369:Generated_Source\PSoC4/key_touch_Filter.c ****             }
 441              		.loc 1 369 0
 442 004a 3219     		add	r2, r6, r4
 443 004c 0133     		add	r3, r3, #1
 444 004e 1372     		strb	r3, [r2, #8]
 445 0050 18E0     		b	.L33
 446              	.LVL64:
 447              	.L31:
 376:Generated_Source\PSoC4/key_touch_Filter.c ****                     ((difference < (uint32) ptrWidgetRam->nNoiseTh) && (sign == 0u)))
 448              		.loc 1 376 0
 449 0052 3D79     		ldrb	r5, [r7, #4]
 450 0054 9D42     		cmp	r5, r3
 451 0056 04D2     		bcs	.L34
 377:Generated_Source\PSoC4/key_touch_Filter.c ****                 {
 452              		.loc 1 377 0 discriminator 1
 453 0058 7D79     		ldrb	r5, [r7, #5]
 376:Generated_Source\PSoC4/key_touch_Filter.c ****                     ((difference < (uint32) ptrWidgetRam->nNoiseTh) && (sign == 0u)))
 454              		.loc 1 376 0 discriminator 1
 455 005a 9D42     		cmp	r5, r3
 456 005c 12D9     		bls	.L33
 377:Generated_Source\PSoC4/key_touch_Filter.c ****                 {
 457              		.loc 1 377 0
 458 005e 002A     		cmp	r2, #0
 459 0060 10D1     		bne	.L33
 460              	.L34:
 383:Generated_Source\PSoC4/key_touch_Filter.c ****                 {
 461              		.loc 1 383 0
 462 0062 6B46     		mov	r3, sp
 463              	.LVL65:
 464 0064 1B79     		ldrb	r3, [r3, #4]
ARM GAS  C:\Users\Administrator\AppData\Local\Temp\cc8knBFd.s 			page 35


 465 0066 062B     		cmp	r3, #6
 466 0068 0CD0     		beq	.L33
 387:Generated_Source\PSoC4/key_touch_Filter.c ****                             history |= ptrSensor->bslnExt[channel];
 467              		.loc 1 387 0
 468 006a 0902     		lsl	r1, r1, #8
 469              	.LVL66:
 388:Generated_Source\PSoC4/key_touch_Filter.c ****                         #else
 470              		.loc 1 388 0
 471 006c 3519     		add	r5, r6, r4
 472 006e 2B79     		ldrb	r3, [r5, #4]
 473 0070 1943     		orr	r1, r3
 474              	.LVL67:
 393:Generated_Source\PSoC4/key_touch_Filter.c ****                                         (uint32)ptrSensor->raw[channel],
 475              		.loc 1 393 0
 476 0072 0122     		mov	r2, #1
 477              	.LVL68:
 478 0074 0823     		mov	r3, #8
 479 0076 FFF7FEFF 		bl	key_touch_FtIIR1stOrder
 480              	.LVL69:
 400:Generated_Source\PSoC4/key_touch_Filter.c ****                             ptrSensor->bslnExt[channel] = LO8(history);
 481              		.loc 1 400 0
 482 007a 020A     		lsr	r2, r0, #8
 483 007c 6300     		lsl	r3, r4, #1
 484 007e F318     		add	r3, r6, r3
 485 0080 5A80     		strh	r2, [r3, #2]
 401:Generated_Source\PSoC4/key_touch_Filter.c ****                         #else
 486              		.loc 1 401 0
 487 0082 2871     		strb	r0, [r5, #4]
 488              	.LVL70:
 489              	.L33:
 490 0084 231C     		mov	r3, r4
 491              	.LVL71:
 492              	.L28:
 336:Generated_Source\PSoC4/key_touch_Filter.c ****     {               
 493              		.loc 1 336 0 discriminator 1
 494 0086 5C1E     		sub	r4, r3, #1
 495              	.LVL72:
 496 0088 002B     		cmp	r3, #0
 497 008a C0D1     		bne	.L35
 449:Generated_Source\PSoC4/key_touch_Filter.c **** 
 498              		.loc 1 449 0
 499 008c 0020     		mov	r0, #0
 500 008e 03B0     		add	sp, sp, #12
 501              		@ sp needed
 502              	.LVL73:
 503              	.LVL74:
 504              	.LVL75:
 505 0090 F0BD     		pop	{r4, r5, r6, r7, pc}
 506              		.cfi_endproc
 507              	.LFE5:
 508              		.size	key_touch_FtUpdateBaseline, .-key_touch_FtUpdateBaseline
 509 0092 C046     		.section	.text.key_touch_UpdateSensorBaseline,"ax",%progbits
 510              		.align	2
 511              		.global	key_touch_UpdateSensorBaseline
 512              		.code	16
 513              		.thumb_func
 514              		.type	key_touch_UpdateSensorBaseline, %function
ARM GAS  C:\Users\Administrator\AppData\Local\Temp\cc8knBFd.s 			page 36


 515              	key_touch_UpdateSensorBaseline:
 516              	.LFB4:
 267:Generated_Source\PSoC4/key_touch_Filter.c ****     uint32 result = CYRET_SUCCESS;
 517              		.loc 1 267 0
 518              		.cfi_startproc
 519              	.LVL76:
 520 0000 70B5     		push	{r4, r5, r6, lr}
 521              		.cfi_def_cfa_offset 16
 522              		.cfi_offset 4, -16
 523              		.cfi_offset 5, -12
 524              		.cfi_offset 6, -8
 525              		.cfi_offset 14, -4
 526              	.LVL77:
 272:Generated_Source\PSoC4/key_touch_Filter.c **** 
 527              		.loc 1 272 0
 528 0002 094D     		ldr	r5, .L37
 529 0004 C200     		lsl	r2, r0, #3
 530 0006 141A     		sub	r4, r2, r0
 531 0008 A400     		lsl	r4, r4, #2
 532 000a 2C19     		add	r4, r5, r4
 533 000c 6668     		ldr	r6, [r4, #4]
 534              	.LVL78:
 275:Generated_Source\PSoC4/key_touch_Filter.c ****     ptrSensor = &ptrSensor[sensorId];
 535              		.loc 1 275 0
 536 000e A368     		ldr	r3, [r4, #8]
 537              	.LVL79:
 276:Generated_Source\PSoC4/key_touch_Filter.c ****     result = key_touch_FtUpdateBaseline(ptrWidgetRam, ptrSensor, (uint32)ptrWidget->wdgtType);
 538              		.loc 1 276 0
 539 0010 8C00     		lsl	r4, r1, #2
 540 0012 6118     		add	r1, r4, r1
 541              	.LVL80:
 542 0014 4900     		lsl	r1, r1, #1
 543 0016 5918     		add	r1, r3, r1
 544              	.LVL81:
 277:Generated_Source\PSoC4/key_touch_Filter.c ****     
 545              		.loc 1 277 0
 546 0018 131A     		sub	r3, r2, r0
 547 001a 9B00     		lsl	r3, r3, #2
 548 001c EB18     		add	r3, r5, r3
 549 001e 1A7E     		ldrb	r2, [r3, #24]
 550 0020 301C     		mov	r0, r6
 551              	.LVL82:
 552 0022 FFF7FEFF 		bl	key_touch_FtUpdateBaseline
 553              	.LVL83:
 288:Generated_Source\PSoC4/key_touch_Filter.c **** 
 554              		.loc 1 288 0
 555              		@ sp needed
 556              	.LVL84:
 557              	.LVL85:
 558              	.LVL86:
 559 0026 70BD     		pop	{r4, r5, r6, pc}
 560              	.L38:
 561              		.align	2
 562              	.L37:
 563 0028 00000000 		.word	key_touch_dsFlash
 564              		.cfi_endproc
 565              	.LFE4:
ARM GAS  C:\Users\Administrator\AppData\Local\Temp\cc8knBFd.s 			page 37


 566              		.size	key_touch_UpdateSensorBaseline, .-key_touch_UpdateSensorBaseline
 567              		.section	.text.key_touch_UpdateWidgetBaseline,"ax",%progbits
 568              		.align	2
 569              		.global	key_touch_UpdateWidgetBaseline
 570              		.code	16
 571              		.thumb_func
 572              		.type	key_touch_UpdateWidgetBaseline, %function
 573              	key_touch_UpdateWidgetBaseline:
 574              	.LFB3:
 210:Generated_Source\PSoC4/key_touch_Filter.c ****     uint32 sensorId;       
 575              		.loc 1 210 0
 576              		.cfi_startproc
 577              	.LVL87:
 578 0000 70B5     		push	{r4, r5, r6, lr}
 579              		.cfi_def_cfa_offset 16
 580              		.cfi_offset 4, -16
 581              		.cfi_offset 5, -12
 582              		.cfi_offset 6, -8
 583              		.cfi_offset 14, -4
 584 0002 061C     		mov	r6, r0
 585              	.LVL88:
 218:Generated_Source\PSoC4/key_touch_Filter.c ****     
 586              		.loc 1 218 0
 587 0004 C300     		lsl	r3, r0, #3
 588 0006 1B1A     		sub	r3, r3, r0
 589 0008 9B00     		lsl	r3, r3, #2
 590 000a 084A     		ldr	r2, .L42
 591 000c D318     		add	r3, r2, r3
 592 000e DB8A     		ldrh	r3, [r3, #22]
 593              	.LVL89:
 215:Generated_Source\PSoC4/key_touch_Filter.c ****     
 594              		.loc 1 215 0
 595 0010 0025     		mov	r5, #0
 220:Generated_Source\PSoC4/key_touch_Filter.c ****     {
 596              		.loc 1 220 0
 597 0012 05E0     		b	.L40
 598              	.LVL90:
 599              	.L41:
 222:Generated_Source\PSoC4/key_touch_Filter.c ****     }
 600              		.loc 1 222 0
 601 0014 301C     		mov	r0, r6
 602 0016 211C     		mov	r1, r4
 603 0018 FFF7FEFF 		bl	key_touch_UpdateSensorBaseline
 604              	.LVL91:
 605 001c 0543     		orr	r5, r0
 606              	.LVL92:
 220:Generated_Source\PSoC4/key_touch_Filter.c ****     {
 607              		.loc 1 220 0
 608 001e 231C     		mov	r3, r4
 609              	.LVL93:
 610              	.L40:
 220:Generated_Source\PSoC4/key_touch_Filter.c ****     {
 611              		.loc 1 220 0 is_stmt 0 discriminator 1
 612 0020 5C1E     		sub	r4, r3, #1
 613              	.LVL94:
 614 0022 002B     		cmp	r3, #0
 615 0024 F6D1     		bne	.L41
ARM GAS  C:\Users\Administrator\AppData\Local\Temp\cc8knBFd.s 			page 38


 226:Generated_Source\PSoC4/key_touch_Filter.c **** 
 616              		.loc 1 226 0 is_stmt 1
 617 0026 281C     		mov	r0, r5
 618              		@ sp needed
 619              	.LVL95:
 620              	.LVL96:
 621              	.LVL97:
 622 0028 70BD     		pop	{r4, r5, r6, pc}
 623              	.L43:
 624 002a C046     		.align	2
 625              	.L42:
 626 002c 00000000 		.word	key_touch_dsFlash
 627              		.cfi_endproc
 628              	.LFE3:
 629              		.size	key_touch_UpdateWidgetBaseline, .-key_touch_UpdateWidgetBaseline
 630              		.section	.text.key_touch_UpdateAllBaselines,"ax",%progbits
 631              		.align	2
 632              		.global	key_touch_UpdateAllBaselines
 633              		.code	16
 634              		.thumb_func
 635              		.type	key_touch_UpdateAllBaselines, %function
 636              	key_touch_UpdateAllBaselines:
 637              	.LFB2:
 165:Generated_Source\PSoC4/key_touch_Filter.c ****     uint32 widgetId; 
 638              		.loc 1 165 0
 639              		.cfi_startproc
 640 0000 38B5     		push	{r3, r4, r5, lr}
 641              		.cfi_def_cfa_offset 16
 642              		.cfi_offset 3, -16
 643              		.cfi_offset 4, -12
 644              		.cfi_offset 5, -8
 645              		.cfi_offset 14, -4
 646              	.LVL98:
 167:Generated_Source\PSoC4/key_touch_Filter.c ****     
 647              		.loc 1 167 0
 648 0002 0025     		mov	r5, #0
 169:Generated_Source\PSoC4/key_touch_Filter.c ****     {            
 649              		.loc 1 169 0
 650 0004 0C23     		mov	r3, #12
 651 0006 04E0     		b	.L45
 652              	.LVL99:
 653              	.L46:
 171:Generated_Source\PSoC4/key_touch_Filter.c ****     }      
 654              		.loc 1 171 0
 655 0008 201C     		mov	r0, r4
 656 000a FFF7FEFF 		bl	key_touch_UpdateWidgetBaseline
 657              	.LVL100:
 658 000e 0543     		orr	r5, r0
 659              	.LVL101:
 169:Generated_Source\PSoC4/key_touch_Filter.c ****     {            
 660              		.loc 1 169 0
 661 0010 231C     		mov	r3, r4
 662              	.LVL102:
 663              	.L45:
 169:Generated_Source\PSoC4/key_touch_Filter.c ****     {            
 664              		.loc 1 169 0 is_stmt 0 discriminator 1
 665 0012 5C1E     		sub	r4, r3, #1
ARM GAS  C:\Users\Administrator\AppData\Local\Temp\cc8knBFd.s 			page 39


 666              	.LVL103:
 667 0014 002B     		cmp	r3, #0
 668 0016 F7D1     		bne	.L46
 175:Generated_Source\PSoC4/key_touch_Filter.c ****   
 669              		.loc 1 175 0 is_stmt 1
 670 0018 281C     		mov	r0, r5
 671              		@ sp needed
 672              	.LVL104:
 673              	.LVL105:
 674 001a 38BD     		pop	{r3, r4, r5, pc}
 675              		.cfi_endproc
 676              	.LFE2:
 677              		.size	key_touch_UpdateAllBaselines, .-key_touch_UpdateAllBaselines
 678              		.text
 679              	.Letext0:
 680              		.file 2 "Generated_Source\\PSoC4\\cytypes.h"
 681              		.file 3 "Generated_Source\\PSoC4\\key_touch_Configuration.h"
 682              		.file 4 "Generated_Source\\PSoC4\\key_touch_Structure.h"