ARM GAS  C:\Users\Administrator\AppData\Local\Temp\ccWuKATu.s 			page 1


   1              		.cpu cortex-m0plus
   2              		.fpu softvfp
   3              		.eabi_attribute 20, 1
   4              		.eabi_attribute 21, 1
   5              		.eabi_attribute 23, 3
   6              		.eabi_attribute 24, 1
   7              		.eabi_attribute 25, 1
   8              		.eabi_attribute 26, 1
   9              		.eabi_attribute 30, 1
  10              		.eabi_attribute 34, 0
  11              		.eabi_attribute 18, 4
  12              		.code	16
  13              		.file	"key_touch_Processing.c"
  14              		.text
  15              	.Ltext0:
  16              		.cfi_sections	.debug_frame
  17              		.section	.text.key_touch_DpInitialize,"ax",%progbits
  18              		.align	2
  19              		.global	key_touch_DpInitialize
  20              		.code	16
  21              		.thumb_func
  22              		.type	key_touch_DpInitialize, %function
  23              	key_touch_DpInitialize:
  24              	.LFB1:
  25              		.file 1 "Generated_Source\\PSoC4\\key_touch_Processing.c"
   1:Generated_Source\PSoC4/key_touch_Processing.c **** /***************************************************************************//**
   2:Generated_Source\PSoC4/key_touch_Processing.c **** * \file key_touch_Processing.c
   3:Generated_Source\PSoC4/key_touch_Processing.c **** * \version 3.10
   4:Generated_Source\PSoC4/key_touch_Processing.c **** *
   5:Generated_Source\PSoC4/key_touch_Processing.c **** * \brief
   6:Generated_Source\PSoC4/key_touch_Processing.c **** * This file provides the source code for the Data Processing module APIs
   7:Generated_Source\PSoC4/key_touch_Processing.c **** * of the component. The Data Processing module is responsible for the
   8:Generated_Source\PSoC4/key_touch_Processing.c **** * low level raw counts processing provided by the sensing module, maintaining
   9:Generated_Source\PSoC4/key_touch_Processing.c **** * baseline and difference values and performing high-level widget processing
  10:Generated_Source\PSoC4/key_touch_Processing.c **** * like updating button status or calculating slider position.
  11:Generated_Source\PSoC4/key_touch_Processing.c **** *
  12:Generated_Source\PSoC4/key_touch_Processing.c **** * \see CapSense P4 v3.10 Datasheet
  13:Generated_Source\PSoC4/key_touch_Processing.c **** *
  14:Generated_Source\PSoC4/key_touch_Processing.c **** *//*****************************************************************************
  15:Generated_Source\PSoC4/key_touch_Processing.c **** * Copyright (2016), Cypress Semiconductor Corporation.
  16:Generated_Source\PSoC4/key_touch_Processing.c **** ********************************************************************************
  17:Generated_Source\PSoC4/key_touch_Processing.c **** * This software is owned by Cypress Semiconductor Corporation (Cypress) and is
  18:Generated_Source\PSoC4/key_touch_Processing.c **** * protected by and subject to worldwide patent protection (United States and
  19:Generated_Source\PSoC4/key_touch_Processing.c **** * foreign), United States copyright laws and international treaty provisions.
  20:Generated_Source\PSoC4/key_touch_Processing.c **** * Cypress hereby grants to licensee a personal, non-exclusive, non-transferable
  21:Generated_Source\PSoC4/key_touch_Processing.c **** * license to copy, use, modify, create derivative works of, and compile the
  22:Generated_Source\PSoC4/key_touch_Processing.c **** * Cypress Source Code and derivative works for the sole purpose of creating
  23:Generated_Source\PSoC4/key_touch_Processing.c **** * custom software in support of licensee product to be used only in conjunction
  24:Generated_Source\PSoC4/key_touch_Processing.c **** * with a Cypress integrated circuit as specified in the applicable agreement.
  25:Generated_Source\PSoC4/key_touch_Processing.c **** * Any reproduction, modification, translation, compilation, or representation of
  26:Generated_Source\PSoC4/key_touch_Processing.c **** * this software except as specified above is prohibited without the express
  27:Generated_Source\PSoC4/key_touch_Processing.c **** * written permission of Cypress.
  28:Generated_Source\PSoC4/key_touch_Processing.c **** *
  29:Generated_Source\PSoC4/key_touch_Processing.c **** * Disclaimer: CYPRESS MAKES NO WARRANTY OF ANY KIND, EXPRESS OR IMPLIED, WITH
  30:Generated_Source\PSoC4/key_touch_Processing.c **** * REGARD TO THIS MATERIAL, INCLUDING, BUT NOT LIMITED TO, THE IMPLIED
  31:Generated_Source\PSoC4/key_touch_Processing.c **** * WARRANTIES OF MERCHANTABILITY AND FITNESS FOR A PARTICULAR PURPOSE.
  32:Generated_Source\PSoC4/key_touch_Processing.c **** * Cypress reserves the right to make changes without further notice to the
ARM GAS  C:\Users\Administrator\AppData\Local\Temp\ccWuKATu.s 			page 2


  33:Generated_Source\PSoC4/key_touch_Processing.c **** * materials described herein. Cypress does not assume any liability arising out
  34:Generated_Source\PSoC4/key_touch_Processing.c **** * of the application or use of any product or circuit described herein. Cypress
  35:Generated_Source\PSoC4/key_touch_Processing.c **** * does not authorize its products for use as critical components in life-support
  36:Generated_Source\PSoC4/key_touch_Processing.c **** * systems where a malfunction or failure may reasonably be expected to result in
  37:Generated_Source\PSoC4/key_touch_Processing.c **** * significant injury to the user. The inclusion of Cypress' product in a life-
  38:Generated_Source\PSoC4/key_touch_Processing.c **** * support systems application implies that the manufacturer assumes all risk of
  39:Generated_Source\PSoC4/key_touch_Processing.c **** * such use and in doing so indemnifies Cypress against all charges. Use may be
  40:Generated_Source\PSoC4/key_touch_Processing.c **** * limited by and subject to the applicable Cypress software license agreement.
  41:Generated_Source\PSoC4/key_touch_Processing.c **** *******************************************************************************/
  42:Generated_Source\PSoC4/key_touch_Processing.c **** 
  43:Generated_Source\PSoC4/key_touch_Processing.c **** #include "cytypes.h"
  44:Generated_Source\PSoC4/key_touch_Processing.c **** #include "key_touch_Configuration.h"
  45:Generated_Source\PSoC4/key_touch_Processing.c **** #include "key_touch_Processing.h"
  46:Generated_Source\PSoC4/key_touch_Processing.c **** #include "key_touch_Filter.h"
  47:Generated_Source\PSoC4/key_touch_Processing.c **** 
  48:Generated_Source\PSoC4/key_touch_Processing.c **** #if (0u != key_touch_CENTROID_EN)
  49:Generated_Source\PSoC4/key_touch_Processing.c ****     #include "key_touch_Centroid_LL.h"
  50:Generated_Source\PSoC4/key_touch_Processing.c **** #endif /* (0 != key_touch_CENTROID_EN) */
  51:Generated_Source\PSoC4/key_touch_Processing.c **** 
  52:Generated_Source\PSoC4/key_touch_Processing.c **** #if (0 != (key_touch_CSD_AUTOTUNE & key_touch_CSD_SS_TH_EN))
  53:Generated_Source\PSoC4/key_touch_Processing.c ****     #include "key_touch_SmartSense_LL.h"
  54:Generated_Source\PSoC4/key_touch_Processing.c **** #endif /* (0 != (key_touch_CSD_AUTOTUNE & key_touch_CSD_SS_TH_EN)) */
  55:Generated_Source\PSoC4/key_touch_Processing.c **** 
  56:Generated_Source\PSoC4/key_touch_Processing.c **** #if (key_touch_ENABLE == key_touch_SELF_TEST_EN)
  57:Generated_Source\PSoC4/key_touch_Processing.c ****     #include "key_touch_SelfTest.h"
  58:Generated_Source\PSoC4/key_touch_Processing.c **** #endif
  59:Generated_Source\PSoC4/key_touch_Processing.c **** 
  60:Generated_Source\PSoC4/key_touch_Processing.c **** #include "CyLib.h"
  61:Generated_Source\PSoC4/key_touch_Processing.c **** 
  62:Generated_Source\PSoC4/key_touch_Processing.c **** /**************************************************************************************************
  63:Generated_Source\PSoC4/key_touch_Processing.c **** * Local definition
  64:Generated_Source\PSoC4/key_touch_Processing.c **** ***************************************************************************************************
  65:Generated_Source\PSoC4/key_touch_Processing.c **** 
  66:Generated_Source\PSoC4/key_touch_Processing.c **** /* This definition resolves to TRUE if any of the FW filters for raw counts are enabled */
  67:Generated_Source\PSoC4/key_touch_Processing.c **** #define DP_FW_FILTER_EN                                 \
  68:Generated_Source\PSoC4/key_touch_Processing.c ****             (key_touch_REGULAR_RC_FILTER_EN |  \
  69:Generated_Source\PSoC4/key_touch_Processing.c ****              key_touch_PROX_RC_FILTER_EN)
  70:Generated_Source\PSoC4/key_touch_Processing.c **** 
  71:Generated_Source\PSoC4/key_touch_Processing.c **** /* This definition resolves to TRUE if any of the position filters are enabled */
  72:Generated_Source\PSoC4/key_touch_Processing.c **** #define DP_POSITION_FILTER_EN                           \
  73:Generated_Source\PSoC4/key_touch_Processing.c ****             (key_touch_POS_IIR_FILTER_EN      || \
  74:Generated_Source\PSoC4/key_touch_Processing.c ****              key_touch_POS_MEDIAN_FILTER_EN   || \
  75:Generated_Source\PSoC4/key_touch_Processing.c ****              key_touch_POS_AVERAGE_FILTER_EN  || \
  76:Generated_Source\PSoC4/key_touch_Processing.c ****              key_touch_POS_JITTER_FILTER_EN)
  77:Generated_Source\PSoC4/key_touch_Processing.c **** 
  78:Generated_Source\PSoC4/key_touch_Processing.c **** /* This definition resolves to TRUE if any of position filters are enabled and component has slider
  79:Generated_Source\PSoC4/key_touch_Processing.c ****  * The processing function of the CSD touchpad reuses the filtering function of the slider widget. 
  80:Generated_Source\PSoC4/key_touch_Processing.c **** #define DP_LINEAR_SLIDER_FILTER_EN                                             \
  81:Generated_Source\PSoC4/key_touch_Processing.c ****            (DP_POSITION_FILTER_EN && (key_touch_TOTAL_LINEAR_SLIDERS || \
  82:Generated_Source\PSoC4/key_touch_Processing.c ****                                       key_touch_CSD_TOUCHPAD_WIDGET_EN))
  83:Generated_Source\PSoC4/key_touch_Processing.c **** 
  84:Generated_Source\PSoC4/key_touch_Processing.c **** /* UINT32 constant with all odd bits set. It is used by the processing function of the Proximity wi
  85:Generated_Source\PSoC4/key_touch_Processing.c **** *  determine type of the status bit: odd bits report proximity status; even bits report touch statu
  86:Generated_Source\PSoC4/key_touch_Processing.c ****  */
  87:Generated_Source\PSoC4/key_touch_Processing.c **** #define UINT32_ODD_BITS_CONST       (0x55555555u)
  88:Generated_Source\PSoC4/key_touch_Processing.c **** 
  89:Generated_Source\PSoC4/key_touch_Processing.c **** /* Default value for the Off Debounce counter when the Off Debounce is disabled */
ARM GAS  C:\Users\Administrator\AppData\Local\Temp\ccWuKATu.s 			page 3


  90:Generated_Source\PSoC4/key_touch_Processing.c **** #define DEFAULT_OFF_DEBOUNCE_VALUE  (1u)
  91:Generated_Source\PSoC4/key_touch_Processing.c **** #define PERCENTAGE_100              (0x00000064Lu)
  92:Generated_Source\PSoC4/key_touch_Processing.c **** #define TEMP_BUFFER_MSB_SHIFT       (16)
  93:Generated_Source\PSoC4/key_touch_Processing.c **** 
  94:Generated_Source\PSoC4/key_touch_Processing.c **** /**************************************************************************************************
  95:Generated_Source\PSoC4/key_touch_Processing.c **** * Local variables
  96:Generated_Source\PSoC4/key_touch_Processing.c **** ***************************************************************************************************
  97:Generated_Source\PSoC4/key_touch_Processing.c **** #if (0u != key_touch_CSX_MULTIPHASE_TX_EN)
  98:Generated_Source\PSoC4/key_touch_Processing.c ****     static uint16 deconvRowData[key_touch_CSX_MAX_TX_PHASE_LENGTH];
  99:Generated_Source\PSoC4/key_touch_Processing.c **** #endif
 100:Generated_Source\PSoC4/key_touch_Processing.c **** 
 101:Generated_Source\PSoC4/key_touch_Processing.c **** 
 102:Generated_Source\PSoC4/key_touch_Processing.c **** /**************************************************************************************************
 103:Generated_Source\PSoC4/key_touch_Processing.c **** * Static Function Prototypes
 104:Generated_Source\PSoC4/key_touch_Processing.c **** ***************************************************************************************************
 105:Generated_Source\PSoC4/key_touch_Processing.c **** /**
 106:Generated_Source\PSoC4/key_touch_Processing.c **** * \if SECTION_CAPSENSE_INTERNAL
 107:Generated_Source\PSoC4/key_touch_Processing.c **** * \addtogroup group_capsense_internal
 108:Generated_Source\PSoC4/key_touch_Processing.c **** * \{
 109:Generated_Source\PSoC4/key_touch_Processing.c **** */
 110:Generated_Source\PSoC4/key_touch_Processing.c **** #if (0u != key_touch_TOTAL_LINEAR_SLIDERS)
 111:Generated_Source\PSoC4/key_touch_Processing.c ****     static CY_INLINE void DpUpdateLinSlider(
 112:Generated_Source\PSoC4/key_touch_Processing.c ****                         const uint16 newPos[], uint32 numTouches,
 113:Generated_Source\PSoC4/key_touch_Processing.c ****                         key_touch_FLASH_WD_STRUCT const *ptrFlashWdgt,
 114:Generated_Source\PSoC4/key_touch_Processing.c ****                         key_touch_RAM_WD_SLIDER_STRUCT *ptrRamWdgt);
 115:Generated_Source\PSoC4/key_touch_Processing.c **** #endif /* #if (0u != key_touch_TOTAL_LINEAR_SLIDERS) */
 116:Generated_Source\PSoC4/key_touch_Processing.c **** 
 117:Generated_Source\PSoC4/key_touch_Processing.c **** #if (0u != DP_LINEAR_SLIDER_FILTER_EN)
 118:Generated_Source\PSoC4/key_touch_Processing.c ****     static CY_INLINE void DpFilterLinSlider(
 119:Generated_Source\PSoC4/key_touch_Processing.c ****                         uint16 newPos, uint32 staticConfig, uint16 *ptrCurrPos,
 120:Generated_Source\PSoC4/key_touch_Processing.c ****                         key_touch_SLIDER_POS_HISTORY_STRUCT *ptrHistory);
 121:Generated_Source\PSoC4/key_touch_Processing.c **** #endif /* #if (0u != DP_LINEAR_SLIDER_FILTER_EN) */
 122:Generated_Source\PSoC4/key_touch_Processing.c **** 
 123:Generated_Source\PSoC4/key_touch_Processing.c **** #if (0u != key_touch_TOTAL_RADIAL_SLIDERS)
 124:Generated_Source\PSoC4/key_touch_Processing.c ****     static CY_INLINE void DpUpdateRadSlider(
 125:Generated_Source\PSoC4/key_touch_Processing.c ****                         const uint16 newPos[], uint32 numTouches,
 126:Generated_Source\PSoC4/key_touch_Processing.c ****                         key_touch_FLASH_WD_STRUCT const * ptrFlashWdgt,
 127:Generated_Source\PSoC4/key_touch_Processing.c ****                         key_touch_RAM_WD_SLIDER_STRUCT *ptrRamWdgt);
 128:Generated_Source\PSoC4/key_touch_Processing.c **** #endif /* #if (0u != key_touch_TOTAL_RADIAL_SLIDERS) */
 129:Generated_Source\PSoC4/key_touch_Processing.c **** 
 130:Generated_Source\PSoC4/key_touch_Processing.c **** #if (0u != key_touch_CSD_TOUCHPAD_WIDGET_EN)
 131:Generated_Source\PSoC4/key_touch_Processing.c ****     static CY_INLINE void key_touch_DpInitCsdTouchpad(key_touch_FLASH_WD_STRUCT const * ptrFlashWdg
 132:Generated_Source\PSoC4/key_touch_Processing.c **** #endif /* #if (0u != key_touch_CSD_TOUCHPAD_WIDGET_EN) */
 133:Generated_Source\PSoC4/key_touch_Processing.c **** 
 134:Generated_Source\PSoC4/key_touch_Processing.c **** #if (0u != key_touch_CSX_TOUCHPAD_WIDGET_EN)
 135:Generated_Source\PSoC4/key_touch_Processing.c ****     static CY_INLINE void key_touch_DpInitCsxTouchpad(key_touch_FLASH_WD_STRUCT const * ptrFlashWdg
 136:Generated_Source\PSoC4/key_touch_Processing.c **** #endif /* #if (0u != key_touch_CSX_TOUCHPAD_WIDGET_EN) */
 137:Generated_Source\PSoC4/key_touch_Processing.c **** 
 138:Generated_Source\PSoC4/key_touch_Processing.c **** #if (0u != key_touch_SLIDER_WIDGET_EN)
 139:Generated_Source\PSoC4/key_touch_Processing.c ****     static CY_INLINE void key_touch_DpInitSlider(key_touch_FLASH_WD_STRUCT const * ptrFlashWdgt);
 140:Generated_Source\PSoC4/key_touch_Processing.c **** #endif /* #if (0u != key_touch_SLIDER_WIDGET_EN) */
 141:Generated_Source\PSoC4/key_touch_Processing.c **** 
 142:Generated_Source\PSoC4/key_touch_Processing.c **** #if (0u != key_touch_CSD_MATRIX_WIDGET_EN)
 143:Generated_Source\PSoC4/key_touch_Processing.c ****     static CY_INLINE void key_touch_DpInitCsdMatrix(key_touch_FLASH_WD_STRUCT const * ptrFlashWdgt)
 144:Generated_Source\PSoC4/key_touch_Processing.c **** #endif /* #if (0u != key_touch_CSD_MATRIX_WIDGET_EN) */
 145:Generated_Source\PSoC4/key_touch_Processing.c **** 
 146:Generated_Source\PSoC4/key_touch_Processing.c **** /** \}
ARM GAS  C:\Users\Administrator\AppData\Local\Temp\ccWuKATu.s 			page 4


 147:Generated_Source\PSoC4/key_touch_Processing.c **** * \endif */
 148:Generated_Source\PSoC4/key_touch_Processing.c **** 
 149:Generated_Source\PSoC4/key_touch_Processing.c **** #if (0u != key_touch_CSD_TOUCHPAD_WIDGET_EN)
 150:Generated_Source\PSoC4/key_touch_Processing.c **** /*******************************************************************************
 151:Generated_Source\PSoC4/key_touch_Processing.c **** * Function Name: key_touch_DpInitCsdTouchpad
 152:Generated_Source\PSoC4/key_touch_Processing.c **** ****************************************************************************//**
 153:Generated_Source\PSoC4/key_touch_Processing.c **** *
 154:Generated_Source\PSoC4/key_touch_Processing.c **** * \brief
 155:Generated_Source\PSoC4/key_touch_Processing.c **** *  Performs initialization of the CSD touchpad widget.
 156:Generated_Source\PSoC4/key_touch_Processing.c **** *   - Resets the position data to NONE
 157:Generated_Source\PSoC4/key_touch_Processing.c **** *   - Initializes the median filter history if the appropriate position filter is enabled.
 158:Generated_Source\PSoC4/key_touch_Processing.c **** *
 159:Generated_Source\PSoC4/key_touch_Processing.c **** * \details
 160:Generated_Source\PSoC4/key_touch_Processing.c **** *  The position data is always reset to the key_touch_TOUCHPAD_POS_NONE value.
 161:Generated_Source\PSoC4/key_touch_Processing.c **** *  The same happens to the median filter history data if this type of filter is enabled.
 162:Generated_Source\PSoC4/key_touch_Processing.c **** *
 163:Generated_Source\PSoC4/key_touch_Processing.c **** *******************************************************************************/
 164:Generated_Source\PSoC4/key_touch_Processing.c **** static CY_INLINE void key_touch_DpInitCsdTouchpad(key_touch_FLASH_WD_STRUCT const * ptrFlashWdgt)
 165:Generated_Source\PSoC4/key_touch_Processing.c **** {
 166:Generated_Source\PSoC4/key_touch_Processing.c ****     key_touch_RAM_WD_CSD_TOUCHPAD_STRUCT *ptrWdTouchpad;
 167:Generated_Source\PSoC4/key_touch_Processing.c **** 
 168:Generated_Source\PSoC4/key_touch_Processing.c ****     #if (0u != key_touch_POS_MEDIAN_FILTER_EN)
 169:Generated_Source\PSoC4/key_touch_Processing.c ****         key_touch_TOUCHPAD_POS_HISTORY_STRUCT *ptrHistory;
 170:Generated_Source\PSoC4/key_touch_Processing.c ****     #endif  /* #if (0u != key_touch_POS_MEDIAN_FILTER_EN) */
 171:Generated_Source\PSoC4/key_touch_Processing.c **** 
 172:Generated_Source\PSoC4/key_touch_Processing.c ****     ptrWdTouchpad = ptrFlashWdgt->ptr2WdgtRam;
 173:Generated_Source\PSoC4/key_touch_Processing.c **** 
 174:Generated_Source\PSoC4/key_touch_Processing.c ****     /* Reset position data */
 175:Generated_Source\PSoC4/key_touch_Processing.c ****     ptrWdTouchpad->posX = key_touch_TOUCHPAD_POS_NONE;
 176:Generated_Source\PSoC4/key_touch_Processing.c ****     ptrWdTouchpad->posY = key_touch_TOUCHPAD_POS_NONE;
 177:Generated_Source\PSoC4/key_touch_Processing.c **** 
 178:Generated_Source\PSoC4/key_touch_Processing.c ****     /* Reset median filter */
 179:Generated_Source\PSoC4/key_touch_Processing.c ****     #if (0u != key_touch_POS_MEDIAN_FILTER_EN)
 180:Generated_Source\PSoC4/key_touch_Processing.c ****         ptrHistory = ptrFlashWdgt->ptr2PosHistory;
 181:Generated_Source\PSoC4/key_touch_Processing.c **** 
 182:Generated_Source\PSoC4/key_touch_Processing.c ****         if (NULL != ptrHistory)
 183:Generated_Source\PSoC4/key_touch_Processing.c ****         {
 184:Generated_Source\PSoC4/key_touch_Processing.c ****             ptrHistory->xPos.posMedianZ1 = key_touch_TOUCHPAD_POS_NONE;
 185:Generated_Source\PSoC4/key_touch_Processing.c ****             ptrHistory->xPos.posMedianZ2 = key_touch_TOUCHPAD_POS_NONE;
 186:Generated_Source\PSoC4/key_touch_Processing.c **** 
 187:Generated_Source\PSoC4/key_touch_Processing.c ****             ptrHistory->yPos.posMedianZ1 = key_touch_TOUCHPAD_POS_NONE;
 188:Generated_Source\PSoC4/key_touch_Processing.c ****             ptrHistory->yPos.posMedianZ2 = key_touch_TOUCHPAD_POS_NONE;
 189:Generated_Source\PSoC4/key_touch_Processing.c ****         }
 190:Generated_Source\PSoC4/key_touch_Processing.c ****     #endif /* #if (0u != key_touch_POS_MEDIAN_FILTER_EN) */
 191:Generated_Source\PSoC4/key_touch_Processing.c **** }
 192:Generated_Source\PSoC4/key_touch_Processing.c **** #endif /* #if (0u != key_touch_CSD_TOUCHPAD_WIDGET_EN) */
 193:Generated_Source\PSoC4/key_touch_Processing.c **** 
 194:Generated_Source\PSoC4/key_touch_Processing.c **** #if (0u != key_touch_CSX_TOUCHPAD_WIDGET_EN)
 195:Generated_Source\PSoC4/key_touch_Processing.c **** /*******************************************************************************
 196:Generated_Source\PSoC4/key_touch_Processing.c **** * Function Name: key_touch_DpInitCsxTouchpad
 197:Generated_Source\PSoC4/key_touch_Processing.c **** ****************************************************************************//**
 198:Generated_Source\PSoC4/key_touch_Processing.c **** *
 199:Generated_Source\PSoC4/key_touch_Processing.c **** * \brief
 200:Generated_Source\PSoC4/key_touch_Processing.c **** *  Performs initialization of the CSX touchpad widget i.e. Resets the position data to NONE.
 201:Generated_Source\PSoC4/key_touch_Processing.c **** *
 202:Generated_Source\PSoC4/key_touch_Processing.c **** * \details
 203:Generated_Source\PSoC4/key_touch_Processing.c **** *  The position data is always reset to the key_touch_TOUCHPAD_POS_NONE value.
ARM GAS  C:\Users\Administrator\AppData\Local\Temp\ccWuKATu.s 			page 5


 204:Generated_Source\PSoC4/key_touch_Processing.c **** *
 205:Generated_Source\PSoC4/key_touch_Processing.c **** *******************************************************************************/
 206:Generated_Source\PSoC4/key_touch_Processing.c **** static CY_INLINE void key_touch_DpInitCsxTouchpad(key_touch_FLASH_WD_STRUCT const * ptrFlashWdgt)
 207:Generated_Source\PSoC4/key_touch_Processing.c **** {
 208:Generated_Source\PSoC4/key_touch_Processing.c ****     key_touch_RAM_WD_CSX_TOUCHPAD_STRUCT *ptrWdTouchpad;
 209:Generated_Source\PSoC4/key_touch_Processing.c **** 
 210:Generated_Source\PSoC4/key_touch_Processing.c ****     ptrWdTouchpad = ptrFlashWdgt->ptr2WdgtRam;
 211:Generated_Source\PSoC4/key_touch_Processing.c **** 
 212:Generated_Source\PSoC4/key_touch_Processing.c ****     /* Reset position data for finger */
 213:Generated_Source\PSoC4/key_touch_Processing.c ****     ptrWdTouchpad->touch[0u].x = key_touch_TOUCHPAD_POS_NONE;
 214:Generated_Source\PSoC4/key_touch_Processing.c ****     ptrWdTouchpad->touch[0u].y = key_touch_TOUCHPAD_POS_NONE;
 215:Generated_Source\PSoC4/key_touch_Processing.c ****     ptrWdTouchpad->touch[0u].z = LO8(key_touch_TOUCHPAD_POS_NONE);
 216:Generated_Source\PSoC4/key_touch_Processing.c **** 
 217:Generated_Source\PSoC4/key_touch_Processing.c ****     #if (key_touch_CSX_MAX_FINGERS > 1u)
 218:Generated_Source\PSoC4/key_touch_Processing.c ****         ptrWdTouchpad->touch[1u].x = key_touch_TOUCHPAD_POS_NONE;
 219:Generated_Source\PSoC4/key_touch_Processing.c ****         ptrWdTouchpad->touch[1u].y = key_touch_TOUCHPAD_POS_NONE;
 220:Generated_Source\PSoC4/key_touch_Processing.c ****         ptrWdTouchpad->touch[1u].z = LO8(key_touch_TOUCHPAD_POS_NONE);
 221:Generated_Source\PSoC4/key_touch_Processing.c ****     #endif /* #if (key_touch_CSX_MAX_FINGERS > 1u) */
 222:Generated_Source\PSoC4/key_touch_Processing.c **** 
 223:Generated_Source\PSoC4/key_touch_Processing.c ****     #if (key_touch_CSX_MAX_FINGERS > 2u)
 224:Generated_Source\PSoC4/key_touch_Processing.c ****         ptrWdTouchpad->touch[2u].x = key_touch_TOUCHPAD_POS_NONE;
 225:Generated_Source\PSoC4/key_touch_Processing.c ****         ptrWdTouchpad->touch[2u].y = key_touch_TOUCHPAD_POS_NONE;
 226:Generated_Source\PSoC4/key_touch_Processing.c ****         ptrWdTouchpad->touch[2u].z = LO8(key_touch_TOUCHPAD_POS_NONE);
 227:Generated_Source\PSoC4/key_touch_Processing.c ****     #endif /* #if (key_touch_CSX_MAX_FINGERS > 2u) */
 228:Generated_Source\PSoC4/key_touch_Processing.c **** }
 229:Generated_Source\PSoC4/key_touch_Processing.c **** #endif /* #if (0u != key_touch_CSX_TOUCHPAD_WIDGET_EN) */
 230:Generated_Source\PSoC4/key_touch_Processing.c **** 
 231:Generated_Source\PSoC4/key_touch_Processing.c **** #if (0u != key_touch_SLIDER_WIDGET_EN)
 232:Generated_Source\PSoC4/key_touch_Processing.c **** /*******************************************************************************
 233:Generated_Source\PSoC4/key_touch_Processing.c **** * Function Name: key_touch_DpInitSlider
 234:Generated_Source\PSoC4/key_touch_Processing.c **** ****************************************************************************//**
 235:Generated_Source\PSoC4/key_touch_Processing.c **** *
 236:Generated_Source\PSoC4/key_touch_Processing.c **** * \brief
 237:Generated_Source\PSoC4/key_touch_Processing.c **** *  Performs initialization of the Radial and Linear Slider widget.
 238:Generated_Source\PSoC4/key_touch_Processing.c **** *   - Resets the position data to NONE
 239:Generated_Source\PSoC4/key_touch_Processing.c **** *   - Initializes the median filter history to NONE if it is enabled.
 240:Generated_Source\PSoC4/key_touch_Processing.c **** *
 241:Generated_Source\PSoC4/key_touch_Processing.c **** * \details
 242:Generated_Source\PSoC4/key_touch_Processing.c **** *  Position data is always reset to the key_touch_SLIDER_POS_NONE value.
 243:Generated_Source\PSoC4/key_touch_Processing.c **** *  The same happens to the median filter history data.
 244:Generated_Source\PSoC4/key_touch_Processing.c **** *
 245:Generated_Source\PSoC4/key_touch_Processing.c **** *******************************************************************************/
 246:Generated_Source\PSoC4/key_touch_Processing.c **** static CY_INLINE void key_touch_DpInitSlider(key_touch_FLASH_WD_STRUCT const * ptrFlashWdgt)
 247:Generated_Source\PSoC4/key_touch_Processing.c **** {
 248:Generated_Source\PSoC4/key_touch_Processing.c ****     uint32 idx;
 249:Generated_Source\PSoC4/key_touch_Processing.c ****     key_touch_RAM_WD_SLIDER_STRUCT *ptrWdSlider;
 250:Generated_Source\PSoC4/key_touch_Processing.c **** 
 251:Generated_Source\PSoC4/key_touch_Processing.c ****     #if (0u != key_touch_POS_MEDIAN_FILTER_EN)
 252:Generated_Source\PSoC4/key_touch_Processing.c ****         key_touch_SLIDER_POS_HISTORY_STRUCT *ptrHistory;
 253:Generated_Source\PSoC4/key_touch_Processing.c ****     #endif /* #if (0u != key_touch_POS_MEDIAN_FILTER_EN) */
 254:Generated_Source\PSoC4/key_touch_Processing.c **** 
 255:Generated_Source\PSoC4/key_touch_Processing.c ****     ptrWdSlider = ptrFlashWdgt->ptr2WdgtRam;
 256:Generated_Source\PSoC4/key_touch_Processing.c **** 
 257:Generated_Source\PSoC4/key_touch_Processing.c ****     /* Reset slider position data to NONE */
 258:Generated_Source\PSoC4/key_touch_Processing.c ****     for (idx = 0u; idx < key_touch_NUM_CENTROIDS; idx++)
 259:Generated_Source\PSoC4/key_touch_Processing.c ****     {
 260:Generated_Source\PSoC4/key_touch_Processing.c ****         ptrWdSlider->position[idx] = key_touch_SLIDER_POS_NONE;
ARM GAS  C:\Users\Administrator\AppData\Local\Temp\ccWuKATu.s 			page 6


 261:Generated_Source\PSoC4/key_touch_Processing.c **** 
 262:Generated_Source\PSoC4/key_touch_Processing.c ****         #if (0u != key_touch_POS_MEDIAN_FILTER_EN)
 263:Generated_Source\PSoC4/key_touch_Processing.c ****             ptrHistory = ptrFlashWdgt->ptr2PosHistory;
 264:Generated_Source\PSoC4/key_touch_Processing.c ****             
 265:Generated_Source\PSoC4/key_touch_Processing.c ****             if (NULL != ptrHistory)
 266:Generated_Source\PSoC4/key_touch_Processing.c ****             {
 267:Generated_Source\PSoC4/key_touch_Processing.c ****                 ptrHistory[idx].posMedianZ1 = key_touch_SLIDER_POS_NONE;
 268:Generated_Source\PSoC4/key_touch_Processing.c ****                 ptrHistory[idx].posMedianZ2 = key_touch_SLIDER_POS_NONE;
 269:Generated_Source\PSoC4/key_touch_Processing.c ****             }
 270:Generated_Source\PSoC4/key_touch_Processing.c ****         #endif /* #if (0u != key_touch_POS_MEDIAN_FILTER_EN) */
 271:Generated_Source\PSoC4/key_touch_Processing.c ****     }
 272:Generated_Source\PSoC4/key_touch_Processing.c **** }
 273:Generated_Source\PSoC4/key_touch_Processing.c **** #endif /* #if (0u != key_touch_SLIDER_WIDGET_EN) */
 274:Generated_Source\PSoC4/key_touch_Processing.c **** 
 275:Generated_Source\PSoC4/key_touch_Processing.c **** #if (0u != key_touch_CSD_MATRIX_WIDGET_EN)
 276:Generated_Source\PSoC4/key_touch_Processing.c **** /*******************************************************************************
 277:Generated_Source\PSoC4/key_touch_Processing.c **** * Function Name: key_touch_DpInitCsdMatrix
 278:Generated_Source\PSoC4/key_touch_Processing.c **** ****************************************************************************//**
 279:Generated_Source\PSoC4/key_touch_Processing.c **** *
 280:Generated_Source\PSoC4/key_touch_Processing.c **** * \brief
 281:Generated_Source\PSoC4/key_touch_Processing.c **** *  Performs initialization of the CSD Matrix Buttons widget.
 282:Generated_Source\PSoC4/key_touch_Processing.c **** *   - Resets the active button position data to NONE.
 283:Generated_Source\PSoC4/key_touch_Processing.c **** *
 284:Generated_Source\PSoC4/key_touch_Processing.c **** * \details
 285:Generated_Source\PSoC4/key_touch_Processing.c **** *  Position data is always reset to the key_touch_MATRIX_POS_NONE value.
 286:Generated_Source\PSoC4/key_touch_Processing.c **** *
 287:Generated_Source\PSoC4/key_touch_Processing.c **** *******************************************************************************/
 288:Generated_Source\PSoC4/key_touch_Processing.c **** static CY_INLINE void key_touch_DpInitCsdMatrix(key_touch_FLASH_WD_STRUCT const * ptrFlashWdgt)
 289:Generated_Source\PSoC4/key_touch_Processing.c **** {
 290:Generated_Source\PSoC4/key_touch_Processing.c ****     key_touch_RAM_WD_CSD_MATRIX_STRUCT *ptrRamWdgt;
 291:Generated_Source\PSoC4/key_touch_Processing.c **** 
 292:Generated_Source\PSoC4/key_touch_Processing.c ****     ptrRamWdgt = ptrFlashWdgt->ptr2WdgtRam;
 293:Generated_Source\PSoC4/key_touch_Processing.c **** 
 294:Generated_Source\PSoC4/key_touch_Processing.c ****     /* Reset sensor id, row and col registers in data structure */
 295:Generated_Source\PSoC4/key_touch_Processing.c ****     ptrRamWdgt->posRow   = key_touch_MATRIX_POS_NONE;
 296:Generated_Source\PSoC4/key_touch_Processing.c ****     ptrRamWdgt->posCol   = key_touch_MATRIX_POS_NONE;
 297:Generated_Source\PSoC4/key_touch_Processing.c ****     ptrRamWdgt->posSnsId = key_touch_MATRIX_POS_NONE;
 298:Generated_Source\PSoC4/key_touch_Processing.c **** }
 299:Generated_Source\PSoC4/key_touch_Processing.c **** #endif /* #if (0u != key_touch_CSD_MATRIX_WIDGET_EN) */
 300:Generated_Source\PSoC4/key_touch_Processing.c **** 
 301:Generated_Source\PSoC4/key_touch_Processing.c **** /*******************************************************************************
 302:Generated_Source\PSoC4/key_touch_Processing.c **** * Function Name: key_touch_DpInitialize
 303:Generated_Source\PSoC4/key_touch_Processing.c **** ****************************************************************************//**
 304:Generated_Source\PSoC4/key_touch_Processing.c **** *
 305:Generated_Source\PSoC4/key_touch_Processing.c **** * \brief
 306:Generated_Source\PSoC4/key_touch_Processing.c **** *  Performs initialization of the data processing FW module:
 307:Generated_Source\PSoC4/key_touch_Processing.c **** *   - Resets the de-bounce counters of all widgets
 308:Generated_Source\PSoC4/key_touch_Processing.c **** *   - Resets the position filter history for slider and touchpad widgets
 309:Generated_Source\PSoC4/key_touch_Processing.c **** *   - Clears widget and sensor statuses
 310:Generated_Source\PSoC4/key_touch_Processing.c **** *   - Enables all widgets.
 311:Generated_Source\PSoC4/key_touch_Processing.c **** *
 312:Generated_Source\PSoC4/key_touch_Processing.c **** * \details
 313:Generated_Source\PSoC4/key_touch_Processing.c **** *  The Button and Matrix Button widgets have individual de-bounce counter per
 314:Generated_Source\PSoC4/key_touch_Processing.c **** *  sensor for the CSD widgets and per node for the CSX widgets.
 315:Generated_Source\PSoC4/key_touch_Processing.c **** *
 316:Generated_Source\PSoC4/key_touch_Processing.c **** *  The Slider and Touchpad widgets have a single de-bounce counter per widget.
 317:Generated_Source\PSoC4/key_touch_Processing.c **** *
ARM GAS  C:\Users\Administrator\AppData\Local\Temp\ccWuKATu.s 			page 7


 318:Generated_Source\PSoC4/key_touch_Processing.c **** *  The Proximity widget has two de-bounce counters per sensor. One for the
 319:Generated_Source\PSoC4/key_touch_Processing.c **** *  proximity event and second for the touch event.
 320:Generated_Source\PSoC4/key_touch_Processing.c **** *
 321:Generated_Source\PSoC4/key_touch_Processing.c **** *  All debounce counters during initialization are set to the value of the
 322:Generated_Source\PSoC4/key_touch_Processing.c **** *  onDebounce widget parameter.
 323:Generated_Source\PSoC4/key_touch_Processing.c **** *
 324:Generated_Source\PSoC4/key_touch_Processing.c **** *******************************************************************************/
 325:Generated_Source\PSoC4/key_touch_Processing.c **** void key_touch_DpInitialize(void)
 326:Generated_Source\PSoC4/key_touch_Processing.c **** {
  26              		.loc 1 326 0
  27              		.cfi_startproc
  28 0000 70B5     		push	{r4, r5, r6, lr}
  29              		.cfi_def_cfa_offset 16
  30              		.cfi_offset 4, -16
  31              		.cfi_offset 5, -12
  32              		.cfi_offset 6, -8
  33              		.cfi_offset 14, -4
  34              	.LVL0:
 327:Generated_Source\PSoC4/key_touch_Processing.c ****     uint32 wdgtId;
 328:Generated_Source\PSoC4/key_touch_Processing.c ****     key_touch_WD_TYPE_ENUM widgetType;
 329:Generated_Source\PSoC4/key_touch_Processing.c ****     key_touch_RAM_WD_BASE_STRUCT * ptrRamWdgt;
 330:Generated_Source\PSoC4/key_touch_Processing.c ****     key_touch_FLASH_WD_STRUCT const * ptrFlashWdgt;
 331:Generated_Source\PSoC4/key_touch_Processing.c **** 
 332:Generated_Source\PSoC4/key_touch_Processing.c ****     for (wdgtId = 0u; wdgtId < key_touch_WDGT_STATUS_WORDS; wdgtId++)
  35              		.loc 1 332 0
  36 0002 0023     		mov	r3, #0
  37 0004 0BE0     		b	.L2
  38              	.LVL1:
  39              	.L3:
 333:Generated_Source\PSoC4/key_touch_Processing.c ****     {
 334:Generated_Source\PSoC4/key_touch_Processing.c ****         /* Clear widget status */
 335:Generated_Source\PSoC4/key_touch_Processing.c ****         key_touch_dsRam.wdgtStatus[wdgtId] = 0u;
  40              		.loc 1 335 0 discriminator 3
  41 0006 1348     		ldr	r0, .L8
  42 0008 191D     		add	r1, r3, #4
  43 000a 8900     		lsl	r1, r1, #2
  44 000c 0022     		mov	r2, #0
  45 000e 0A50     		str	r2, [r1, r0]
 336:Generated_Source\PSoC4/key_touch_Processing.c **** 
 337:Generated_Source\PSoC4/key_touch_Processing.c ****         /* Enable all widgets */
 338:Generated_Source\PSoC4/key_touch_Processing.c ****         key_touch_dsRam.wdgtEnable[wdgtId] = 0xFFFFFFFFLu;
  46              		.loc 1 338 0 discriminator 3
  47 0010 9A1C     		add	r2, r3, #2
  48 0012 9200     		lsl	r2, r2, #2
  49 0014 8218     		add	r2, r0, r2
  50 0016 0121     		mov	r1, #1
  51 0018 4942     		neg	r1, r1
  52 001a 5160     		str	r1, [r2, #4]
 332:Generated_Source\PSoC4/key_touch_Processing.c ****     {
  53              		.loc 1 332 0 discriminator 3
  54 001c 0133     		add	r3, r3, #1
  55              	.LVL2:
  56              	.L2:
 332:Generated_Source\PSoC4/key_touch_Processing.c ****     {
  57              		.loc 1 332 0 is_stmt 0 discriminator 1
  58 001e 002B     		cmp	r3, #0
  59 0020 F1D0     		beq	.L3
ARM GAS  C:\Users\Administrator\AppData\Local\Temp\ccWuKATu.s 			page 8


  60 0022 0D4C     		ldr	r4, .L8+4
  61 0024 0C23     		mov	r3, #12
  62              	.LVL3:
  63 0026 10E0     		b	.L4
  64              	.LVL4:
  65              	.L7:
 339:Generated_Source\PSoC4/key_touch_Processing.c **** 
 340:Generated_Source\PSoC4/key_touch_Processing.c ****         /* Set all widgets to working state if the Self-Test is not enabled */
 341:Generated_Source\PSoC4/key_touch_Processing.c ****         #if (0u != key_touch_SELF_TEST_EN)
 342:Generated_Source\PSoC4/key_touch_Processing.c ****             key_touch_dsRam.wdgtWorking[wdgtId] = 0xFFFFFFFFLu;
 343:Generated_Source\PSoC4/key_touch_Processing.c ****         #endif /* #if (0u == key_touch_SELF_TEST_EN) */
 344:Generated_Source\PSoC4/key_touch_Processing.c ****     }
 345:Generated_Source\PSoC4/key_touch_Processing.c **** 
 346:Generated_Source\PSoC4/key_touch_Processing.c ****     ptrFlashWdgt = key_touch_dsFlash.wdgtArray;
 347:Generated_Source\PSoC4/key_touch_Processing.c **** 
 348:Generated_Source\PSoC4/key_touch_Processing.c ****     for (wdgtId = key_touch_TOTAL_WIDGETS; wdgtId-- > 0u; )
 349:Generated_Source\PSoC4/key_touch_Processing.c ****     {
 350:Generated_Source\PSoC4/key_touch_Processing.c ****         ptrRamWdgt = ptrFlashWdgt->ptr2WdgtRam;
  66              		.loc 1 350 0 is_stmt 1
  67 0028 6668     		ldr	r6, [r4, #4]
  68              	.LVL5:
 351:Generated_Source\PSoC4/key_touch_Processing.c ****         widgetType = (key_touch_WD_TYPE_ENUM)ptrFlashWdgt->wdgtType;
  69              		.loc 1 351 0
  70 002a 227E     		ldrb	r2, [r4, #24]
  71              	.LVL6:
 352:Generated_Source\PSoC4/key_touch_Processing.c **** 
 353:Generated_Source\PSoC4/key_touch_Processing.c ****         /* Clear all sensor statuses */
 354:Generated_Source\PSoC4/key_touch_Processing.c ****         key_touch_dsRam.snsStatus[wdgtId] = 0u;
  72              		.loc 1 354 0
  73 002c 094B     		ldr	r3, .L8
  74 002e 5B19     		add	r3, r3, r5
  75 0030 0021     		mov	r1, #0
  76 0032 1975     		strb	r1, [r3, #20]
 355:Generated_Source\PSoC4/key_touch_Processing.c **** 
 356:Generated_Source\PSoC4/key_touch_Processing.c ****         /* Reset de-bounce counters */
 357:Generated_Source\PSoC4/key_touch_Processing.c ****         switch (widgetType)
  77              		.loc 1 357 0
  78 0034 012A     		cmp	r2, #1
  79 0036 06D1     		bne	.L5
 358:Generated_Source\PSoC4/key_touch_Processing.c ****         {
 359:Generated_Source\PSoC4/key_touch_Processing.c ****         #if (0u != key_touch_MATRIX_WIDGET_EN)
 360:Generated_Source\PSoC4/key_touch_Processing.c ****             case key_touch_WD_MATRIX_BUTTON_E:
 361:Generated_Source\PSoC4/key_touch_Processing.c ****                 #if (0u != key_touch_CSD_MATRIX_WIDGET_EN)
 362:Generated_Source\PSoC4/key_touch_Processing.c ****                     if (key_touch_SENSE_METHOD_CSD_E == key_touch_GET_SENSE_METHOD(ptrFlashWdgt))
 363:Generated_Source\PSoC4/key_touch_Processing.c ****                     {
 364:Generated_Source\PSoC4/key_touch_Processing.c ****                         key_touch_DpInitCsdMatrix(ptrFlashWdgt);
 365:Generated_Source\PSoC4/key_touch_Processing.c ****                     }
 366:Generated_Source\PSoC4/key_touch_Processing.c ****                 #endif /* #if (0u != key_touch_CSD_MATRIX_WIDGET_EN) */
 367:Generated_Source\PSoC4/key_touch_Processing.c ****                 
 368:Generated_Source\PSoC4/key_touch_Processing.c ****                 if (NULL != ptrFlashWdgt->ptr2DebounceArr)
 369:Generated_Source\PSoC4/key_touch_Processing.c ****                 {
 370:Generated_Source\PSoC4/key_touch_Processing.c ****                     /* Initialize array of debounce counters */
 371:Generated_Source\PSoC4/key_touch_Processing.c ****                     (void)memset(ptrFlashWdgt->ptr2DebounceArr, 
 372:Generated_Source\PSoC4/key_touch_Processing.c ****                                  (int32)ptrRamWdgt->onDebounce, 
 373:Generated_Source\PSoC4/key_touch_Processing.c ****                                  (size_t)ptrFlashWdgt->totalNumSns);
 374:Generated_Source\PSoC4/key_touch_Processing.c ****                 }
 375:Generated_Source\PSoC4/key_touch_Processing.c ****                 break;
ARM GAS  C:\Users\Administrator\AppData\Local\Temp\ccWuKATu.s 			page 9


 376:Generated_Source\PSoC4/key_touch_Processing.c ****         #endif /* #if (0u != key_touch_MATRIX_WIDGET_EN) */
 377:Generated_Source\PSoC4/key_touch_Processing.c ****         
 378:Generated_Source\PSoC4/key_touch_Processing.c ****         #if (0u != key_touch_BUTTON_WIDGET_EN)
 379:Generated_Source\PSoC4/key_touch_Processing.c ****             case key_touch_WD_BUTTON_E:
 380:Generated_Source\PSoC4/key_touch_Processing.c ****                 if (NULL != ptrFlashWdgt->ptr2DebounceArr)
  80              		.loc 1 380 0
  81 0038 2069     		ldr	r0, [r4, #16]
  82 003a 0028     		cmp	r0, #0
  83 003c 03D0     		beq	.L5
 381:Generated_Source\PSoC4/key_touch_Processing.c ****                 {
 382:Generated_Source\PSoC4/key_touch_Processing.c ****                     /* Initialize array of debounce counters */
 383:Generated_Source\PSoC4/key_touch_Processing.c ****                     (void)memset(ptrFlashWdgt->ptr2DebounceArr, 
 384:Generated_Source\PSoC4/key_touch_Processing.c ****                                  (int32)ptrRamWdgt->onDebounce, 
  84              		.loc 1 384 0
  85 003e F179     		ldrb	r1, [r6, #7]
 385:Generated_Source\PSoC4/key_touch_Processing.c ****                                  (size_t)ptrFlashWdgt->totalNumSns);
  86              		.loc 1 385 0
  87 0040 E28A     		ldrh	r2, [r4, #22]
  88              	.LVL7:
 383:Generated_Source\PSoC4/key_touch_Processing.c ****                                  (int32)ptrRamWdgt->onDebounce, 
  89              		.loc 1 383 0
  90 0042 FFF7FEFF 		bl	memset
  91              	.LVL8:
  92              	.L5:
 386:Generated_Source\PSoC4/key_touch_Processing.c ****                 }
 387:Generated_Source\PSoC4/key_touch_Processing.c ****                 break;
 388:Generated_Source\PSoC4/key_touch_Processing.c ****         #endif /* #if (0u != key_touch_BUTTON_WIDGET_EN) */
 389:Generated_Source\PSoC4/key_touch_Processing.c **** 
 390:Generated_Source\PSoC4/key_touch_Processing.c ****         #if (0u != key_touch_SLIDER_WIDGET_EN)
 391:Generated_Source\PSoC4/key_touch_Processing.c ****             case key_touch_WD_LINEAR_SLIDER_E:
 392:Generated_Source\PSoC4/key_touch_Processing.c ****             case key_touch_WD_RADIAL_SLIDER_E:
 393:Generated_Source\PSoC4/key_touch_Processing.c ****                 if (NULL != ptrFlashWdgt->ptr2DebounceArr)
 394:Generated_Source\PSoC4/key_touch_Processing.c ****                 {
 395:Generated_Source\PSoC4/key_touch_Processing.c ****                     /* Initialize single debounce counter of slider */
 396:Generated_Source\PSoC4/key_touch_Processing.c ****                     *(uint8 *)(ptrFlashWdgt->ptr2DebounceArr) = ptrRamWdgt->onDebounce;
 397:Generated_Source\PSoC4/key_touch_Processing.c ****                 }
 398:Generated_Source\PSoC4/key_touch_Processing.c **** 
 399:Generated_Source\PSoC4/key_touch_Processing.c ****                 key_touch_DpInitSlider(ptrFlashWdgt);
 400:Generated_Source\PSoC4/key_touch_Processing.c **** 
 401:Generated_Source\PSoC4/key_touch_Processing.c ****                 break;
 402:Generated_Source\PSoC4/key_touch_Processing.c ****         #endif /* #if (0u != key_touch_SLIDER_WIDGET_EN) */
 403:Generated_Source\PSoC4/key_touch_Processing.c **** 
 404:Generated_Source\PSoC4/key_touch_Processing.c ****         #if (0u != key_touch_TOUCHPAD_WIDGET_EN)
 405:Generated_Source\PSoC4/key_touch_Processing.c ****             case key_touch_WD_TOUCHPAD_E:
 406:Generated_Source\PSoC4/key_touch_Processing.c ****                 if (NULL != ptrFlashWdgt->ptr2DebounceArr)
 407:Generated_Source\PSoC4/key_touch_Processing.c ****                 {
 408:Generated_Source\PSoC4/key_touch_Processing.c ****                     /* Initialize single debounce counter of touchpad */
 409:Generated_Source\PSoC4/key_touch_Processing.c ****                     *(uint8 *)(ptrFlashWdgt->ptr2DebounceArr) = ptrRamWdgt->onDebounce;
 410:Generated_Source\PSoC4/key_touch_Processing.c ****                 }
 411:Generated_Source\PSoC4/key_touch_Processing.c **** 
 412:Generated_Source\PSoC4/key_touch_Processing.c ****                 #if (0u != key_touch_CSD_TOUCHPAD_WIDGET_EN)
 413:Generated_Source\PSoC4/key_touch_Processing.c ****                     if (key_touch_SENSE_METHOD_CSD_E == key_touch_GET_SENSE_METHOD(ptrFlashWdgt))
 414:Generated_Source\PSoC4/key_touch_Processing.c ****                     {
 415:Generated_Source\PSoC4/key_touch_Processing.c ****                         key_touch_DpInitCsdTouchpad(ptrFlashWdgt);
 416:Generated_Source\PSoC4/key_touch_Processing.c ****                     }
 417:Generated_Source\PSoC4/key_touch_Processing.c ****                 #endif /* #if (0u != key_touch_CSD_TOUCHPAD_WIDGET_EN) */
 418:Generated_Source\PSoC4/key_touch_Processing.c **** 
ARM GAS  C:\Users\Administrator\AppData\Local\Temp\ccWuKATu.s 			page 10


 419:Generated_Source\PSoC4/key_touch_Processing.c ****                 #if (0u != key_touch_CSX_TOUCHPAD_WIDGET_EN)
 420:Generated_Source\PSoC4/key_touch_Processing.c ****                     if (key_touch_SENSE_METHOD_CSX_E == key_touch_GET_SENSE_METHOD(ptrFlashWdgt))
 421:Generated_Source\PSoC4/key_touch_Processing.c ****                     {
 422:Generated_Source\PSoC4/key_touch_Processing.c ****                         key_touch_DpInitCsxTouchpad(ptrFlashWdgt);
 423:Generated_Source\PSoC4/key_touch_Processing.c ****                     }
 424:Generated_Source\PSoC4/key_touch_Processing.c ****                 #endif /* #if (0u != key_touch_CSX_TOUCHPAD_WIDGET_EN) */
 425:Generated_Source\PSoC4/key_touch_Processing.c **** 
 426:Generated_Source\PSoC4/key_touch_Processing.c ****                 break;
 427:Generated_Source\PSoC4/key_touch_Processing.c ****         #endif /* #if (0u != key_touch_TOUCHPAD_WIDGET_EN) */
 428:Generated_Source\PSoC4/key_touch_Processing.c **** 
 429:Generated_Source\PSoC4/key_touch_Processing.c ****         #if (0u != key_touch_PROXIMITY_WIDGET_EN)
 430:Generated_Source\PSoC4/key_touch_Processing.c ****             case key_touch_WD_PROXIMITY_E:
 431:Generated_Source\PSoC4/key_touch_Processing.c ****                 if (NULL != ptrFlashWdgt->ptr2DebounceArr)
 432:Generated_Source\PSoC4/key_touch_Processing.c ****                 {
 433:Generated_Source\PSoC4/key_touch_Processing.c ****                     /* Proximity widgets have 2 de-bounce counters per sensor. 
 434:Generated_Source\PSoC4/key_touch_Processing.c ****                      * Therefore the number of sensors is multiplied by 2. 
 435:Generated_Source\PSoC4/key_touch_Processing.c ****                      */
 436:Generated_Source\PSoC4/key_touch_Processing.c ****                    (void)memset(ptrFlashWdgt->ptr2DebounceArr, 
 437:Generated_Source\PSoC4/key_touch_Processing.c ****                                 (int32)ptrRamWdgt->onDebounce, 
 438:Generated_Source\PSoC4/key_touch_Processing.c ****                                 (size_t)ptrFlashWdgt->totalNumSns * 2u);
 439:Generated_Source\PSoC4/key_touch_Processing.c ****                 }
 440:Generated_Source\PSoC4/key_touch_Processing.c ****                 break;
 441:Generated_Source\PSoC4/key_touch_Processing.c ****         #endif /* #if (0u != key_touch_PROXIMITY_WIDGET_EN) */
 442:Generated_Source\PSoC4/key_touch_Processing.c ****                 
 443:Generated_Source\PSoC4/key_touch_Processing.c ****             default:
 444:Generated_Source\PSoC4/key_touch_Processing.c ****                 break;
 445:Generated_Source\PSoC4/key_touch_Processing.c ****         }
 446:Generated_Source\PSoC4/key_touch_Processing.c **** 
 447:Generated_Source\PSoC4/key_touch_Processing.c ****         /* Move to next widget */
 448:Generated_Source\PSoC4/key_touch_Processing.c ****         ptrFlashWdgt++;
  93              		.loc 1 448 0
  94 0046 1C34     		add	r4, r4, #28
  95              	.LVL9:
 348:Generated_Source\PSoC4/key_touch_Processing.c ****     {
  96              		.loc 1 348 0
  97 0048 2B1C     		mov	r3, r5
  98              	.LVL10:
  99              	.L4:
 348:Generated_Source\PSoC4/key_touch_Processing.c ****     {
 100              		.loc 1 348 0 is_stmt 0 discriminator 1
 101 004a 5D1E     		sub	r5, r3, #1
 102              	.LVL11:
 103 004c 002B     		cmp	r3, #0
 104 004e EBD1     		bne	.L7
 449:Generated_Source\PSoC4/key_touch_Processing.c ****     }
 450:Generated_Source\PSoC4/key_touch_Processing.c **** }
 105              		.loc 1 450 0 is_stmt 1
 106              		@ sp needed
 107              	.LVL12:
 108              	.LVL13:
 109 0050 70BD     		pop	{r4, r5, r6, pc}
 110              	.L9:
 111 0052 C046     		.align	2
 112              	.L8:
 113 0054 00000000 		.word	key_touch_dsRam
 114 0058 00000000 		.word	key_touch_dsFlash
 115              		.cfi_endproc
ARM GAS  C:\Users\Administrator\AppData\Local\Temp\ccWuKATu.s 			page 11


 116              	.LFE1:
 117              		.size	key_touch_DpInitialize, .-key_touch_DpInitialize
 118              		.section	.text.key_touch_DpUpdateDifferences,"ax",%progbits
 119              		.align	2
 120              		.global	key_touch_DpUpdateDifferences
 121              		.code	16
 122              		.thumb_func
 123              		.type	key_touch_DpUpdateDifferences, %function
 124              	key_touch_DpUpdateDifferences:
 125              	.LFB5:
 451:Generated_Source\PSoC4/key_touch_Processing.c **** 
 452:Generated_Source\PSoC4/key_touch_Processing.c **** #if (0u != key_touch_TOTAL_CSX_WIDGETS)
 453:Generated_Source\PSoC4/key_touch_Processing.c **** /*******************************************************************************
 454:Generated_Source\PSoC4/key_touch_Processing.c **** * Function Name: key_touch_DpProcessCsxWidgetRawCounts
 455:Generated_Source\PSoC4/key_touch_Processing.c **** ****************************************************************************//**
 456:Generated_Source\PSoC4/key_touch_Processing.c **** *
 457:Generated_Source\PSoC4/key_touch_Processing.c **** * \brief
 458:Generated_Source\PSoC4/key_touch_Processing.c **** *  Performs default processing of the CSX raw counts.
 459:Generated_Source\PSoC4/key_touch_Processing.c **** *
 460:Generated_Source\PSoC4/key_touch_Processing.c **** * \details
 461:Generated_Source\PSoC4/key_touch_Processing.c **** *  Performs default processing of the CSX raw counts:
 462:Generated_Source\PSoC4/key_touch_Processing.c **** *   - Run Filters
 463:Generated_Source\PSoC4/key_touch_Processing.c **** *   - Update Baselines
 464:Generated_Source\PSoC4/key_touch_Processing.c **** *   - Update Differences
 465:Generated_Source\PSoC4/key_touch_Processing.c **** *   - Update Status.
 466:Generated_Source\PSoC4/key_touch_Processing.c **** *  The same process is applied to all sensors of the specified widget.
 467:Generated_Source\PSoC4/key_touch_Processing.c **** *
 468:Generated_Source\PSoC4/key_touch_Processing.c **** * \param ptrFlashWdgt The pointer to the Flash widget structure.
 469:Generated_Source\PSoC4/key_touch_Processing.c **** *
 470:Generated_Source\PSoC4/key_touch_Processing.c **** * \return   
 471:Generated_Source\PSoC4/key_touch_Processing.c **** *  Returns the status of the specified widget processing operation:
 472:Generated_Source\PSoC4/key_touch_Processing.c **** *  - CYRET_SUCCESS if operation was successfully completed;
 473:Generated_Source\PSoC4/key_touch_Processing.c **** *  - key_touch_PROCESS_BASELINE_FAILED if baseline processing of any 
 474:Generated_Source\PSoC4/key_touch_Processing.c **** *    sensor of the specified widget failed. The result is concatenated with the index
 475:Generated_Source\PSoC4/key_touch_Processing.c **** *    of failed sensor.
 476:Generated_Source\PSoC4/key_touch_Processing.c **** *
 477:Generated_Source\PSoC4/key_touch_Processing.c **** *******************************************************************************/
 478:Generated_Source\PSoC4/key_touch_Processing.c **** uint32 key_touch_DpProcessCsxWidgetRawCounts(key_touch_FLASH_WD_STRUCT const *ptrFlashWdgt)
 479:Generated_Source\PSoC4/key_touch_Processing.c **** {
 480:Generated_Source\PSoC4/key_touch_Processing.c ****     uint32 result = CYRET_SUCCESS;
 481:Generated_Source\PSoC4/key_touch_Processing.c ****     uint32 widgetType;
 482:Generated_Source\PSoC4/key_touch_Processing.c ****     uint32 snsCount;
 483:Generated_Source\PSoC4/key_touch_Processing.c ****     key_touch_RAM_SNS_STRUCT *ptrSns;
 484:Generated_Source\PSoC4/key_touch_Processing.c ****     key_touch_RAM_WD_BASE_STRUCT *ptrRamWdgt;
 485:Generated_Source\PSoC4/key_touch_Processing.c **** 
 486:Generated_Source\PSoC4/key_touch_Processing.c ****     #if (0u != DP_FW_FILTER_EN)
 487:Generated_Source\PSoC4/key_touch_Processing.c ****         key_touch_PTR_FILTER_VARIANT fltrHistV;
 488:Generated_Source\PSoC4/key_touch_Processing.c ****         
 489:Generated_Source\PSoC4/key_touch_Processing.c ****         fltrHistV.ptr = ptrFlashWdgt->ptr2FltrHistory;
 490:Generated_Source\PSoC4/key_touch_Processing.c ****     #endif /* #if (0u != DP_FW_FILTER_EN) */
 491:Generated_Source\PSoC4/key_touch_Processing.c **** 
 492:Generated_Source\PSoC4/key_touch_Processing.c ****     ptrSns = ptrFlashWdgt->ptr2SnsRam;
 493:Generated_Source\PSoC4/key_touch_Processing.c ****     snsCount = ptrFlashWdgt->totalNumSns;
 494:Generated_Source\PSoC4/key_touch_Processing.c ****     ptrRamWdgt = ptrFlashWdgt->ptr2WdgtRam;
 495:Generated_Source\PSoC4/key_touch_Processing.c ****     widgetType = ptrFlashWdgt->wdgtType;
 496:Generated_Source\PSoC4/key_touch_Processing.c **** 
 497:Generated_Source\PSoC4/key_touch_Processing.c ****     /* Run deconvolution algorithm for the widgets with multiphase TX support */
ARM GAS  C:\Users\Administrator\AppData\Local\Temp\ccWuKATu.s 			page 12


 498:Generated_Source\PSoC4/key_touch_Processing.c ****     #if (0u != key_touch_CSX_MULTIPHASE_TX_EN)
 499:Generated_Source\PSoC4/key_touch_Processing.c ****         if (0u != (ptrFlashWdgt->staticConfig & key_touch_MULTIPHASE_TX_MASK))
 500:Generated_Source\PSoC4/key_touch_Processing.c ****         {
 501:Generated_Source\PSoC4/key_touch_Processing.c ****             key_touch_DpDeconvolution(ptrFlashWdgt);
 502:Generated_Source\PSoC4/key_touch_Processing.c ****         }
 503:Generated_Source\PSoC4/key_touch_Processing.c ****     #endif  /* #if (0u != key_touch_CSX_MULTIPHASE_TX_EN) */   
 504:Generated_Source\PSoC4/key_touch_Processing.c ****     
 505:Generated_Source\PSoC4/key_touch_Processing.c ****     for (;snsCount-- > 0u;)
 506:Generated_Source\PSoC4/key_touch_Processing.c ****     {
 507:Generated_Source\PSoC4/key_touch_Processing.c ****         #if (0u != key_touch_CSX_SKIP_OVSMPL_SPECIFIC_NODES)
 508:Generated_Source\PSoC4/key_touch_Processing.c ****             if (0u != ptrSns->resolution)
 509:Generated_Source\PSoC4/key_touch_Processing.c ****         #endif
 510:Generated_Source\PSoC4/key_touch_Processing.c ****         {
 511:Generated_Source\PSoC4/key_touch_Processing.c ****             #if (0u != DP_FW_FILTER_EN)
 512:Generated_Source\PSoC4/key_touch_Processing.c ****                 key_touch_FtRunEnabledFiltersInternal(fltrHistV, ptrSns, widgetType);
 513:Generated_Source\PSoC4/key_touch_Processing.c ****             #endif /* #if (0u != DP_FW_FILTER_EN) */
 514:Generated_Source\PSoC4/key_touch_Processing.c **** 
 515:Generated_Source\PSoC4/key_touch_Processing.c ****             result = key_touch_FtUpdateBaseline(ptrRamWdgt, ptrSns, widgetType);
 516:Generated_Source\PSoC4/key_touch_Processing.c ****             
 517:Generated_Source\PSoC4/key_touch_Processing.c ****             #if (key_touch_ENABLE == key_touch_TST_BSLN_DUPLICATION_EN)
 518:Generated_Source\PSoC4/key_touch_Processing.c ****                 if (CYRET_SUCCESS != result)
 519:Generated_Source\PSoC4/key_touch_Processing.c ****                 {
 520:Generated_Source\PSoC4/key_touch_Processing.c ****                     result = snsCount | key_touch_PROCESS_BASELINE_FAILED;
 521:Generated_Source\PSoC4/key_touch_Processing.c ****                 }
 522:Generated_Source\PSoC4/key_touch_Processing.c ****             #endif /* (key_touch_ENABLE == key_touch_TST_BSLN_DUPLICATION_EN) */
 523:Generated_Source\PSoC4/key_touch_Processing.c **** 
 524:Generated_Source\PSoC4/key_touch_Processing.c ****             key_touch_DpUpdateDifferences(ptrRamWdgt, ptrSns);
 525:Generated_Source\PSoC4/key_touch_Processing.c ****         }
 526:Generated_Source\PSoC4/key_touch_Processing.c ****         /* Move pointers to the next sensor and filter history objects */
 527:Generated_Source\PSoC4/key_touch_Processing.c ****         ptrSns++;
 528:Generated_Source\PSoC4/key_touch_Processing.c ****             
 529:Generated_Source\PSoC4/key_touch_Processing.c ****         #if (0u != DP_FW_FILTER_EN)
 530:Generated_Source\PSoC4/key_touch_Processing.c ****             key_touch_INC_FLTR_OBJ_VARIANT(0u, fltrHistV);
 531:Generated_Source\PSoC4/key_touch_Processing.c ****         #endif /* #if (0u != DP_FW_FILTER_EN) */
 532:Generated_Source\PSoC4/key_touch_Processing.c ****     }
 533:Generated_Source\PSoC4/key_touch_Processing.c ****     return result;
 534:Generated_Source\PSoC4/key_touch_Processing.c **** }
 535:Generated_Source\PSoC4/key_touch_Processing.c **** 
 536:Generated_Source\PSoC4/key_touch_Processing.c **** /*******************************************************************************
 537:Generated_Source\PSoC4/key_touch_Processing.c **** * Function Name: key_touch_DpProcessCsxSensorRawCountsExt
 538:Generated_Source\PSoC4/key_touch_Processing.c **** ****************************************************************************//**
 539:Generated_Source\PSoC4/key_touch_Processing.c **** *
 540:Generated_Source\PSoC4/key_touch_Processing.c **** * \brief
 541:Generated_Source\PSoC4/key_touch_Processing.c **** *   Performs customized processing of the CSX sensor raw counts.
 542:Generated_Source\PSoC4/key_touch_Processing.c **** *
 543:Generated_Source\PSoC4/key_touch_Processing.c **** * \details
 544:Generated_Source\PSoC4/key_touch_Processing.c **** *   Performs customized processing of the CSX sensor raw counts.
 545:Generated_Source\PSoC4/key_touch_Processing.c **** *
 546:Generated_Source\PSoC4/key_touch_Processing.c **** *   If all bits are set at once the default processing order will take place.
 547:Generated_Source\PSoC4/key_touch_Processing.c **** *   For the custom order this API can be called multiple times and execute one task at a time.
 548:Generated_Source\PSoC4/key_touch_Processing.c **** *
 549:Generated_Source\PSoC4/key_touch_Processing.c **** * \param ptrFlashWdgt The pointer to the Flash Widget Object.
 550:Generated_Source\PSoC4/key_touch_Processing.c **** * \param ptrSns       The pointer to the specific RAM Sensor Object.
 551:Generated_Source\PSoC4/key_touch_Processing.c **** * \param fltrHistV    The pointer to the Filter History Object in RAM associated with specific sens
 552:Generated_Source\PSoC4/key_touch_Processing.c **** * \param mode         The bit-mask with the data processing tasks to be executed.
 553:Generated_Source\PSoC4/key_touch_Processing.c **** *   The mode parameters can take the following values:
 554:Generated_Source\PSoC4/key_touch_Processing.c **** *    - key_touch_PROCESS_FILTER     (0x01) Run Firmware Filter
ARM GAS  C:\Users\Administrator\AppData\Local\Temp\ccWuKATu.s 			page 13


 555:Generated_Source\PSoC4/key_touch_Processing.c **** *    - key_touch_PROCESS_BASELINE   (0x02) Update Baselines
 556:Generated_Source\PSoC4/key_touch_Processing.c **** *    - key_touch_PROCESS_DIFFCOUNTS (0x04) Update Difference Counts
 557:Generated_Source\PSoC4/key_touch_Processing.c **** *    - key_touch_PROCESS_ALL               Execute all tasks
 558:Generated_Source\PSoC4/key_touch_Processing.c **** *
 559:Generated_Source\PSoC4/key_touch_Processing.c **** * \return   
 560:Generated_Source\PSoC4/key_touch_Processing.c **** *  Returns the status of the specified sensor processing operation:
 561:Generated_Source\PSoC4/key_touch_Processing.c **** *  - CYRET_SUCCESS if operation was successfully completed;
 562:Generated_Source\PSoC4/key_touch_Processing.c **** *  - key_touch_PROCESS_BASELINE_FAILED if baseline processing of any 
 563:Generated_Source\PSoC4/key_touch_Processing.c **** *    sensor of the specified widget failed. The result is concatenated with the index
 564:Generated_Source\PSoC4/key_touch_Processing.c **** *    of failed sensor.
 565:Generated_Source\PSoC4/key_touch_Processing.c **** *
 566:Generated_Source\PSoC4/key_touch_Processing.c **** *******************************************************************************/
 567:Generated_Source\PSoC4/key_touch_Processing.c **** uint32 key_touch_DpProcessCsxSensorRawCountsExt(
 568:Generated_Source\PSoC4/key_touch_Processing.c ****                 key_touch_FLASH_WD_STRUCT const *ptrFlashWdgt,
 569:Generated_Source\PSoC4/key_touch_Processing.c ****                 key_touch_RAM_SNS_STRUCT *ptrSns,
 570:Generated_Source\PSoC4/key_touch_Processing.c ****                 key_touch_PTR_FILTER_VARIANT fltrHistV,
 571:Generated_Source\PSoC4/key_touch_Processing.c ****                 uint32 mode)
 572:Generated_Source\PSoC4/key_touch_Processing.c **** {
 573:Generated_Source\PSoC4/key_touch_Processing.c ****     uint32  result = CYRET_SUCCESS;
 574:Generated_Source\PSoC4/key_touch_Processing.c ****     uint32  widgetType;
 575:Generated_Source\PSoC4/key_touch_Processing.c ****     key_touch_RAM_WD_BASE_STRUCT *ptrRamWdgt;
 576:Generated_Source\PSoC4/key_touch_Processing.c **** 
 577:Generated_Source\PSoC4/key_touch_Processing.c ****     widgetType = ptrFlashWdgt->wdgtType;
 578:Generated_Source\PSoC4/key_touch_Processing.c ****     ptrRamWdgt = ptrFlashWdgt->ptr2WdgtRam;
 579:Generated_Source\PSoC4/key_touch_Processing.c ****     
 580:Generated_Source\PSoC4/key_touch_Processing.c ****     #if (0u != DP_FW_FILTER_EN)
 581:Generated_Source\PSoC4/key_touch_Processing.c ****         if (0u != (mode & key_touch_PROCESS_FILTER))
 582:Generated_Source\PSoC4/key_touch_Processing.c ****         {
 583:Generated_Source\PSoC4/key_touch_Processing.c ****             key_touch_FtRunEnabledFiltersInternal(fltrHistV, ptrSns, widgetType);
 584:Generated_Source\PSoC4/key_touch_Processing.c ****         }
 585:Generated_Source\PSoC4/key_touch_Processing.c ****     #else
 586:Generated_Source\PSoC4/key_touch_Processing.c ****         (void)fltrHistV; /* This parameter is unused in such configurations */
 587:Generated_Source\PSoC4/key_touch_Processing.c ****     #endif /* #if (0u != DP_FW_FILTER_EN) */
 588:Generated_Source\PSoC4/key_touch_Processing.c **** 
 589:Generated_Source\PSoC4/key_touch_Processing.c ****     if (0u != (mode & key_touch_PROCESS_BASELINE))
 590:Generated_Source\PSoC4/key_touch_Processing.c ****     {
 591:Generated_Source\PSoC4/key_touch_Processing.c ****         result = key_touch_FtUpdateBaseline(ptrRamWdgt, ptrSns, widgetType);
 592:Generated_Source\PSoC4/key_touch_Processing.c ****     }
 593:Generated_Source\PSoC4/key_touch_Processing.c **** 
 594:Generated_Source\PSoC4/key_touch_Processing.c ****     if (0u != (mode & key_touch_PROCESS_DIFFCOUNTS))
 595:Generated_Source\PSoC4/key_touch_Processing.c ****     {
 596:Generated_Source\PSoC4/key_touch_Processing.c ****         key_touch_DpUpdateDifferences(ptrRamWdgt, ptrSns);
 597:Generated_Source\PSoC4/key_touch_Processing.c ****     }
 598:Generated_Source\PSoC4/key_touch_Processing.c ****     return result;
 599:Generated_Source\PSoC4/key_touch_Processing.c **** }
 600:Generated_Source\PSoC4/key_touch_Processing.c **** 
 601:Generated_Source\PSoC4/key_touch_Processing.c **** 
 602:Generated_Source\PSoC4/key_touch_Processing.c **** /*******************************************************************************
 603:Generated_Source\PSoC4/key_touch_Processing.c **** * Function Name: key_touch_DpProcessCsxWidgetStatus
 604:Generated_Source\PSoC4/key_touch_Processing.c **** ****************************************************************************//**
 605:Generated_Source\PSoC4/key_touch_Processing.c **** *
 606:Generated_Source\PSoC4/key_touch_Processing.c **** * \brief
 607:Generated_Source\PSoC4/key_touch_Processing.c **** *   Updates the status of the CSX widget in the Data Structure.
 608:Generated_Source\PSoC4/key_touch_Processing.c **** *
 609:Generated_Source\PSoC4/key_touch_Processing.c **** * \details
 610:Generated_Source\PSoC4/key_touch_Processing.c **** *  This API determines the type of widget and runs the appropriate function
 611:Generated_Source\PSoC4/key_touch_Processing.c **** *  that implements the status update algorithm for this type of widget.
ARM GAS  C:\Users\Administrator\AppData\Local\Temp\ccWuKATu.s 			page 14


 612:Generated_Source\PSoC4/key_touch_Processing.c **** *
 613:Generated_Source\PSoC4/key_touch_Processing.c **** *  When the widget-specific processing completes this API updates the snsStatus
 614:Generated_Source\PSoC4/key_touch_Processing.c **** *  and wdgtStatus registers in the data structure. The wdgtStatus register
 615:Generated_Source\PSoC4/key_touch_Processing.c **** *  is a bitmask were each bit corresponds to the specific widget identified by
 616:Generated_Source\PSoC4/key_touch_Processing.c **** *  the widget index. When the bit is set the widget is active (touched);
 617:Generated_Source\PSoC4/key_touch_Processing.c **** *
 618:Generated_Source\PSoC4/key_touch_Processing.c **** *  Depending on the type of widget the snsStatus register may contain either
 619:Generated_Source\PSoC4/key_touch_Processing.c **** *  status of each widget node (active/non-active) or in case of the CSX Touchpad
 620:Generated_Source\PSoC4/key_touch_Processing.c **** *  is contains the number of touches. In both cases 0 means that widget is not
 621:Generated_Source\PSoC4/key_touch_Processing.c **** *  active.
 622:Generated_Source\PSoC4/key_touch_Processing.c **** *
 623:Generated_Source\PSoC4/key_touch_Processing.c **** * \param wdgtId       The widget index number.
 624:Generated_Source\PSoC4/key_touch_Processing.c **** * \param ptrFlashWdgt The pointer to the Flash Widget Object.
 625:Generated_Source\PSoC4/key_touch_Processing.c **** *
 626:Generated_Source\PSoC4/key_touch_Processing.c **** *******************************************************************************/
 627:Generated_Source\PSoC4/key_touch_Processing.c **** void key_touch_DpProcessCsxWidgetStatus(uint32 wdgtId, key_touch_FLASH_WD_STRUCT const *ptrFlashWdg
 628:Generated_Source\PSoC4/key_touch_Processing.c **** {
 629:Generated_Source\PSoC4/key_touch_Processing.c ****     uint32 sensorStatus;
 630:Generated_Source\PSoC4/key_touch_Processing.c ****     uint32 wdStatusIndex;
 631:Generated_Source\PSoC4/key_touch_Processing.c ****     uint32 wdStatusMask;
 632:Generated_Source\PSoC4/key_touch_Processing.c ****     key_touch_WD_TYPE_ENUM widgetType;
 633:Generated_Source\PSoC4/key_touch_Processing.c **** 
 634:Generated_Source\PSoC4/key_touch_Processing.c ****     widgetType = (key_touch_WD_TYPE_ENUM)ptrFlashWdgt->wdgtType;
 635:Generated_Source\PSoC4/key_touch_Processing.c ****     sensorStatus = key_touch_dsRam.snsStatus[wdgtId];
 636:Generated_Source\PSoC4/key_touch_Processing.c **** 
 637:Generated_Source\PSoC4/key_touch_Processing.c ****     switch (widgetType)
 638:Generated_Source\PSoC4/key_touch_Processing.c ****     {
 639:Generated_Source\PSoC4/key_touch_Processing.c ****     #if (0u != key_touch_BUTTON_WIDGET_EN)
 640:Generated_Source\PSoC4/key_touch_Processing.c ****         case key_touch_WD_BUTTON_E:
 641:Generated_Source\PSoC4/key_touch_Processing.c ****             sensorStatus = key_touch_DpProcessButton(sensorStatus, ptrFlashWdgt);
 642:Generated_Source\PSoC4/key_touch_Processing.c ****             break;
 643:Generated_Source\PSoC4/key_touch_Processing.c ****     #endif /* #if (0u != key_touch_BUTTON_WIDGET_EN) */
 644:Generated_Source\PSoC4/key_touch_Processing.c **** 
 645:Generated_Source\PSoC4/key_touch_Processing.c ****     #if (0u != key_touch_CSX_MATRIX_WIDGET_EN)
 646:Generated_Source\PSoC4/key_touch_Processing.c ****         case key_touch_WD_MATRIX_BUTTON_E:
 647:Generated_Source\PSoC4/key_touch_Processing.c ****             sensorStatus = key_touch_DpProcessButton(sensorStatus, ptrFlashWdgt);
 648:Generated_Source\PSoC4/key_touch_Processing.c ****             break;
 649:Generated_Source\PSoC4/key_touch_Processing.c ****     #endif /* #if (0u != key_touch_CSX_MATRIX_WIDGET_EN) */
 650:Generated_Source\PSoC4/key_touch_Processing.c **** 
 651:Generated_Source\PSoC4/key_touch_Processing.c ****     #if (0u != key_touch_CSX_TOUCHPAD_WIDGET_EN)
 652:Generated_Source\PSoC4/key_touch_Processing.c ****         case key_touch_WD_TOUCHPAD_E:
 653:Generated_Source\PSoC4/key_touch_Processing.c ****             sensorStatus = key_touch_DpProcessCsxTouchpad(sensorStatus, ptrFlashWdgt);
 654:Generated_Source\PSoC4/key_touch_Processing.c ****             break;
 655:Generated_Source\PSoC4/key_touch_Processing.c ****     #endif /* #if (0u != key_touch_CSX_TOUCHPAD_WIDGET_EN) */
 656:Generated_Source\PSoC4/key_touch_Processing.c **** 
 657:Generated_Source\PSoC4/key_touch_Processing.c ****     default:
 658:Generated_Source\PSoC4/key_touch_Processing.c ****         CYASSERT(0u);
 659:Generated_Source\PSoC4/key_touch_Processing.c ****         break;
 660:Generated_Source\PSoC4/key_touch_Processing.c ****     }
 661:Generated_Source\PSoC4/key_touch_Processing.c **** 
 662:Generated_Source\PSoC4/key_touch_Processing.c ****     /* Update sensor status in the data structure */
 663:Generated_Source\PSoC4/key_touch_Processing.c ****     key_touch_dsRam.snsStatus[wdgtId] = (key_touch_SNS_STS_TYPE)sensorStatus;
 664:Generated_Source\PSoC4/key_touch_Processing.c **** 
 665:Generated_Source\PSoC4/key_touch_Processing.c ****     /* The next two lines calculate index and bitmask of the widget status bit in the wdgtStatus ar
 666:Generated_Source\PSoC4/key_touch_Processing.c ****     wdStatusIndex = key_touch_GET_WDGT_STATUS_INDEX(wdgtId);
 667:Generated_Source\PSoC4/key_touch_Processing.c ****     wdStatusMask = key_touch_GET_WDGT_STATUS_MASK(wdgtId);
 668:Generated_Source\PSoC4/key_touch_Processing.c **** 
ARM GAS  C:\Users\Administrator\AppData\Local\Temp\ccWuKATu.s 			page 15


 669:Generated_Source\PSoC4/key_touch_Processing.c ****     /* Check if there are active sensors and update widget status accordingly */
 670:Generated_Source\PSoC4/key_touch_Processing.c ****     if (0u == sensorStatus)
 671:Generated_Source\PSoC4/key_touch_Processing.c ****     {
 672:Generated_Source\PSoC4/key_touch_Processing.c ****         key_touch_dsRam.wdgtStatus[wdStatusIndex] &= ~wdStatusMask;
 673:Generated_Source\PSoC4/key_touch_Processing.c ****     }
 674:Generated_Source\PSoC4/key_touch_Processing.c ****     else
 675:Generated_Source\PSoC4/key_touch_Processing.c ****     {
 676:Generated_Source\PSoC4/key_touch_Processing.c ****         key_touch_dsRam.wdgtStatus[wdStatusIndex] |= wdStatusMask;
 677:Generated_Source\PSoC4/key_touch_Processing.c ****     }
 678:Generated_Source\PSoC4/key_touch_Processing.c **** }
 679:Generated_Source\PSoC4/key_touch_Processing.c **** #endif /* #if key_touch_TOTAL_CSX_WIDGETS */
 680:Generated_Source\PSoC4/key_touch_Processing.c **** 
 681:Generated_Source\PSoC4/key_touch_Processing.c **** #if (0u != key_touch_TOTAL_CSD_WIDGETS)
 682:Generated_Source\PSoC4/key_touch_Processing.c **** /*******************************************************************************
 683:Generated_Source\PSoC4/key_touch_Processing.c **** * Function Name: key_touch_DpProcessCsdWidgetRawCounts
 684:Generated_Source\PSoC4/key_touch_Processing.c **** ****************************************************************************//**
 685:Generated_Source\PSoC4/key_touch_Processing.c **** *
 686:Generated_Source\PSoC4/key_touch_Processing.c **** * \brief
 687:Generated_Source\PSoC4/key_touch_Processing.c **** *   Performs default processing for the CSD widget raw counts.
 688:Generated_Source\PSoC4/key_touch_Processing.c **** *
 689:Generated_Source\PSoC4/key_touch_Processing.c **** * \details
 690:Generated_Source\PSoC4/key_touch_Processing.c **** *   Performs default processing for the CSD widget raw counts:
 691:Generated_Source\PSoC4/key_touch_Processing.c **** *    - Run Filters
 692:Generated_Source\PSoC4/key_touch_Processing.c **** *    - Update Thresholds (FW Auto-tuning)
 693:Generated_Source\PSoC4/key_touch_Processing.c **** *    - Update Baselines
 694:Generated_Source\PSoC4/key_touch_Processing.c **** *    - Update Differences.
 695:Generated_Source\PSoC4/key_touch_Processing.c **** *   The process is applied to all widget's sensors.
 696:Generated_Source\PSoC4/key_touch_Processing.c **** *
 697:Generated_Source\PSoC4/key_touch_Processing.c **** * \param ptrFlashWdgt The pointer to the Flash Widget Object.
 698:Generated_Source\PSoC4/key_touch_Processing.c **** *
 699:Generated_Source\PSoC4/key_touch_Processing.c **** * \return   
 700:Generated_Source\PSoC4/key_touch_Processing.c **** *  Returns the status of the specified widget processing operation:
 701:Generated_Source\PSoC4/key_touch_Processing.c **** *  - CYRET_SUCCESS if operation was successfully completed;
 702:Generated_Source\PSoC4/key_touch_Processing.c **** *  - key_touch_PROCESS_BASELINE_FAILED if baseline processing of any 
 703:Generated_Source\PSoC4/key_touch_Processing.c **** *    sensor of the specified widget failed. The result is concatenated with the index
 704:Generated_Source\PSoC4/key_touch_Processing.c **** *    of failed sensor.
 705:Generated_Source\PSoC4/key_touch_Processing.c **** *
 706:Generated_Source\PSoC4/key_touch_Processing.c **** *******************************************************************************/
 707:Generated_Source\PSoC4/key_touch_Processing.c **** uint32 key_touch_DpProcessCsdWidgetRawCounts(key_touch_FLASH_WD_STRUCT const *ptrFlashWdgt)
 708:Generated_Source\PSoC4/key_touch_Processing.c **** {
 709:Generated_Source\PSoC4/key_touch_Processing.c ****     uint32  result = CYRET_SUCCESS;
 710:Generated_Source\PSoC4/key_touch_Processing.c ****     
 711:Generated_Source\PSoC4/key_touch_Processing.c ****     #if (key_touch_ENABLE == key_touch_TST_BSLN_DUPLICATION_EN)    
 712:Generated_Source\PSoC4/key_touch_Processing.c ****         uint32 bslnTstResult = CYRET_SUCCESS;
 713:Generated_Source\PSoC4/key_touch_Processing.c ****     #endif /* (key_touch_ENABLE == key_touch_TST_BSLN_DUPLICATION_EN) */
 714:Generated_Source\PSoC4/key_touch_Processing.c **** 
 715:Generated_Source\PSoC4/key_touch_Processing.c ****     uint32  widgetType;
 716:Generated_Source\PSoC4/key_touch_Processing.c ****     uint32  snsId;
 717:Generated_Source\PSoC4/key_touch_Processing.c ****     key_touch_RAM_SNS_STRUCT *ptrSns;
 718:Generated_Source\PSoC4/key_touch_Processing.c ****     key_touch_RAM_WD_BASE_STRUCT *ptrRamWdgt;
 719:Generated_Source\PSoC4/key_touch_Processing.c **** 
 720:Generated_Source\PSoC4/key_touch_Processing.c ****     #if (0u != (key_touch_CSD_AUTOTUNE & key_touch_CSD_SS_TH_EN))
 721:Generated_Source\PSoC4/key_touch_Processing.c ****         /* The noise envelope data is available only when Full CSD Auto-Tuning is enabled */
 722:Generated_Source\PSoC4/key_touch_Processing.c ****         SMARTSENSE_CSD_NOISE_ENVELOPE_STRUCT *ptrNoiseEnvelope;
 723:Generated_Source\PSoC4/key_touch_Processing.c ****         #if (key_touch_ENABLE == key_touch_PROXIMITY_WIDGET_EN)
 724:Generated_Source\PSoC4/key_touch_Processing.c ****             uint32  proximityThreshold;
 725:Generated_Source\PSoC4/key_touch_Processing.c ****         #endif /* (0 != key_touch_PROXIMITY_WIDGET_EN) */
ARM GAS  C:\Users\Administrator\AppData\Local\Temp\ccWuKATu.s 			page 16


 726:Generated_Source\PSoC4/key_touch_Processing.c ****     #endif /* #if (0u != (key_touch_CSD_AUTOTUNE & key_touch_CSD_SS_TH_EN)) */
 727:Generated_Source\PSoC4/key_touch_Processing.c **** 
 728:Generated_Source\PSoC4/key_touch_Processing.c ****     #if (0u != DP_FW_FILTER_EN)
 729:Generated_Source\PSoC4/key_touch_Processing.c ****         key_touch_PTR_FILTER_VARIANT fltrHistV;
 730:Generated_Source\PSoC4/key_touch_Processing.c ****     
 731:Generated_Source\PSoC4/key_touch_Processing.c ****         /* Determine if widget type is proximity */
 732:Generated_Source\PSoC4/key_touch_Processing.c ****         uint32 isProxWdgt = 
 733:Generated_Source\PSoC4/key_touch_Processing.c ****                     (key_touch_GET_WIDGET_TYPE(ptrFlashWdgt) == key_touch_WD_PROXIMITY_E) ? 1u : 0u
 734:Generated_Source\PSoC4/key_touch_Processing.c ****                     
 735:Generated_Source\PSoC4/key_touch_Processing.c ****         /* Get pointer to the filter history object */
 736:Generated_Source\PSoC4/key_touch_Processing.c ****         fltrHistV.ptr = ptrFlashWdgt->ptr2FltrHistory;
 737:Generated_Source\PSoC4/key_touch_Processing.c ****     #endif /* #if (0u != DP_FW_FILTER_EN) */
 738:Generated_Source\PSoC4/key_touch_Processing.c ****     
 739:Generated_Source\PSoC4/key_touch_Processing.c ****     ptrSns = ptrFlashWdgt->ptr2SnsRam;
 740:Generated_Source\PSoC4/key_touch_Processing.c ****     ptrRamWdgt = ptrFlashWdgt->ptr2WdgtRam;
 741:Generated_Source\PSoC4/key_touch_Processing.c ****     widgetType = ptrFlashWdgt->wdgtType;
 742:Generated_Source\PSoC4/key_touch_Processing.c **** 
 743:Generated_Source\PSoC4/key_touch_Processing.c ****     #if (0u != (key_touch_CSD_AUTOTUNE & key_touch_CSD_SS_TH_EN))
 744:Generated_Source\PSoC4/key_touch_Processing.c ****         ptrNoiseEnvelope = ptrFlashWdgt->ptr2NoiseEnvlp;
 745:Generated_Source\PSoC4/key_touch_Processing.c ****     #endif /* #if (0u != (key_touch_CSD_AUTOTUNE & key_touch_CSD_SS_TH_EN)) */
 746:Generated_Source\PSoC4/key_touch_Processing.c **** 
 747:Generated_Source\PSoC4/key_touch_Processing.c ****     /* Iterate through all widget's sensors */
 748:Generated_Source\PSoC4/key_touch_Processing.c ****     for(snsId = 0u; snsId < ptrFlashWdgt->totalNumSns; snsId++)
 749:Generated_Source\PSoC4/key_touch_Processing.c ****     {
 750:Generated_Source\PSoC4/key_touch_Processing.c ****         /* Run all enabled filter on specified widget's sensor */
 751:Generated_Source\PSoC4/key_touch_Processing.c ****         #if (0u != DP_FW_FILTER_EN)
 752:Generated_Source\PSoC4/key_touch_Processing.c ****             key_touch_FtRunEnabledFiltersInternal(fltrHistV, ptrSns, widgetType);
 753:Generated_Source\PSoC4/key_touch_Processing.c ****         #endif /* #if (0u != DP_FW_FILTER_EN) */
 754:Generated_Source\PSoC4/key_touch_Processing.c **** 
 755:Generated_Source\PSoC4/key_touch_Processing.c ****         /* Run auto-tuning activities */
 756:Generated_Source\PSoC4/key_touch_Processing.c ****         #if (0u != (key_touch_CSD_AUTOTUNE & key_touch_CSD_SS_TH_EN))
 757:Generated_Source\PSoC4/key_touch_Processing.c ****             SmartSense_RunNoiseEnvelope(ptrSns->raw[0u], ptrRamWdgt->sigPFC, ptrNoiseEnvelope);
 758:Generated_Source\PSoC4/key_touch_Processing.c ****             key_touch_DpUpdateThresholds(ptrRamWdgt, ptrNoiseEnvelope, snsId);
 759:Generated_Source\PSoC4/key_touch_Processing.c **** 
 760:Generated_Source\PSoC4/key_touch_Processing.c ****             /* Calculate Proximity Touch Threshold in SmartSense mode based on Finger Threshold and
 761:Generated_Source\PSoC4/key_touch_Processing.c ****             #if (key_touch_ENABLE == key_touch_PROXIMITY_WIDGET_EN)
 762:Generated_Source\PSoC4/key_touch_Processing.c ****                 if (key_touch_WD_PROXIMITY_E == key_touch_GET_WIDGET_TYPE(ptrFlashWdgt))
 763:Generated_Source\PSoC4/key_touch_Processing.c ****                 {
 764:Generated_Source\PSoC4/key_touch_Processing.c ****                     proximityThreshold = ((uint32)ptrRamWdgt->fingerTh * key_touch_PROX_TOUCH_COEFF
 765:Generated_Source\PSoC4/key_touch_Processing.c ****                     if ((((1Lu) << key_touch_THRESHOLD_SIZE) - 1u) < proximityThreshold)
 766:Generated_Source\PSoC4/key_touch_Processing.c ****                     {
 767:Generated_Source\PSoC4/key_touch_Processing.c ****                         proximityThreshold = ((1Lu) << key_touch_THRESHOLD_SIZE) - 1u;
 768:Generated_Source\PSoC4/key_touch_Processing.c ****                     }
 769:Generated_Source\PSoC4/key_touch_Processing.c ****                     ((key_touch_RAM_WD_PROXIMITY_STRUCT *)ptrFlashWdgt->ptr2WdgtRam)->proxTouchTh =
 770:Generated_Source\PSoC4/key_touch_Processing.c ****                         (key_touch_THRESHOLD_TYPE)proximityThreshold;
 771:Generated_Source\PSoC4/key_touch_Processing.c ****                 }
 772:Generated_Source\PSoC4/key_touch_Processing.c ****             #endif /* (0 != key_touch_PROXIMITY_WIDGET_EN) */
 773:Generated_Source\PSoC4/key_touch_Processing.c ****             
 774:Generated_Source\PSoC4/key_touch_Processing.c ****             /* Move to next noise-envelope object */
 775:Generated_Source\PSoC4/key_touch_Processing.c ****             ptrNoiseEnvelope++;
 776:Generated_Source\PSoC4/key_touch_Processing.c ****         #endif /* (0u != (key_touch_CSD_AUTOTUNE & key_touch_CSD_SS_TH_EN)) */
 777:Generated_Source\PSoC4/key_touch_Processing.c **** 
 778:Generated_Source\PSoC4/key_touch_Processing.c ****         #if (key_touch_ENABLE == key_touch_TST_BSLN_DUPLICATION_EN)
 779:Generated_Source\PSoC4/key_touch_Processing.c ****             bslnTstResult = key_touch_FtUpdateBaseline(ptrRamWdgt, ptrSns, widgetType);
 780:Generated_Source\PSoC4/key_touch_Processing.c ****             if (CYRET_SUCCESS != bslnTstResult)
 781:Generated_Source\PSoC4/key_touch_Processing.c ****             {
 782:Generated_Source\PSoC4/key_touch_Processing.c ****                 if (CYRET_SUCCESS == result)
ARM GAS  C:\Users\Administrator\AppData\Local\Temp\ccWuKATu.s 			page 17


 783:Generated_Source\PSoC4/key_touch_Processing.c ****                 {
 784:Generated_Source\PSoC4/key_touch_Processing.c ****                     result = snsId | key_touch_PROCESS_BASELINE_FAILED;
 785:Generated_Source\PSoC4/key_touch_Processing.c ****                 }
 786:Generated_Source\PSoC4/key_touch_Processing.c ****             }
 787:Generated_Source\PSoC4/key_touch_Processing.c ****         #else /* (key_touch_ENABLE == key_touch_TST_BSLN_DUPLICATION_EN) */
 788:Generated_Source\PSoC4/key_touch_Processing.c ****             result = key_touch_FtUpdateBaseline(ptrRamWdgt, ptrSns, widgetType);
 789:Generated_Source\PSoC4/key_touch_Processing.c ****         #endif /* (key_touch_ENABLE == key_touch_TST_BSLN_DUPLICATION_EN) */
 790:Generated_Source\PSoC4/key_touch_Processing.c **** 
 791:Generated_Source\PSoC4/key_touch_Processing.c ****         key_touch_DpUpdateDifferences(ptrRamWdgt, ptrSns);
 792:Generated_Source\PSoC4/key_touch_Processing.c **** 
 793:Generated_Source\PSoC4/key_touch_Processing.c ****         /* Move to next sensor object */
 794:Generated_Source\PSoC4/key_touch_Processing.c ****         ptrSns++;
 795:Generated_Source\PSoC4/key_touch_Processing.c **** 
 796:Generated_Source\PSoC4/key_touch_Processing.c ****         #if (0u != DP_FW_FILTER_EN)
 797:Generated_Source\PSoC4/key_touch_Processing.c ****             /* Move to the next filter history object */
 798:Generated_Source\PSoC4/key_touch_Processing.c ****             key_touch_INC_FLTR_OBJ_VARIANT(isProxWdgt, fltrHistV);
 799:Generated_Source\PSoC4/key_touch_Processing.c ****         #endif /* #if (0u != DP_FW_FILTER_EN) */
 800:Generated_Source\PSoC4/key_touch_Processing.c ****     }
 801:Generated_Source\PSoC4/key_touch_Processing.c ****     return result;
 802:Generated_Source\PSoC4/key_touch_Processing.c **** }
 803:Generated_Source\PSoC4/key_touch_Processing.c **** 
 804:Generated_Source\PSoC4/key_touch_Processing.c **** 
 805:Generated_Source\PSoC4/key_touch_Processing.c **** /*******************************************************************************
 806:Generated_Source\PSoC4/key_touch_Processing.c **** * Function Name: key_touch_DpProcessCsdSensorRawCountsExt
 807:Generated_Source\PSoC4/key_touch_Processing.c **** ****************************************************************************//**
 808:Generated_Source\PSoC4/key_touch_Processing.c **** *
 809:Generated_Source\PSoC4/key_touch_Processing.c **** * \brief
 810:Generated_Source\PSoC4/key_touch_Processing.c **** *   Performs customized processing of the CSD sensor raw counts.
 811:Generated_Source\PSoC4/key_touch_Processing.c **** *
 812:Generated_Source\PSoC4/key_touch_Processing.c **** * \details
 813:Generated_Source\PSoC4/key_touch_Processing.c **** *   Performs customized processing of the CSD sensor raw counts.
 814:Generated_Source\PSoC4/key_touch_Processing.c **** *
 815:Generated_Source\PSoC4/key_touch_Processing.c **** *   Note that this API updates data associated only with the sensor. It cannot be used to update
 816:Generated_Source\PSoC4/key_touch_Processing.c **** *   widget status.
 817:Generated_Source\PSoC4/key_touch_Processing.c **** *
 818:Generated_Source\PSoC4/key_touch_Processing.c **** * \param ptrFlashWdgt The pointer to the Flash widget structure.
 819:Generated_Source\PSoC4/key_touch_Processing.c **** * \param ptrSns       The pointer to the sensor object in RAM.
 820:Generated_Source\PSoC4/key_touch_Processing.c **** * \param fltrHistV    The pointer to the Filter History Object in RAM.
 821:Generated_Source\PSoC4/key_touch_Processing.c **** * \param mode         The bit-mask with the data processing tasks to be executed.
 822:Generated_Source\PSoC4/key_touch_Processing.c **** *   The mode parameters can take the following values:
 823:Generated_Source\PSoC4/key_touch_Processing.c **** *    - key_touch_PROCESS_FILTER     (0x01) Run Firmware Filter
 824:Generated_Source\PSoC4/key_touch_Processing.c **** *    - key_touch_PROCESS_BASELINE   (0x02) Update Baselines
 825:Generated_Source\PSoC4/key_touch_Processing.c **** *    - key_touch_PROCESS_DIFFCOUNTS (0x04) Update Difference Counts
 826:Generated_Source\PSoC4/key_touch_Processing.c **** *    - key_touch_PROCESS_CALC_NOISE (0x08) Calculate Noise (only if FW Tuning is enabled)
 827:Generated_Source\PSoC4/key_touch_Processing.c **** *    - key_touch_PROCESS_THRESHOLDS (0x10) Update Thresholds (only if FW Tuning is enabled)
 828:Generated_Source\PSoC4/key_touch_Processing.c **** *    - key_touch_PROCESS_ALL               Execute all tasks
 829:Generated_Source\PSoC4/key_touch_Processing.c **** *
 830:Generated_Source\PSoC4/key_touch_Processing.c **** * \return   
 831:Generated_Source\PSoC4/key_touch_Processing.c **** *  Returns the status of the specified sensor processing operation:
 832:Generated_Source\PSoC4/key_touch_Processing.c **** *  - CYRET_SUCCESS if operation was successfully completed;
 833:Generated_Source\PSoC4/key_touch_Processing.c **** *  - key_touch_PROCESS_BASELINE_FAILED if baseline processing of any 
 834:Generated_Source\PSoC4/key_touch_Processing.c **** *    sensor of the specified widget failed. The result is concatenated with the index
 835:Generated_Source\PSoC4/key_touch_Processing.c **** *    of failed sensor.
 836:Generated_Source\PSoC4/key_touch_Processing.c **** *
 837:Generated_Source\PSoC4/key_touch_Processing.c **** *******************************************************************************/
 838:Generated_Source\PSoC4/key_touch_Processing.c **** uint32 key_touch_DpProcessCsdSensorRawCountsExt(
 839:Generated_Source\PSoC4/key_touch_Processing.c ****                 key_touch_FLASH_WD_STRUCT const *ptrFlashWdgt,
ARM GAS  C:\Users\Administrator\AppData\Local\Temp\ccWuKATu.s 			page 18


 840:Generated_Source\PSoC4/key_touch_Processing.c ****                 key_touch_RAM_SNS_STRUCT *ptrSns,
 841:Generated_Source\PSoC4/key_touch_Processing.c ****                 key_touch_PTR_FILTER_VARIANT fltrHistV,
 842:Generated_Source\PSoC4/key_touch_Processing.c ****                  uint32 mode)
 843:Generated_Source\PSoC4/key_touch_Processing.c **** {
 844:Generated_Source\PSoC4/key_touch_Processing.c ****     uint32 result = CYRET_SUCCESS;
 845:Generated_Source\PSoC4/key_touch_Processing.c ****     uint32  widgetType;
 846:Generated_Source\PSoC4/key_touch_Processing.c ****     key_touch_RAM_WD_BASE_STRUCT *ptrRamWdgt;
 847:Generated_Source\PSoC4/key_touch_Processing.c **** 
 848:Generated_Source\PSoC4/key_touch_Processing.c ****     #if (0u != (key_touch_CSD_AUTOTUNE & key_touch_CSD_SS_TH_EN))
 849:Generated_Source\PSoC4/key_touch_Processing.c ****         SMARTSENSE_CSD_NOISE_ENVELOPE_STRUCT *ptrNoiseEnvelope;
 850:Generated_Source\PSoC4/key_touch_Processing.c ****         #if (key_touch_ENABLE == key_touch_PROXIMITY_WIDGET_EN)
 851:Generated_Source\PSoC4/key_touch_Processing.c ****             uint32  proximityThreshold;
 852:Generated_Source\PSoC4/key_touch_Processing.c ****         #endif /* (0 != key_touch_PROXIMITY_WIDGET_EN) */
 853:Generated_Source\PSoC4/key_touch_Processing.c **** 
 854:Generated_Source\PSoC4/key_touch_Processing.c ****         /* Need to specify pointer to corresponding sensor's noise-envelope object.*/
 855:Generated_Source\PSoC4/key_touch_Processing.c ****         ptrNoiseEnvelope = ptrFlashWdgt->ptr2NoiseEnvlp;
 856:Generated_Source\PSoC4/key_touch_Processing.c ****     #endif /* (0u != (key_touch_CSD_AUTOTUNE & key_touch_CSD_SS_TH_EN)) */
 857:Generated_Source\PSoC4/key_touch_Processing.c **** 
 858:Generated_Source\PSoC4/key_touch_Processing.c ****     widgetType = ptrFlashWdgt->wdgtType;
 859:Generated_Source\PSoC4/key_touch_Processing.c ****     ptrRamWdgt = ptrFlashWdgt->ptr2WdgtRam;
 860:Generated_Source\PSoC4/key_touch_Processing.c **** 
 861:Generated_Source\PSoC4/key_touch_Processing.c ****     #if (0u != DP_FW_FILTER_EN)
 862:Generated_Source\PSoC4/key_touch_Processing.c ****         if (0u != (mode & key_touch_PROCESS_FILTER))
 863:Generated_Source\PSoC4/key_touch_Processing.c ****         {
 864:Generated_Source\PSoC4/key_touch_Processing.c ****             key_touch_FtRunEnabledFiltersInternal(fltrHistV, ptrSns, widgetType);
 865:Generated_Source\PSoC4/key_touch_Processing.c ****         }
 866:Generated_Source\PSoC4/key_touch_Processing.c ****     #else
 867:Generated_Source\PSoC4/key_touch_Processing.c ****         (void)fltrHistV; /* This parameter is unused in such configurations */
 868:Generated_Source\PSoC4/key_touch_Processing.c ****     #endif /* #if (0u != DP_FW_FILTER_EN) */
 869:Generated_Source\PSoC4/key_touch_Processing.c **** 
 870:Generated_Source\PSoC4/key_touch_Processing.c ****     #if (0u != (key_touch_CSD_AUTOTUNE & key_touch_CSD_SS_TH_EN))
 871:Generated_Source\PSoC4/key_touch_Processing.c ****         if (0u != (mode & key_touch_PROCESS_CALC_NOISE))
 872:Generated_Source\PSoC4/key_touch_Processing.c ****         {
 873:Generated_Source\PSoC4/key_touch_Processing.c ****             SmartSense_RunNoiseEnvelope(ptrSns->raw[0u], ptrRamWdgt->sigPFC, ptrNoiseEnvelope);
 874:Generated_Source\PSoC4/key_touch_Processing.c ****         }
 875:Generated_Source\PSoC4/key_touch_Processing.c **** 
 876:Generated_Source\PSoC4/key_touch_Processing.c ****         if (0u != (mode & key_touch_PROCESS_THRESHOLDS))
 877:Generated_Source\PSoC4/key_touch_Processing.c ****         {            
 878:Generated_Source\PSoC4/key_touch_Processing.c ****             key_touch_DpUpdateThresholds(ptrRamWdgt, ptrNoiseEnvelope, 0u);
 879:Generated_Source\PSoC4/key_touch_Processing.c ****             
 880:Generated_Source\PSoC4/key_touch_Processing.c ****             /* Calculate Proximity Touch Threshold in SmartSense mode based on Finger Threshold and
 881:Generated_Source\PSoC4/key_touch_Processing.c ****             #if (key_touch_ENABLE == key_touch_PROXIMITY_WIDGET_EN)
 882:Generated_Source\PSoC4/key_touch_Processing.c ****                 if (key_touch_WD_PROXIMITY_E == key_touch_GET_WIDGET_TYPE(ptrFlashWdgt))
 883:Generated_Source\PSoC4/key_touch_Processing.c ****                 {
 884:Generated_Source\PSoC4/key_touch_Processing.c ****                     proximityThreshold = ((uint32)ptrRamWdgt->fingerTh * key_touch_PROX_TOUCH_COEFF
 885:Generated_Source\PSoC4/key_touch_Processing.c ****                     if ((((1Lu) << key_touch_THRESHOLD_SIZE) - 1u) < proximityThreshold)
 886:Generated_Source\PSoC4/key_touch_Processing.c ****                     {
 887:Generated_Source\PSoC4/key_touch_Processing.c ****                         proximityThreshold = ((1Lu) << key_touch_THRESHOLD_SIZE) - 1u;
 888:Generated_Source\PSoC4/key_touch_Processing.c ****                     }
 889:Generated_Source\PSoC4/key_touch_Processing.c ****                     ((key_touch_RAM_WD_PROXIMITY_STRUCT *)ptrFlashWdgt->ptr2WdgtRam)->proxTouchTh =
 890:Generated_Source\PSoC4/key_touch_Processing.c ****                         (key_touch_THRESHOLD_TYPE)proximityThreshold;
 891:Generated_Source\PSoC4/key_touch_Processing.c ****                 }
 892:Generated_Source\PSoC4/key_touch_Processing.c ****             #endif /* (0 != key_touch_PROXIMITY_WIDGET_EN) */
 893:Generated_Source\PSoC4/key_touch_Processing.c ****         }
 894:Generated_Source\PSoC4/key_touch_Processing.c ****     #endif /* #if (0u != (key_touch_CSD_AUTOTUNE & key_touch_CSD_SS_TH_EN)) */
 895:Generated_Source\PSoC4/key_touch_Processing.c **** 
 896:Generated_Source\PSoC4/key_touch_Processing.c ****     if (0u != (mode & key_touch_PROCESS_BASELINE))
ARM GAS  C:\Users\Administrator\AppData\Local\Temp\ccWuKATu.s 			page 19


 897:Generated_Source\PSoC4/key_touch_Processing.c ****     {
 898:Generated_Source\PSoC4/key_touch_Processing.c ****         result = key_touch_FtUpdateBaseline(ptrRamWdgt, ptrSns, widgetType);
 899:Generated_Source\PSoC4/key_touch_Processing.c ****     }
 900:Generated_Source\PSoC4/key_touch_Processing.c **** 
 901:Generated_Source\PSoC4/key_touch_Processing.c ****     if (0u != (mode & key_touch_PROCESS_DIFFCOUNTS))
 902:Generated_Source\PSoC4/key_touch_Processing.c ****     {
 903:Generated_Source\PSoC4/key_touch_Processing.c ****         key_touch_DpUpdateDifferences(ptrRamWdgt, ptrSns);
 904:Generated_Source\PSoC4/key_touch_Processing.c ****     }
 905:Generated_Source\PSoC4/key_touch_Processing.c ****     return result;
 906:Generated_Source\PSoC4/key_touch_Processing.c **** }
 907:Generated_Source\PSoC4/key_touch_Processing.c **** 
 908:Generated_Source\PSoC4/key_touch_Processing.c **** /*******************************************************************************
 909:Generated_Source\PSoC4/key_touch_Processing.c **** * Function Name: key_touch_DpProcessCsdWidgetStatus
 910:Generated_Source\PSoC4/key_touch_Processing.c **** ****************************************************************************//**
 911:Generated_Source\PSoC4/key_touch_Processing.c **** *
 912:Generated_Source\PSoC4/key_touch_Processing.c **** * \brief
 913:Generated_Source\PSoC4/key_touch_Processing.c **** *  Runs the status processing of the CSD widget and updates it in the Data Structure.
 914:Generated_Source\PSoC4/key_touch_Processing.c **** *
 915:Generated_Source\PSoC4/key_touch_Processing.c **** * \details
 916:Generated_Source\PSoC4/key_touch_Processing.c **** *  This API determines the widget type and calls the appropriate low-level processing
 917:Generated_Source\PSoC4/key_touch_Processing.c **** *  function. Based on the returned results it updates the widget and sensor
 918:Generated_Source\PSoC4/key_touch_Processing.c **** *  status in the data structure. Any widget specific registers like the centroid
 919:Generated_Source\PSoC4/key_touch_Processing.c **** *  position are updated directly in the low-level processing function.
 920:Generated_Source\PSoC4/key_touch_Processing.c **** *
 921:Generated_Source\PSoC4/key_touch_Processing.c **** *  When the widget-specific processing completes this API updates the snsStatus
 922:Generated_Source\PSoC4/key_touch_Processing.c **** *  and wdgtStatus registers in the data structure. The wdgtStatus register
 923:Generated_Source\PSoC4/key_touch_Processing.c **** *  is a bitmask were each bit corresponds to the specific widget identified by
 924:Generated_Source\PSoC4/key_touch_Processing.c **** *  the widget index. When the bit is set the widget is active (touched);
 925:Generated_Source\PSoC4/key_touch_Processing.c **** *
 926:Generated_Source\PSoC4/key_touch_Processing.c **** *  The snsStatus register for CSD widgets contains status of each widget sensor
 927:Generated_Source\PSoC4/key_touch_Processing.c **** *  (active/non-active). Each bit corresponds to one sensor. In case of the
 928:Generated_Source\PSoC4/key_touch_Processing.c **** *  Proximity widget two bits are used per sensor: one for proximity status and
 929:Generated_Source\PSoC4/key_touch_Processing.c **** *  second for the touch status.
 930:Generated_Source\PSoC4/key_touch_Processing.c **** *
 931:Generated_Source\PSoC4/key_touch_Processing.c **** * \param wdgtId        The widget index number.
 932:Generated_Source\PSoC4/key_touch_Processing.c **** * \param ptrFlashWdgt  The pointer to the Flash widget structure.
 933:Generated_Source\PSoC4/key_touch_Processing.c **** *
 934:Generated_Source\PSoC4/key_touch_Processing.c **** *******************************************************************************/
 935:Generated_Source\PSoC4/key_touch_Processing.c **** void key_touch_DpProcessCsdWidgetStatus(uint32 wdgtId, key_touch_FLASH_WD_STRUCT const *ptrFlashWdg
 936:Generated_Source\PSoC4/key_touch_Processing.c **** {
 937:Generated_Source\PSoC4/key_touch_Processing.c ****     uint32 sensorStatus;
 938:Generated_Source\PSoC4/key_touch_Processing.c ****     uint32 wdStatusIndex;
 939:Generated_Source\PSoC4/key_touch_Processing.c ****     uint32 wdStatusMask;
 940:Generated_Source\PSoC4/key_touch_Processing.c ****     key_touch_WD_TYPE_ENUM widgetType;
 941:Generated_Source\PSoC4/key_touch_Processing.c **** 
 942:Generated_Source\PSoC4/key_touch_Processing.c ****     widgetType = (key_touch_WD_TYPE_ENUM)ptrFlashWdgt->wdgtType;
 943:Generated_Source\PSoC4/key_touch_Processing.c ****     sensorStatus = key_touch_dsRam.snsStatus[wdgtId];
 944:Generated_Source\PSoC4/key_touch_Processing.c **** 
 945:Generated_Source\PSoC4/key_touch_Processing.c ****     switch (widgetType)
 946:Generated_Source\PSoC4/key_touch_Processing.c ****     {
 947:Generated_Source\PSoC4/key_touch_Processing.c ****     #if (0u != key_touch_BUTTON_WIDGET_EN)
 948:Generated_Source\PSoC4/key_touch_Processing.c ****         case key_touch_WD_BUTTON_E:
 949:Generated_Source\PSoC4/key_touch_Processing.c ****             sensorStatus = key_touch_DpProcessButton(sensorStatus, ptrFlashWdgt);
 950:Generated_Source\PSoC4/key_touch_Processing.c ****             break;
 951:Generated_Source\PSoC4/key_touch_Processing.c ****     #endif /* #if (0u != key_touch_BUTTON_WIDGET_EN) */
 952:Generated_Source\PSoC4/key_touch_Processing.c **** 
 953:Generated_Source\PSoC4/key_touch_Processing.c ****     #if (0u != key_touch_SLIDER_WIDGET_EN)
ARM GAS  C:\Users\Administrator\AppData\Local\Temp\ccWuKATu.s 			page 20


 954:Generated_Source\PSoC4/key_touch_Processing.c ****         case key_touch_WD_LINEAR_SLIDER_E:
 955:Generated_Source\PSoC4/key_touch_Processing.c ****         case key_touch_WD_RADIAL_SLIDER_E:
 956:Generated_Source\PSoC4/key_touch_Processing.c ****             sensorStatus = key_touch_DpProcessSlider(sensorStatus, ptrFlashWdgt);
 957:Generated_Source\PSoC4/key_touch_Processing.c ****             break;
 958:Generated_Source\PSoC4/key_touch_Processing.c ****     #endif /* #if (0u != key_touch_SLIDER_WIDGET_EN) */
 959:Generated_Source\PSoC4/key_touch_Processing.c **** 
 960:Generated_Source\PSoC4/key_touch_Processing.c ****     #if (0u != key_touch_CSD_MATRIX_WIDGET_EN)
 961:Generated_Source\PSoC4/key_touch_Processing.c ****         case key_touch_WD_MATRIX_BUTTON_E:
 962:Generated_Source\PSoC4/key_touch_Processing.c ****             sensorStatus = key_touch_DpProcessCsdMatrix(sensorStatus, ptrFlashWdgt);
 963:Generated_Source\PSoC4/key_touch_Processing.c ****             break;
 964:Generated_Source\PSoC4/key_touch_Processing.c ****     #endif /* #if (0u != key_touch_CSD_MATRIX_WIDGET_EN) */
 965:Generated_Source\PSoC4/key_touch_Processing.c **** 
 966:Generated_Source\PSoC4/key_touch_Processing.c ****     #if (0u != key_touch_CSD_TOUCHPAD_WIDGET_EN)
 967:Generated_Source\PSoC4/key_touch_Processing.c ****         case key_touch_WD_TOUCHPAD_E:
 968:Generated_Source\PSoC4/key_touch_Processing.c ****             sensorStatus = key_touch_DpProcessCsdTouchpad(sensorStatus, ptrFlashWdgt);
 969:Generated_Source\PSoC4/key_touch_Processing.c ****             break;
 970:Generated_Source\PSoC4/key_touch_Processing.c ****     #endif /* #if (0u != key_touch_CSD_TOUCHPAD_WIDGET_EN) */
 971:Generated_Source\PSoC4/key_touch_Processing.c **** 
 972:Generated_Source\PSoC4/key_touch_Processing.c ****     #if (0u != key_touch_PROXIMITY_WIDGET_EN)
 973:Generated_Source\PSoC4/key_touch_Processing.c ****         case key_touch_WD_PROXIMITY_E:
 974:Generated_Source\PSoC4/key_touch_Processing.c ****             sensorStatus = key_touch_DpProcessProximity(sensorStatus, ptrFlashWdgt);
 975:Generated_Source\PSoC4/key_touch_Processing.c ****             break;
 976:Generated_Source\PSoC4/key_touch_Processing.c ****     #endif /* #if (0u != key_touch_PROXIMITY_WIDGET_EN) */
 977:Generated_Source\PSoC4/key_touch_Processing.c **** 
 978:Generated_Source\PSoC4/key_touch_Processing.c ****     default:
 979:Generated_Source\PSoC4/key_touch_Processing.c ****         CYASSERT(0u);
 980:Generated_Source\PSoC4/key_touch_Processing.c ****         break;
 981:Generated_Source\PSoC4/key_touch_Processing.c ****     }
 982:Generated_Source\PSoC4/key_touch_Processing.c **** 
 983:Generated_Source\PSoC4/key_touch_Processing.c ****     key_touch_dsRam.snsStatus[wdgtId] = (key_touch_SNS_STS_TYPE)sensorStatus;
 984:Generated_Source\PSoC4/key_touch_Processing.c **** 
 985:Generated_Source\PSoC4/key_touch_Processing.c ****     /* The next two lines calculate index and bitmask of the widget status bit in the wdgtStatus ar
 986:Generated_Source\PSoC4/key_touch_Processing.c ****     wdStatusIndex = key_touch_GET_WDGT_STATUS_INDEX(wdgtId);
 987:Generated_Source\PSoC4/key_touch_Processing.c ****     wdStatusMask = key_touch_GET_WDGT_STATUS_MASK(wdgtId);
 988:Generated_Source\PSoC4/key_touch_Processing.c **** 
 989:Generated_Source\PSoC4/key_touch_Processing.c ****     /* Check if there are active sensors and update widget status accordingly */
 990:Generated_Source\PSoC4/key_touch_Processing.c ****     if (0u == sensorStatus)
 991:Generated_Source\PSoC4/key_touch_Processing.c ****     {
 992:Generated_Source\PSoC4/key_touch_Processing.c ****         key_touch_dsRam.wdgtStatus[wdStatusIndex] &= ~wdStatusMask;
 993:Generated_Source\PSoC4/key_touch_Processing.c ****     }
 994:Generated_Source\PSoC4/key_touch_Processing.c ****     else
 995:Generated_Source\PSoC4/key_touch_Processing.c ****     {
 996:Generated_Source\PSoC4/key_touch_Processing.c ****         key_touch_dsRam.wdgtStatus[wdStatusIndex] |= wdStatusMask;
 997:Generated_Source\PSoC4/key_touch_Processing.c ****     }
 998:Generated_Source\PSoC4/key_touch_Processing.c **** }
 999:Generated_Source\PSoC4/key_touch_Processing.c **** #endif /* #if (0u != key_touch_TOTAL_CSD_WIDGETS) */
1000:Generated_Source\PSoC4/key_touch_Processing.c **** 
1001:Generated_Source\PSoC4/key_touch_Processing.c **** 
1002:Generated_Source\PSoC4/key_touch_Processing.c **** #if (0 != (key_touch_CSD_AUTOTUNE & key_touch_CSD_SS_TH_EN))
1003:Generated_Source\PSoC4/key_touch_Processing.c **** /*******************************************************************************
1004:Generated_Source\PSoC4/key_touch_Processing.c **** * Function Name: key_touch_DpUpdateThresholds
1005:Generated_Source\PSoC4/key_touch_Processing.c **** ****************************************************************************//**
1006:Generated_Source\PSoC4/key_touch_Processing.c **** *
1007:Generated_Source\PSoC4/key_touch_Processing.c **** * \brief
1008:Generated_Source\PSoC4/key_touch_Processing.c **** *   Updates noise and finger thresholds for a specified widget.
1009:Generated_Source\PSoC4/key_touch_Processing.c **** *
1010:Generated_Source\PSoC4/key_touch_Processing.c **** * \details
ARM GAS  C:\Users\Administrator\AppData\Local\Temp\ccWuKATu.s 			page 21


1011:Generated_Source\PSoC4/key_touch_Processing.c **** *   Updates noise and finger thresholds for a specified widget.
1012:Generated_Source\PSoC4/key_touch_Processing.c **** *   This algorithm is a part of Auto-tuning feature.
1013:Generated_Source\PSoC4/key_touch_Processing.c **** *
1014:Generated_Source\PSoC4/key_touch_Processing.c **** * \param ptrRamWdgt       The pointer to the RAM widget object.
1015:Generated_Source\PSoC4/key_touch_Processing.c **** * \param ptrNoiseEnvelope The pointer to the noise-envelope object in RAM.
1016:Generated_Source\PSoC4/key_touch_Processing.c **** * \param startFlag        The flag indicates when new widget is processed.
1017:Generated_Source\PSoC4/key_touch_Processing.c **** *
1018:Generated_Source\PSoC4/key_touch_Processing.c **** *******************************************************************************/
1019:Generated_Source\PSoC4/key_touch_Processing.c **** void key_touch_DpUpdateThresholds(key_touch_RAM_WD_BASE_STRUCT *ptrRamWdgt,
1020:Generated_Source\PSoC4/key_touch_Processing.c ****                                          SMARTSENSE_CSD_NOISE_ENVELOPE_STRUCT *ptrNoiseEnvelope,
1021:Generated_Source\PSoC4/key_touch_Processing.c ****                                          uint32 startFlag)
1022:Generated_Source\PSoC4/key_touch_Processing.c **** {
1023:Generated_Source\PSoC4/key_touch_Processing.c ****     SMARTSENSE_UPDATE_THRESHOLDS_STRUCT thresholds;    
1024:Generated_Source\PSoC4/key_touch_Processing.c ****     SMARTSENSE_UPDATE_THRESHOLDS_STRUCT *ptrThresholds = &thresholds;
1025:Generated_Source\PSoC4/key_touch_Processing.c ****     ptrThresholds->fingerTh = ptrRamWdgt->fingerTh;
1026:Generated_Source\PSoC4/key_touch_Processing.c **** 
1027:Generated_Source\PSoC4/key_touch_Processing.c ****     SmartSense_UpdateThresholds(ptrNoiseEnvelope, ptrThresholds, ptrRamWdgt->sigPFC, startFlag);
1028:Generated_Source\PSoC4/key_touch_Processing.c **** 
1029:Generated_Source\PSoC4/key_touch_Processing.c ****     ptrRamWdgt->fingerTh = ptrThresholds->fingerTh;
1030:Generated_Source\PSoC4/key_touch_Processing.c ****     ptrRamWdgt->noiseTh = ptrThresholds->noiseTh;
1031:Generated_Source\PSoC4/key_touch_Processing.c ****     ptrRamWdgt->nNoiseTh = ptrThresholds->nNoiseTh;
1032:Generated_Source\PSoC4/key_touch_Processing.c ****     ptrRamWdgt->hysteresis = ptrThresholds->hysteresis;    
1033:Generated_Source\PSoC4/key_touch_Processing.c **** }
1034:Generated_Source\PSoC4/key_touch_Processing.c **** #endif /* #if (0u != (key_touch_CSD_AUTOTUNE & key_touch_CSD_SS_TH_EN)) */
1035:Generated_Source\PSoC4/key_touch_Processing.c **** 
1036:Generated_Source\PSoC4/key_touch_Processing.c **** 
1037:Generated_Source\PSoC4/key_touch_Processing.c **** /*******************************************************************************
1038:Generated_Source\PSoC4/key_touch_Processing.c **** * Function Name: key_touch_DpUpdateDifferences
1039:Generated_Source\PSoC4/key_touch_Processing.c **** ****************************************************************************//**
1040:Generated_Source\PSoC4/key_touch_Processing.c **** *
1041:Generated_Source\PSoC4/key_touch_Processing.c **** * \brief
1042:Generated_Source\PSoC4/key_touch_Processing.c **** *   Calculates new difference values.
1043:Generated_Source\PSoC4/key_touch_Processing.c **** *   Also, executes the frequency hopping algorithm if it is enabled.
1044:Generated_Source\PSoC4/key_touch_Processing.c **** *
1045:Generated_Source\PSoC4/key_touch_Processing.c **** * \details
1046:Generated_Source\PSoC4/key_touch_Processing.c **** *   This API calculates the difference between the baseline and raw counts.
1047:Generated_Source\PSoC4/key_touch_Processing.c **** *   If the difference is positive (raw > baseline), and higher than the widget
1048:Generated_Source\PSoC4/key_touch_Processing.c **** *   noise threshold, it is saved into the data structure for further processing.
1049:Generated_Source\PSoC4/key_touch_Processing.c **** *   Otherwise the difference is set to zero. The final difference value is saved
1050:Generated_Source\PSoC4/key_touch_Processing.c **** *   with the subtracted noise threshold value.
1051:Generated_Source\PSoC4/key_touch_Processing.c **** *
1052:Generated_Source\PSoC4/key_touch_Processing.c **** *   If the frequency hopping algorithm is enabled, the difference is calculated
1053:Generated_Source\PSoC4/key_touch_Processing.c **** *   for the three sets of data available for each sensor. Then
1054:Generated_Source\PSoC4/key_touch_Processing.c **** *   the median filter selects the final difference value.
1055:Generated_Source\PSoC4/key_touch_Processing.c **** *
1056:Generated_Source\PSoC4/key_touch_Processing.c **** * \param ptrRamWdgt The pointer to the RAR Widget Object.
1057:Generated_Source\PSoC4/key_touch_Processing.c **** * \param ptrSns     The pointer to the sensor object in RAM.
1058:Generated_Source\PSoC4/key_touch_Processing.c **** *
1059:Generated_Source\PSoC4/key_touch_Processing.c **** *******************************************************************************/
1060:Generated_Source\PSoC4/key_touch_Processing.c **** void key_touch_DpUpdateDifferences(
1061:Generated_Source\PSoC4/key_touch_Processing.c ****                         key_touch_RAM_WD_BASE_STRUCT *ptrRamWdgt,
1062:Generated_Source\PSoC4/key_touch_Processing.c ****                         key_touch_RAM_SNS_STRUCT *ptrSns)
1063:Generated_Source\PSoC4/key_touch_Processing.c **** {
 126              		.loc 1 1063 0
 127              		.cfi_startproc
 128              	.LVL14:
1064:Generated_Source\PSoC4/key_touch_Processing.c ****     register int32 diffValue = 0;
ARM GAS  C:\Users\Administrator\AppData\Local\Temp\ccWuKATu.s 			page 22


1065:Generated_Source\PSoC4/key_touch_Processing.c **** 
1066:Generated_Source\PSoC4/key_touch_Processing.c ****     #if (0u != key_touch_MULTI_FREQ_SCAN_EN)
1067:Generated_Source\PSoC4/key_touch_Processing.c ****         register int32 diffValue_0 = 0;
1068:Generated_Source\PSoC4/key_touch_Processing.c ****         register int32 diffValue_2 = 0;
1069:Generated_Source\PSoC4/key_touch_Processing.c ****     #endif /* #if (0u != key_touch_MULTI_FREQ_SCAN_EN) */
1070:Generated_Source\PSoC4/key_touch_Processing.c **** 
1071:Generated_Source\PSoC4/key_touch_Processing.c ****     /* Calculate difference */
1072:Generated_Source\PSoC4/key_touch_Processing.c ****     diffValue = (int32)ptrSns->raw[0u] - (int32)ptrSns->bsln[0u];
 129              		.loc 1 1072 0
 130 0000 0B88     		ldrh	r3, [r1]
 131 0002 4A88     		ldrh	r2, [r1, #2]
 132 0004 9B1A     		sub	r3, r3, r2
 133              	.LVL15:
1073:Generated_Source\PSoC4/key_touch_Processing.c **** 
1074:Generated_Source\PSoC4/key_touch_Processing.c ****     #if (0u != key_touch_MULTI_FREQ_SCAN_EN)
1075:Generated_Source\PSoC4/key_touch_Processing.c ****         diffValue_0 = (int32)ptrSns->raw[1u] - (int32)ptrSns->bsln[1u];
1076:Generated_Source\PSoC4/key_touch_Processing.c ****         diffValue_2 = (int32)ptrSns->raw[2u] - (int32)ptrSns->bsln[2u];
1077:Generated_Source\PSoC4/key_touch_Processing.c **** 
1078:Generated_Source\PSoC4/key_touch_Processing.c ****         /* Find median and put it into [0u] element */
1079:Generated_Source\PSoC4/key_touch_Processing.c ****         if (diffValue_0 > diffValue)
1080:Generated_Source\PSoC4/key_touch_Processing.c ****         {
1081:Generated_Source\PSoC4/key_touch_Processing.c ****             register int32 swapv = diffValue_0;
1082:Generated_Source\PSoC4/key_touch_Processing.c ****             diffValue_0 = diffValue;
1083:Generated_Source\PSoC4/key_touch_Processing.c ****             diffValue = swapv;
1084:Generated_Source\PSoC4/key_touch_Processing.c ****         }
1085:Generated_Source\PSoC4/key_touch_Processing.c **** 
1086:Generated_Source\PSoC4/key_touch_Processing.c ****         if (diffValue > diffValue_2)
1087:Generated_Source\PSoC4/key_touch_Processing.c ****         {
1088:Generated_Source\PSoC4/key_touch_Processing.c ****             register int32 swapv = diffValue;
1089:Generated_Source\PSoC4/key_touch_Processing.c ****             diffValue = diffValue_2;
1090:Generated_Source\PSoC4/key_touch_Processing.c ****             diffValue_2 = swapv;
1091:Generated_Source\PSoC4/key_touch_Processing.c ****         }
1092:Generated_Source\PSoC4/key_touch_Processing.c **** 
1093:Generated_Source\PSoC4/key_touch_Processing.c ****         if (diffValue_0 > diffValue)
1094:Generated_Source\PSoC4/key_touch_Processing.c ****         {
1095:Generated_Source\PSoC4/key_touch_Processing.c ****             register int32 swapv = diffValue_0;
1096:Generated_Source\PSoC4/key_touch_Processing.c ****             diffValue_0 = diffValue;
1097:Generated_Source\PSoC4/key_touch_Processing.c ****             diffValue = swapv;
1098:Generated_Source\PSoC4/key_touch_Processing.c ****         }
1099:Generated_Source\PSoC4/key_touch_Processing.c ****     #endif /* #if (0u != key_touch_MULTI_FREQ_SCAN_EN) */
1100:Generated_Source\PSoC4/key_touch_Processing.c **** 
1101:Generated_Source\PSoC4/key_touch_Processing.c ****     ptrSns->diff = 0u;
 134              		.loc 1 1101 0
 135 0006 0022     		mov	r2, #0
 136 0008 CA80     		strh	r2, [r1, #6]
1102:Generated_Source\PSoC4/key_touch_Processing.c **** 
1103:Generated_Source\PSoC4/key_touch_Processing.c ****     if (diffValue > (int32)ptrRamWdgt->noiseTh)
 137              		.loc 1 1103 0
 138 000a 0279     		ldrb	r2, [r0, #4]
 139 000c 9A42     		cmp	r2, r3
 140 000e 00DA     		bge	.L10
1104:Generated_Source\PSoC4/key_touch_Processing.c ****     {
1105:Generated_Source\PSoC4/key_touch_Processing.c ****         ptrSns->diff = (key_touch_THRESHOLD_TYPE) diffValue;
 141              		.loc 1 1105 0
 142 0010 CB80     		strh	r3, [r1, #6]
 143              	.L10:
1106:Generated_Source\PSoC4/key_touch_Processing.c ****     }
ARM GAS  C:\Users\Administrator\AppData\Local\Temp\ccWuKATu.s 			page 23


1107:Generated_Source\PSoC4/key_touch_Processing.c **** }
 144              		.loc 1 1107 0
 145              		@ sp needed
 146 0012 7047     		bx	lr
 147              		.cfi_endproc
 148              	.LFE5:
 149              		.size	key_touch_DpUpdateDifferences, .-key_touch_DpUpdateDifferences
 150              		.section	.text.key_touch_DpProcessCsdWidgetRawCounts,"ax",%progbits
 151              		.align	2
 152              		.global	key_touch_DpProcessCsdWidgetRawCounts
 153              		.code	16
 154              		.thumb_func
 155              		.type	key_touch_DpProcessCsdWidgetRawCounts, %function
 156              	key_touch_DpProcessCsdWidgetRawCounts:
 157              	.LFB2:
 708:Generated_Source\PSoC4/key_touch_Processing.c ****     uint32  result = CYRET_SUCCESS;
 158              		.loc 1 708 0
 159              		.cfi_startproc
 160              	.LVL16:
 161 0000 F0B5     		push	{r4, r5, r6, r7, lr}
 162              		.cfi_def_cfa_offset 20
 163              		.cfi_offset 4, -20
 164              		.cfi_offset 5, -16
 165              		.cfi_offset 6, -12
 166              		.cfi_offset 7, -8
 167              		.cfi_offset 14, -4
 168 0002 83B0     		sub	sp, sp, #12
 169              		.cfi_def_cfa_offset 32
 170 0004 071C     		mov	r7, r0
 171              	.LVL17:
 739:Generated_Source\PSoC4/key_touch_Processing.c ****     ptrRamWdgt = ptrFlashWdgt->ptr2WdgtRam;
 172              		.loc 1 739 0
 173 0006 8468     		ldr	r4, [r0, #8]
 174              	.LVL18:
 740:Generated_Source\PSoC4/key_touch_Processing.c ****     widgetType = ptrFlashWdgt->wdgtType;
 175              		.loc 1 740 0
 176 0008 4568     		ldr	r5, [r0, #4]
 177              	.LVL19:
 741:Generated_Source\PSoC4/key_touch_Processing.c **** 
 178              		.loc 1 741 0
 179 000a 037E     		ldrb	r3, [r0, #24]
 180 000c 0193     		str	r3, [sp, #4]
 181              	.LVL20:
 748:Generated_Source\PSoC4/key_touch_Processing.c ****     {
 182              		.loc 1 748 0
 183 000e 0026     		mov	r6, #0
 709:Generated_Source\PSoC4/key_touch_Processing.c ****     
 184              		.loc 1 709 0
 185 0010 0023     		mov	r3, #0
 186              	.LVL21:
 187 0012 0093     		str	r3, [sp]
 748:Generated_Source\PSoC4/key_touch_Processing.c ****     {
 188              		.loc 1 748 0
 189 0014 0BE0     		b	.L13
 190              	.LVL22:
 191              	.L14:
 788:Generated_Source\PSoC4/key_touch_Processing.c ****         #endif /* (key_touch_ENABLE == key_touch_TST_BSLN_DUPLICATION_EN) */
ARM GAS  C:\Users\Administrator\AppData\Local\Temp\ccWuKATu.s 			page 24


 192              		.loc 1 788 0 discriminator 3
 193 0016 281C     		mov	r0, r5
 194 0018 211C     		mov	r1, r4
 195 001a 019A     		ldr	r2, [sp, #4]
 196 001c FFF7FEFF 		bl	key_touch_FtUpdateBaseline
 197              	.LVL23:
 198 0020 0090     		str	r0, [sp]
 199              	.LVL24:
 791:Generated_Source\PSoC4/key_touch_Processing.c **** 
 200              		.loc 1 791 0 discriminator 3
 201 0022 281C     		mov	r0, r5
 202              	.LVL25:
 203 0024 211C     		mov	r1, r4
 204 0026 FFF7FEFF 		bl	key_touch_DpUpdateDifferences
 205              	.LVL26:
 794:Generated_Source\PSoC4/key_touch_Processing.c **** 
 206              		.loc 1 794 0 discriminator 3
 207 002a 0A34     		add	r4, r4, #10
 208              	.LVL27:
 748:Generated_Source\PSoC4/key_touch_Processing.c ****     {
 209              		.loc 1 748 0 discriminator 3
 210 002c 0136     		add	r6, r6, #1
 211              	.LVL28:
 212              	.L13:
 748:Generated_Source\PSoC4/key_touch_Processing.c ****     {
 213              		.loc 1 748 0 is_stmt 0 discriminator 1
 214 002e FB8A     		ldrh	r3, [r7, #22]
 215 0030 B342     		cmp	r3, r6
 216 0032 F0D8     		bhi	.L14
 802:Generated_Source\PSoC4/key_touch_Processing.c **** 
 217              		.loc 1 802 0 is_stmt 1
 218 0034 0098     		ldr	r0, [sp]
 219 0036 03B0     		add	sp, sp, #12
 220              	.LVL29:
 221              		@ sp needed
 222              	.LVL30:
 223              	.LVL31:
 224              	.LVL32:
 225              	.LVL33:
 226 0038 F0BD     		pop	{r4, r5, r6, r7, pc}
 227              		.cfi_endproc
 228              	.LFE2:
 229              		.size	key_touch_DpProcessCsdWidgetRawCounts, .-key_touch_DpProcessCsdWidgetRawCounts
 230 003a C046     		.section	.text.key_touch_DpProcessCsdSensorRawCountsExt,"ax",%progbits
 231              		.align	2
 232              		.global	key_touch_DpProcessCsdSensorRawCountsExt
 233              		.code	16
 234              		.thumb_func
 235              		.type	key_touch_DpProcessCsdSensorRawCountsExt, %function
 236              	key_touch_DpProcessCsdSensorRawCountsExt:
 237              	.LFB3:
 843:Generated_Source\PSoC4/key_touch_Processing.c ****     uint32 result = CYRET_SUCCESS;
 238              		.loc 1 843 0
 239              		.cfi_startproc
 240              	.LVL34:
 241 0000 F8B5     		push	{r3, r4, r5, r6, r7, lr}
 242              		.cfi_def_cfa_offset 24
ARM GAS  C:\Users\Administrator\AppData\Local\Temp\ccWuKATu.s 			page 25


 243              		.cfi_offset 3, -24
 244              		.cfi_offset 4, -20
 245              		.cfi_offset 5, -16
 246              		.cfi_offset 6, -12
 247              		.cfi_offset 7, -8
 248              		.cfi_offset 14, -4
 249 0002 0E1C     		mov	r6, r1
 250 0004 1C1C     		mov	r4, r3
 251              	.LVL35:
 858:Generated_Source\PSoC4/key_touch_Processing.c ****     ptrRamWdgt = ptrFlashWdgt->ptr2WdgtRam;
 252              		.loc 1 858 0
 253 0006 027E     		ldrb	r2, [r0, #24]
 254              	.LVL36:
 859:Generated_Source\PSoC4/key_touch_Processing.c **** 
 255              		.loc 1 859 0
 256 0008 4768     		ldr	r7, [r0, #4]
 257              	.LVL37:
 896:Generated_Source\PSoC4/key_touch_Processing.c ****     {
 258              		.loc 1 896 0
 259 000a A307     		lsl	r3, r4, #30
 260 000c 04D5     		bpl	.L18
 261              	.LVL38:
 898:Generated_Source\PSoC4/key_touch_Processing.c ****     }
 262              		.loc 1 898 0
 263 000e 381C     		mov	r0, r7
 264              	.LVL39:
 265 0010 FFF7FEFF 		bl	key_touch_FtUpdateBaseline
 266              	.LVL40:
 267 0014 051C     		mov	r5, r0
 268              	.LVL41:
 269 0016 00E0     		b	.L16
 270              	.LVL42:
 271              	.L18:
 844:Generated_Source\PSoC4/key_touch_Processing.c ****     uint32  widgetType;
 272              		.loc 1 844 0
 273 0018 0025     		mov	r5, #0
 274              	.LVL43:
 275              	.L16:
 901:Generated_Source\PSoC4/key_touch_Processing.c ****     {
 276              		.loc 1 901 0
 277 001a 6307     		lsl	r3, r4, #29
 278 001c 03D5     		bpl	.L17
 903:Generated_Source\PSoC4/key_touch_Processing.c ****     }
 279              		.loc 1 903 0
 280 001e 381C     		mov	r0, r7
 281 0020 311C     		mov	r1, r6
 282 0022 FFF7FEFF 		bl	key_touch_DpUpdateDifferences
 283              	.LVL44:
 284              	.L17:
 906:Generated_Source\PSoC4/key_touch_Processing.c **** 
 285              		.loc 1 906 0
 286 0026 281C     		mov	r0, r5
 287              		@ sp needed
 288              	.LVL45:
 289              	.LVL46:
 290              	.LVL47:
 291              	.LVL48:
ARM GAS  C:\Users\Administrator\AppData\Local\Temp\ccWuKATu.s 			page 26


 292 0028 F8BD     		pop	{r3, r4, r5, r6, r7, pc}
 293              		.cfi_endproc
 294              	.LFE3:
 295              		.size	key_touch_DpProcessCsdSensorRawCountsExt, .-key_touch_DpProcessCsdSensorRawCountsExt
 296 002a C046     		.section	.text.key_touch_DpProcessButton,"ax",%progbits
 297              		.align	2
 298              		.global	key_touch_DpProcessButton
 299              		.code	16
 300              		.thumb_func
 301              		.type	key_touch_DpProcessButton, %function
 302              	key_touch_DpProcessButton:
 303              	.LFB6:
1108:Generated_Source\PSoC4/key_touch_Processing.c **** 
1109:Generated_Source\PSoC4/key_touch_Processing.c **** 
1110:Generated_Source\PSoC4/key_touch_Processing.c **** #if ((0u != key_touch_BUTTON_WIDGET_EN) || (0u != key_touch_CSX_MATRIX_WIDGET_EN))
1111:Generated_Source\PSoC4/key_touch_Processing.c **** /*******************************************************************************
1112:Generated_Source\PSoC4/key_touch_Processing.c **** * Function Name: key_touch_DpProcessButton
1113:Generated_Source\PSoC4/key_touch_Processing.c **** ****************************************************************************//**
1114:Generated_Source\PSoC4/key_touch_Processing.c **** *
1115:Generated_Source\PSoC4/key_touch_Processing.c **** * \brief
1116:Generated_Source\PSoC4/key_touch_Processing.c **** *   Processes the status of the Button widget.
1117:Generated_Source\PSoC4/key_touch_Processing.c **** *
1118:Generated_Source\PSoC4/key_touch_Processing.c **** * \details
1119:Generated_Source\PSoC4/key_touch_Processing.c **** *   This API processes the status of the CSD/CSX Button widget and
1120:Generated_Source\PSoC4/key_touch_Processing.c **** *   CSX Matrix Button widget. It applies the hysteresis and de-bounce algorithm
1121:Generated_Source\PSoC4/key_touch_Processing.c **** *   to each sensor difference value. This API is expected to be called
1122:Generated_Source\PSoC4/key_touch_Processing.c **** *   after each new widget scan. If it is called multiple times for the same
1123:Generated_Source\PSoC4/key_touch_Processing.c **** *   scan data, the de-bounce algorithm will not work properly.
1124:Generated_Source\PSoC4/key_touch_Processing.c **** *
1125:Generated_Source\PSoC4/key_touch_Processing.c **** *   This API does not update any Data Structure registers
1126:Generated_Source\PSoC4/key_touch_Processing.c **** *   except the de-bounce counters.
1127:Generated_Source\PSoC4/key_touch_Processing.c **** *
1128:Generated_Source\PSoC4/key_touch_Processing.c **** * \param currStatus   The current status of the widget sensors.
1129:Generated_Source\PSoC4/key_touch_Processing.c **** * \param ptrFlashWdgt The pointer to the Flash Widget Object.
1130:Generated_Source\PSoC4/key_touch_Processing.c **** *
1131:Generated_Source\PSoC4/key_touch_Processing.c **** * \return Returns the status of the widget's sensors. Bit #0 - corresponds to Sensor #0.
1132:Generated_Source\PSoC4/key_touch_Processing.c **** *
1133:Generated_Source\PSoC4/key_touch_Processing.c **** *******************************************************************************/
1134:Generated_Source\PSoC4/key_touch_Processing.c **** uint32 key_touch_DpProcessButton(uint32 currStatus, key_touch_FLASH_WD_STRUCT const *ptrFlashWdgt)
1135:Generated_Source\PSoC4/key_touch_Processing.c **** {
 304              		.loc 1 1135 0
 305              		.cfi_startproc
 306              	.LVL49:
 307 0000 F0B5     		push	{r4, r5, r6, r7, lr}
 308              		.cfi_def_cfa_offset 20
 309              		.cfi_offset 4, -20
 310              		.cfi_offset 5, -16
 311              		.cfi_offset 6, -12
 312              		.cfi_offset 7, -8
 313              		.cfi_offset 14, -4
1136:Generated_Source\PSoC4/key_touch_Processing.c ****     uint32 snsCnt;
1137:Generated_Source\PSoC4/key_touch_Processing.c ****     uint32 snsMask;
1138:Generated_Source\PSoC4/key_touch_Processing.c ****     uint32 newStatus;
1139:Generated_Source\PSoC4/key_touch_Processing.c ****     uint32 touchTh;
1140:Generated_Source\PSoC4/key_touch_Processing.c ****     key_touch_RAM_SNS_STRUCT *ptrSns;
1141:Generated_Source\PSoC4/key_touch_Processing.c ****     key_touch_RAM_WD_BASE_STRUCT *ptrRamWdgt;
1142:Generated_Source\PSoC4/key_touch_Processing.c ****     uint8 * ptrDebounceCnt;
ARM GAS  C:\Users\Administrator\AppData\Local\Temp\ccWuKATu.s 			page 27


1143:Generated_Source\PSoC4/key_touch_Processing.c **** 
1144:Generated_Source\PSoC4/key_touch_Processing.c ****     snsCnt = ptrFlashWdgt->totalNumSns;
 314              		.loc 1 1144 0
 315 0002 CA8A     		ldrh	r2, [r1, #22]
 316              	.LVL50:
1145:Generated_Source\PSoC4/key_touch_Processing.c ****     ptrSns = ptrFlashWdgt->ptr2SnsRam;
 317              		.loc 1 1145 0
 318 0004 8D68     		ldr	r5, [r1, #8]
 319              	.LVL51:
1146:Generated_Source\PSoC4/key_touch_Processing.c ****     ptrRamWdgt = ptrFlashWdgt->ptr2WdgtRam;
 320              		.loc 1 1146 0
 321 0006 4F68     		ldr	r7, [r1, #4]
 322              	.LVL52:
1147:Generated_Source\PSoC4/key_touch_Processing.c ****     ptrDebounceCnt = ptrFlashWdgt->ptr2DebounceArr;
 323              		.loc 1 1147 0
 324 0008 0B69     		ldr	r3, [r1, #16]
 325              	.LVL53:
1148:Generated_Source\PSoC4/key_touch_Processing.c **** 
1149:Generated_Source\PSoC4/key_touch_Processing.c ****     /* Go through all widget's sensors */
1150:Generated_Source\PSoC4/key_touch_Processing.c ****     snsMask = 1Lu;
 326              		.loc 1 1150 0
 327 000a 0121     		mov	r1, #1
 328              	.LVL54:
1151:Generated_Source\PSoC4/key_touch_Processing.c ****     for (; snsCnt-- > 0u; )
 329              		.loc 1 1151 0
 330 000c 25E0     		b	.L20
 331              	.LVL55:
 332              	.L28:
1152:Generated_Source\PSoC4/key_touch_Processing.c ****     {
1153:Generated_Source\PSoC4/key_touch_Processing.c ****         /* Calculate touch threshold taking into account hysteresis
1154:Generated_Source\PSoC4/key_touch_Processing.c ****            and current sensor state. */
1155:Generated_Source\PSoC4/key_touch_Processing.c ****         touchTh = (0u == (currStatus & snsMask)) ?
 333              		.loc 1 1155 0
 334 000e 0C1C     		mov	r4, r1
 335              	.LVL56:
 336 0010 0440     		and	r4, r0
1156:Generated_Source\PSoC4/key_touch_Processing.c ****                   ((uint32)ptrRamWdgt->fingerTh + ptrRamWdgt->hysteresis) :
 337              		.loc 1 1156 0
 338 0012 03D1     		bne	.L21
 339              		.loc 1 1156 0 is_stmt 0 discriminator 1
 340 0014 7E88     		ldrh	r6, [r7, #2]
 341 0016 BA79     		ldrb	r2, [r7, #6]
 342 0018 B218     		add	r2, r6, r2
 343 001a 02E0     		b	.L22
 344              	.L21:
1157:Generated_Source\PSoC4/key_touch_Processing.c ****                   ((uint32)ptrRamWdgt->fingerTh - ptrRamWdgt->hysteresis);
 345              		.loc 1 1157 0 is_stmt 1 discriminator 2
 346 001c 7A88     		ldrh	r2, [r7, #2]
 347 001e BE79     		ldrb	r6, [r7, #6]
1156:Generated_Source\PSoC4/key_touch_Processing.c ****                   ((uint32)ptrRamWdgt->fingerTh + ptrRamWdgt->hysteresis) :
 348              		.loc 1 1156 0 discriminator 2
 349 0020 921B     		sub	r2, r2, r6
 350              	.L22:
 351              	.LVL57:
1158:Generated_Source\PSoC4/key_touch_Processing.c **** 
1159:Generated_Source\PSoC4/key_touch_Processing.c ****         /* Determine new potential sensor state */
1160:Generated_Source\PSoC4/key_touch_Processing.c ****         newStatus = (ptrSns->diff > touchTh) ? snsMask : 0u;
ARM GAS  C:\Users\Administrator\AppData\Local\Temp\ccWuKATu.s 			page 28


 352              		.loc 1 1160 0
 353 0022 EE88     		ldrh	r6, [r5, #6]
 354 0024 B242     		cmp	r2, r6
 355 0026 01D3     		bcc	.L29
 356 0028 0022     		mov	r2, #0
 357              	.LVL58:
 358 002a 00E0     		b	.L23
 359              	.LVL59:
 360              	.L29:
 361 002c 0A1C     		mov	r2, r1
 362              	.LVL60:
 363              	.L23:
1161:Generated_Source\PSoC4/key_touch_Processing.c **** 
1162:Generated_Source\PSoC4/key_touch_Processing.c ****         /* Sensor state changed ? */
1163:Generated_Source\PSoC4/key_touch_Processing.c ****         if (newStatus != (currStatus & snsMask))
 364              		.loc 1 1163 0 discriminator 4
 365 002e A242     		cmp	r2, r4
 366 0030 02D0     		beq	.L24
1164:Generated_Source\PSoC4/key_touch_Processing.c ****         {
1165:Generated_Source\PSoC4/key_touch_Processing.c ****             /* Decrement de-bounce counter */
1166:Generated_Source\PSoC4/key_touch_Processing.c ****             (*ptrDebounceCnt)--;
 367              		.loc 1 1166 0
 368 0032 1E78     		ldrb	r6, [r3]
 369 0034 013E     		sub	r6, r6, #1
 370 0036 1E70     		strb	r6, [r3]
 371              	.L24:
1167:Generated_Source\PSoC4/key_touch_Processing.c ****         }
1168:Generated_Source\PSoC4/key_touch_Processing.c **** 
1169:Generated_Source\PSoC4/key_touch_Processing.c ****         /* This piece of code has two objectives:
1170:Generated_Source\PSoC4/key_touch_Processing.c ****            1. Reset de-bounce counter if the sensor state did not change.
1171:Generated_Source\PSoC4/key_touch_Processing.c ****               (It is possible that during previous processing cycles sensor
1172:Generated_Source\PSoC4/key_touch_Processing.c ****                was active and de-bounce counter was decremented.)
1173:Generated_Source\PSoC4/key_touch_Processing.c ****            2. Set new sensor state after successful de-bounce.
1174:Generated_Source\PSoC4/key_touch_Processing.c ****          */
1175:Generated_Source\PSoC4/key_touch_Processing.c ****         if ((newStatus == (currStatus & snsMask)) || (0u == (*ptrDebounceCnt)))
 372              		.loc 1 1175 0
 373 0038 A242     		cmp	r2, r4
 374 003a 02D0     		beq	.L25
 375              		.loc 1 1175 0 is_stmt 0 discriminator 1
 376 003c 1C78     		ldrb	r4, [r3]
 377 003e 002C     		cmp	r4, #0
 378 0040 07D1     		bne	.L26
 379              	.L25:
1176:Generated_Source\PSoC4/key_touch_Processing.c ****         {
1177:Generated_Source\PSoC4/key_touch_Processing.c ****             /* Set new sensor status */
1178:Generated_Source\PSoC4/key_touch_Processing.c ****             currStatus &= ~snsMask;
 380              		.loc 1 1178 0 is_stmt 1
 381 0042 8843     		bic	r0, r1
 382              	.LVL61:
1179:Generated_Source\PSoC4/key_touch_Processing.c ****             currStatus |= newStatus;
 383              		.loc 1 1179 0
 384 0044 1043     		orr	r0, r2
 385              	.LVL62:
1180:Generated_Source\PSoC4/key_touch_Processing.c **** 
1181:Generated_Source\PSoC4/key_touch_Processing.c ****             /* Reset de-bounce counter */
1182:Generated_Source\PSoC4/key_touch_Processing.c ****             #if (0u != key_touch_OFF_DEBOUNCE_EN)
1183:Generated_Source\PSoC4/key_touch_Processing.c ****                 *ptrDebounceCnt = (0Lu == newStatus) ? ptrRamWdgt->onDebounce : ptrRamWdgt->offDebo
ARM GAS  C:\Users\Administrator\AppData\Local\Temp\ccWuKATu.s 			page 29


1184:Generated_Source\PSoC4/key_touch_Processing.c ****             #else
1185:Generated_Source\PSoC4/key_touch_Processing.c ****                 *ptrDebounceCnt = (0Lu == newStatus) ? ptrRamWdgt->onDebounce : DEFAULT_OFF_DEBOUNC
 386              		.loc 1 1185 0
 387 0046 002A     		cmp	r2, #0
 388 0048 01D1     		bne	.L30
 389              		.loc 1 1185 0 is_stmt 0 discriminator 1
 390 004a FA79     		ldrb	r2, [r7, #7]
 391              	.LVL63:
 392 004c 00E0     		b	.L27
 393              	.LVL64:
 394              	.L30:
 395              		.loc 1 1185 0
 396 004e 0122     		mov	r2, #1
 397              	.LVL65:
 398              	.L27:
 399              		.loc 1 1185 0 discriminator 4
 400 0050 1A70     		strb	r2, [r3]
 401              	.L26:
1186:Generated_Source\PSoC4/key_touch_Processing.c ****             #endif /* #if (0u != key_touch_OFF_DEBOUNCE_EN) */
1187:Generated_Source\PSoC4/key_touch_Processing.c ****         }
1188:Generated_Source\PSoC4/key_touch_Processing.c ****         
1189:Generated_Source\PSoC4/key_touch_Processing.c ****         /* Move mask to the next sensor */
1190:Generated_Source\PSoC4/key_touch_Processing.c ****         snsMask <<= 1u;
 402              		.loc 1 1190 0 is_stmt 1
 403 0052 4900     		lsl	r1, r1, #1
 404              	.LVL66:
1191:Generated_Source\PSoC4/key_touch_Processing.c ****         
1192:Generated_Source\PSoC4/key_touch_Processing.c ****         ptrSns++;
 405              		.loc 1 1192 0
 406 0054 0A35     		add	r5, r5, #10
 407              	.LVL67:
1193:Generated_Source\PSoC4/key_touch_Processing.c ****         ptrDebounceCnt++;
 408              		.loc 1 1193 0
 409 0056 0133     		add	r3, r3, #1
 410              	.LVL68:
1151:Generated_Source\PSoC4/key_touch_Processing.c ****     {
 411              		.loc 1 1151 0
 412 0058 6246     		mov	r2, ip
 413              	.LVL69:
 414              	.L20:
 415 005a 541E     		sub	r4, r2, #1
 416 005c A446     		mov	ip, r4
 417              	.LVL70:
 418 005e 002A     		cmp	r2, #0
 419 0060 D5D1     		bne	.L28
1194:Generated_Source\PSoC4/key_touch_Processing.c ****     }
1195:Generated_Source\PSoC4/key_touch_Processing.c **** 
1196:Generated_Source\PSoC4/key_touch_Processing.c ****     return currStatus;
1197:Generated_Source\PSoC4/key_touch_Processing.c **** }
 420              		.loc 1 1197 0
 421              		@ sp needed
 422              	.LVL71:
 423              	.LVL72:
 424              	.LVL73:
 425 0062 F0BD     		pop	{r4, r5, r6, r7, pc}
 426              		.cfi_endproc
 427              	.LFE6:
ARM GAS  C:\Users\Administrator\AppData\Local\Temp\ccWuKATu.s 			page 30


 428              		.size	key_touch_DpProcessButton, .-key_touch_DpProcessButton
 429              		.section	.text.key_touch_DpProcessCsdWidgetStatus,"ax",%progbits
 430              		.align	2
 431              		.global	key_touch_DpProcessCsdWidgetStatus
 432              		.code	16
 433              		.thumb_func
 434              		.type	key_touch_DpProcessCsdWidgetStatus, %function
 435              	key_touch_DpProcessCsdWidgetStatus:
 436              	.LFB4:
 936:Generated_Source\PSoC4/key_touch_Processing.c ****     uint32 sensorStatus;
 437              		.loc 1 936 0
 438              		.cfi_startproc
 439              	.LVL74:
 440 0000 38B5     		push	{r3, r4, r5, lr}
 441              		.cfi_def_cfa_offset 16
 442              		.cfi_offset 3, -16
 443              		.cfi_offset 4, -12
 444              		.cfi_offset 5, -8
 445              		.cfi_offset 14, -4
 446 0002 041C     		mov	r4, r0
 942:Generated_Source\PSoC4/key_touch_Processing.c ****     sensorStatus = key_touch_dsRam.snsStatus[wdgtId];
 447              		.loc 1 942 0
 448 0004 0A7E     		ldrb	r2, [r1, #24]
 449              	.LVL75:
 943:Generated_Source\PSoC4/key_touch_Processing.c **** 
 450              		.loc 1 943 0
 451 0006 134B     		ldr	r3, .L38
 452 0008 1B18     		add	r3, r3, r0
 453 000a 1D7D     		ldrb	r5, [r3, #20]
 454              	.LVL76:
 945:Generated_Source\PSoC4/key_touch_Processing.c ****     {
 455              		.loc 1 945 0
 456 000c 012A     		cmp	r2, #1
 457 000e 04D1     		bne	.L37
 949:Generated_Source\PSoC4/key_touch_Processing.c ****             break;
 458              		.loc 1 949 0
 459 0010 281C     		mov	r0, r5
 460              	.LVL77:
 461 0012 FFF7FEFF 		bl	key_touch_DpProcessButton
 462              	.LVL78:
 463 0016 051C     		mov	r5, r0
 464              	.LVL79:
 950:Generated_Source\PSoC4/key_touch_Processing.c ****     #endif /* #if (0u != key_touch_BUTTON_WIDGET_EN) */
 465              		.loc 1 950 0
 466 0018 02E0     		b	.L34
 467              	.LVL80:
 468              	.L37:
 979:Generated_Source\PSoC4/key_touch_Processing.c ****         break;
 469              		.loc 1 979 0 discriminator 1
 470 001a 0020     		mov	r0, #0
 471              	.LVL81:
 472 001c FFF7FEFF 		bl	CyHalt
 473              	.LVL82:
 474              	.L34:
 983:Generated_Source\PSoC4/key_touch_Processing.c **** 
 475              		.loc 1 983 0
 476 0020 0C4B     		ldr	r3, .L38
ARM GAS  C:\Users\Administrator\AppData\Local\Temp\ccWuKATu.s 			page 31


 477 0022 1B19     		add	r3, r3, r4
 478 0024 1D75     		strb	r5, [r3, #20]
 986:Generated_Source\PSoC4/key_touch_Processing.c ****     wdStatusMask = key_touch_GET_WDGT_STATUS_MASK(wdgtId);
 479              		.loc 1 986 0
 480 0026 6309     		lsr	r3, r4, #5
 481              	.LVL83:
 987:Generated_Source\PSoC4/key_touch_Processing.c **** 
 482              		.loc 1 987 0
 483 0028 1F22     		mov	r2, #31
 484 002a 1440     		and	r4, r2
 485              	.LVL84:
 486 002c 1E3A     		sub	r2, r2, #30
 487 002e A240     		lsl	r2, r2, r4
 488 0030 141C     		mov	r4, r2
 489              	.LVL85:
 990:Generated_Source\PSoC4/key_touch_Processing.c ****     {
 490              		.loc 1 990 0
 491 0032 002D     		cmp	r5, #0
 492 0034 06D1     		bne	.L35
 992:Generated_Source\PSoC4/key_touch_Processing.c ****     }
 493              		.loc 1 992 0
 494 0036 0749     		ldr	r1, .L38
 495 0038 0433     		add	r3, r3, #4
 496              	.LVL86:
 497 003a 9B00     		lsl	r3, r3, #2
 498              	.LVL87:
 499 003c 5A58     		ldr	r2, [r3, r1]
 500              	.LVL88:
 501 003e A243     		bic	r2, r4
 502 0040 5A50     		str	r2, [r3, r1]
 503 0042 05E0     		b	.L31
 504              	.LVL89:
 505              	.L35:
 996:Generated_Source\PSoC4/key_touch_Processing.c ****     }
 506              		.loc 1 996 0
 507 0044 034A     		ldr	r2, .L38
 508              	.LVL90:
 509 0046 0433     		add	r3, r3, #4
 510              	.LVL91:
 511 0048 9B00     		lsl	r3, r3, #2
 512              	.LVL92:
 513 004a 9958     		ldr	r1, [r3, r2]
 514 004c 0C43     		orr	r4, r1
 515              	.LVL93:
 516 004e 9C50     		str	r4, [r3, r2]
 517              	.L31:
 998:Generated_Source\PSoC4/key_touch_Processing.c **** #endif /* #if (0u != key_touch_TOTAL_CSD_WIDGETS) */
 518              		.loc 1 998 0
 519              		@ sp needed
 520              	.LVL94:
 521 0050 38BD     		pop	{r3, r4, r5, pc}
 522              	.L39:
 523 0052 C046     		.align	2
 524              	.L38:
 525 0054 00000000 		.word	key_touch_dsRam
 526              		.cfi_endproc
 527              	.LFE4:
ARM GAS  C:\Users\Administrator\AppData\Local\Temp\ccWuKATu.s 			page 32


 528              		.size	key_touch_DpProcessCsdWidgetStatus, .-key_touch_DpProcessCsdWidgetStatus
 529              		.text
 530              	.Letext0:
 531              		.file 2 "Generated_Source\\PSoC4\\cytypes.h"
 532              		.file 3 "Generated_Source\\PSoC4\\key_touch_Configuration.h"
 533              		.file 4 "Generated_Source\\PSoC4\\key_touch_Structure.h"
 534              		.file 5 "d:\\program files (x86)\\cypress\\psoc creator\\4.0\\psoc creator\\import\\gnu\\arm\\4.9.
 535              		.file 6 "d:\\program files (x86)\\cypress\\psoc creator\\4.0\\psoc creator\\import\\gnu\\arm\\4.9.
 536              		.file 7 "Generated_Source\\PSoC4\\key_touch_Filter.h"
 537              		.file 8 "Generated_Source\\PSoC4\\CyLib.h"