ARM GAS  C:\Users\Administrator\AppData\Local\Temp\ccPYRpEO.s 			page 1


   1              		.cpu cortex-m0plus
   2              		.fpu softvfp
   3              		.eabi_attribute 20, 1
   4              		.eabi_attribute 21, 1
   5              		.eabi_attribute 23, 3
   6              		.eabi_attribute 24, 1
   7              		.eabi_attribute 25, 1
   8              		.eabi_attribute 26, 1
   9              		.eabi_attribute 30, 1
  10              		.eabi_attribute 34, 0
  11              		.eabi_attribute 18, 4
  12              		.code	16
  13              		.file	"key_touch_Sensing.c"
  14              		.text
  15              	.Ltext0:
  16              		.cfi_sections	.debug_frame
  17              		.section	.text.key_touch_IsBusy,"ax",%progbits
  18              		.align	2
  19              		.global	key_touch_IsBusy
  20              		.code	16
  21              		.thumb_func
  22              		.type	key_touch_IsBusy, %function
  23              	key_touch_IsBusy:
  24              	.LFB1:
  25              		.file 1 "Generated_Source\\PSoC4\\key_touch_Sensing.c"
   1:Generated_Source\PSoC4/key_touch_Sensing.c **** /***************************************************************************//**
   2:Generated_Source\PSoC4/key_touch_Sensing.c **** * \file key_touch_Sensing.c
   3:Generated_Source\PSoC4/key_touch_Sensing.c **** * \version 3.10
   4:Generated_Source\PSoC4/key_touch_Sensing.c **** *
   5:Generated_Source\PSoC4/key_touch_Sensing.c **** * \brief
   6:Generated_Source\PSoC4/key_touch_Sensing.c **** *   This file contains the source of functions common for
   7:Generated_Source\PSoC4/key_touch_Sensing.c **** *   different sensing methods.
   8:Generated_Source\PSoC4/key_touch_Sensing.c **** *
   9:Generated_Source\PSoC4/key_touch_Sensing.c **** * \see CapSense P4 v3.10 Datasheet
  10:Generated_Source\PSoC4/key_touch_Sensing.c **** *
  11:Generated_Source\PSoC4/key_touch_Sensing.c **** *//*****************************************************************************
  12:Generated_Source\PSoC4/key_touch_Sensing.c **** * Copyright (2016), Cypress Semiconductor Corporation.
  13:Generated_Source\PSoC4/key_touch_Sensing.c **** ********************************************************************************
  14:Generated_Source\PSoC4/key_touch_Sensing.c **** * This software is owned by Cypress Semiconductor Corporation (Cypress) and is
  15:Generated_Source\PSoC4/key_touch_Sensing.c **** * protected by and subject to worldwide patent protection (United States and
  16:Generated_Source\PSoC4/key_touch_Sensing.c **** * foreign), United States copyright laws and international treaty provisions.
  17:Generated_Source\PSoC4/key_touch_Sensing.c **** * Cypress hereby grants to licensee a personal, non-exclusive, non-transferable
  18:Generated_Source\PSoC4/key_touch_Sensing.c **** * license to copy, use, modify, create derivative works of, and compile the
  19:Generated_Source\PSoC4/key_touch_Sensing.c **** * Cypress Source Code and derivative works for the sole purpose of creating
  20:Generated_Source\PSoC4/key_touch_Sensing.c **** * custom software in support of licensee product to be used only in conjunction
  21:Generated_Source\PSoC4/key_touch_Sensing.c **** * with a Cypress integrated circuit as specified in the applicable agreement.
  22:Generated_Source\PSoC4/key_touch_Sensing.c **** * Any reproduction, modification, translation, compilation, or representation of
  23:Generated_Source\PSoC4/key_touch_Sensing.c **** * this software except as specified above is prohibited without the express
  24:Generated_Source\PSoC4/key_touch_Sensing.c **** * written permission of Cypress.
  25:Generated_Source\PSoC4/key_touch_Sensing.c **** *
  26:Generated_Source\PSoC4/key_touch_Sensing.c **** * Disclaimer: CYPRESS MAKES NO WARRANTY OF ANY KIND, EXPRESS OR IMPLIED, WITH
  27:Generated_Source\PSoC4/key_touch_Sensing.c **** * REGARD TO THIS MATERIAL, INCLUDING, BUT NOT LIMITED TO, THE IMPLIED
  28:Generated_Source\PSoC4/key_touch_Sensing.c **** * WARRANTIES OF MERCHANTABILITY AND FITNESS FOR A PARTICULAR PURPOSE.
  29:Generated_Source\PSoC4/key_touch_Sensing.c **** * Cypress reserves the right to make changes without further notice to the
  30:Generated_Source\PSoC4/key_touch_Sensing.c **** * materials described herein. Cypress does not assume any liability arising out
  31:Generated_Source\PSoC4/key_touch_Sensing.c **** * of the application or use of any product or circuit described herein. Cypress
  32:Generated_Source\PSoC4/key_touch_Sensing.c **** * does not authorize its products for use as critical components in life-support
ARM GAS  C:\Users\Administrator\AppData\Local\Temp\ccPYRpEO.s 			page 2


  33:Generated_Source\PSoC4/key_touch_Sensing.c **** * systems where a malfunction or failure may reasonably be expected to result in
  34:Generated_Source\PSoC4/key_touch_Sensing.c **** * significant injury to the user. The inclusion of Cypress' product in a life-
  35:Generated_Source\PSoC4/key_touch_Sensing.c **** * support systems application implies that the manufacturer assumes all risk of
  36:Generated_Source\PSoC4/key_touch_Sensing.c **** * such use and in doing so indemnifies Cypress against all charges. Use may be
  37:Generated_Source\PSoC4/key_touch_Sensing.c **** * limited by and subject to the applicable Cypress software license agreement.
  38:Generated_Source\PSoC4/key_touch_Sensing.c **** *******************************************************************************/
  39:Generated_Source\PSoC4/key_touch_Sensing.c **** 
  40:Generated_Source\PSoC4/key_touch_Sensing.c **** #include "cyfitter.h"
  41:Generated_Source\PSoC4/key_touch_Sensing.c **** #include "key_touch_Structure.h"
  42:Generated_Source\PSoC4/key_touch_Sensing.c **** #include "key_touch_Configuration.h"
  43:Generated_Source\PSoC4/key_touch_Sensing.c **** #include "key_touch_Sensing.h"
  44:Generated_Source\PSoC4/key_touch_Sensing.c **** #if (key_touch_ENABLE == key_touch_SELF_TEST_EN)
  45:Generated_Source\PSoC4/key_touch_Sensing.c ****     #include "key_touch_SelfTest.h"
  46:Generated_Source\PSoC4/key_touch_Sensing.c **** #endif
  47:Generated_Source\PSoC4/key_touch_Sensing.c **** 
  48:Generated_Source\PSoC4/key_touch_Sensing.c **** /***************************************
  49:Generated_Source\PSoC4/key_touch_Sensing.c **** * API Constants
  50:Generated_Source\PSoC4/key_touch_Sensing.c **** ***************************************/
  51:Generated_Source\PSoC4/key_touch_Sensing.c **** 
  52:Generated_Source\PSoC4/key_touch_Sensing.c **** #define key_touch_WIDGET_NUM_32                          (32u)
  53:Generated_Source\PSoC4/key_touch_Sensing.c **** #define key_touch_WIDGET_NUM_32_DIV_SHIFT                (5u)
  54:Generated_Source\PSoC4/key_touch_Sensing.c **** #define key_touch_WIDGET_NUM_32_MASK                     (0x0000001FLu)
  55:Generated_Source\PSoC4/key_touch_Sensing.c **** #define key_touch_CALIBRATION_RESOLUTION                 (12u)
  56:Generated_Source\PSoC4/key_touch_Sensing.c **** #define key_touch_COARSE_TRIM_THRESHOLD_1                (40u)
  57:Generated_Source\PSoC4/key_touch_Sensing.c **** #define key_touch_COARSE_TRIM_THRESHOLD_2                (215u)
  58:Generated_Source\PSoC4/key_touch_Sensing.c **** #define key_touch_FREQUENCY_OFFSET_5                     (20u)
  59:Generated_Source\PSoC4/key_touch_Sensing.c **** #define key_touch_FREQUENCY_OFFSET_10                    (40u)
  60:Generated_Source\PSoC4/key_touch_Sensing.c **** #define key_touch_CALIBRATION_FREQ_KHZ                   (1500u)
  61:Generated_Source\PSoC4/key_touch_Sensing.c **** #define key_touch_CALIBRATION_MD                         (2u)
  62:Generated_Source\PSoC4/key_touch_Sensing.c **** #define key_touch_MIN_IMO_FREQ_KHZ                       (6000u)
  63:Generated_Source\PSoC4/key_touch_Sensing.c **** #define key_touch_CSD_AUTOTUNE_CAL_LEVEL                 (key_touch_CSD_RAWCOUNT_CAL_LEVEL)
  64:Generated_Source\PSoC4/key_touch_Sensing.c **** #define key_touch_CP_MIN                                 (0u)
  65:Generated_Source\PSoC4/key_touch_Sensing.c **** #define key_touch_CP_MAX                                 (65000Lu)
  66:Generated_Source\PSoC4/key_touch_Sensing.c **** #define key_touch_CP_ERROR                               (4000Lu)
  67:Generated_Source\PSoC4/key_touch_Sensing.c **** #if (key_touch_ENABLE == key_touch_CSD2X_EN)
  68:Generated_Source\PSoC4/key_touch_Sensing.c ****     #define key_touch_TOTAL_SLOTS                        (key_touch_TOTAL_SCAN_SLOTS)
  69:Generated_Source\PSoC4/key_touch_Sensing.c **** #else
  70:Generated_Source\PSoC4/key_touch_Sensing.c ****     #define key_touch_TOTAL_SLOTS                        (key_touch_TOTAL_WIDGETS)
  71:Generated_Source\PSoC4/key_touch_Sensing.c **** #endif /* (key_touch_ENABLE == key_touch_CSD2X_EN) */
  72:Generated_Source\PSoC4/key_touch_Sensing.c **** 
  73:Generated_Source\PSoC4/key_touch_Sensing.c **** #define key_touch_CLK_SOURCE_LFSR_SCALE_OFFSET           (4u)
  74:Generated_Source\PSoC4/key_touch_Sensing.c **** 
  75:Generated_Source\PSoC4/key_touch_Sensing.c **** #if (key_touch_CLK_SOURCE_DIRECT != key_touch_CSD_SNS_CLK_SOURCE)
  76:Generated_Source\PSoC4/key_touch_Sensing.c ****     #if (key_touch_ENABLE == key_touch_CSDV2)
  77:Generated_Source\PSoC4/key_touch_Sensing.c ****         #define key_touch_PRS_FACTOR_DIV                 (2u)
  78:Generated_Source\PSoC4/key_touch_Sensing.c ****     #else
  79:Generated_Source\PSoC4/key_touch_Sensing.c ****         #define key_touch_PRS_FACTOR_DIV                 (1u)
  80:Generated_Source\PSoC4/key_touch_Sensing.c ****     #endif /* (key_touch_ENABLE == key_touch_CSDV2) */
  81:Generated_Source\PSoC4/key_touch_Sensing.c **** #else
  82:Generated_Source\PSoC4/key_touch_Sensing.c ****     #define key_touch_PRS_FACTOR_DIV                     (0u)
  83:Generated_Source\PSoC4/key_touch_Sensing.c **** #endif /* (key_touch_CLK_SOURCE_DIRECT != key_touch_CSD_SNS_CLK_SOURCE) */
  84:Generated_Source\PSoC4/key_touch_Sensing.c **** 
  85:Generated_Source\PSoC4/key_touch_Sensing.c **** #define key_touch_FLIP_FLOP_DIV                          (1u)
  86:Generated_Source\PSoC4/key_touch_Sensing.c **** 
  87:Generated_Source\PSoC4/key_touch_Sensing.c **** #define key_touch_MOD_CSD_CLK_12000KHZ                   (12000uL)
  88:Generated_Source\PSoC4/key_touch_Sensing.c **** #define key_touch_MOD_CSD_CLK_24000KHZ                   (24000uL)
  89:Generated_Source\PSoC4/key_touch_Sensing.c **** #define key_touch_MOD_CSD_CLK_48000KHZ                   (48000uL)
ARM GAS  C:\Users\Administrator\AppData\Local\Temp\ccPYRpEO.s 			page 3


  90:Generated_Source\PSoC4/key_touch_Sensing.c **** 
  91:Generated_Source\PSoC4/key_touch_Sensing.c **** #if ((key_touch_CLK_SOURCE_PRS8 == key_touch_CSD_SNS_CLK_SOURCE) || \
  92:Generated_Source\PSoC4/key_touch_Sensing.c ****     (key_touch_CLK_SOURCE_PRS12 == key_touch_CSD_SNS_CLK_SOURCE) || \
  93:Generated_Source\PSoC4/key_touch_Sensing.c ****     (key_touch_CLK_SOURCE_PRSAUTO == key_touch_CSD_SNS_CLK_SOURCE))
  94:Generated_Source\PSoC4/key_touch_Sensing.c ****     #define key_touch_FACTOR_FILTER_DELAY_12MHZ          (2u)
  95:Generated_Source\PSoC4/key_touch_Sensing.c **** #else
  96:Generated_Source\PSoC4/key_touch_Sensing.c ****     #define key_touch_FACTOR_FILTER_DELAY_12MHZ          (4u)
  97:Generated_Source\PSoC4/key_touch_Sensing.c **** #endif /* (key_touch_CLK_SOURCE_DIRECT != key_touch_CSD_SNS_CLK_SOURCE) */
  98:Generated_Source\PSoC4/key_touch_Sensing.c **** 
  99:Generated_Source\PSoC4/key_touch_Sensing.c **** #define key_touch_FACTOR_MOD_SNS                         (8u)
 100:Generated_Source\PSoC4/key_touch_Sensing.c **** #define key_touch_UINT8_MAX_VAL                          (0xFFu)
 101:Generated_Source\PSoC4/key_touch_Sensing.c **** #define key_touch_MSB_OFFSET                             (8u)
 102:Generated_Source\PSoC4/key_touch_Sensing.c **** 
 103:Generated_Source\PSoC4/key_touch_Sensing.c **** /*****************************************************************************/
 104:Generated_Source\PSoC4/key_touch_Sensing.c **** /* Enumeration types definition                                               */
 105:Generated_Source\PSoC4/key_touch_Sensing.c **** /*****************************************************************************/
 106:Generated_Source\PSoC4/key_touch_Sensing.c **** 
 107:Generated_Source\PSoC4/key_touch_Sensing.c **** typedef enum
 108:Generated_Source\PSoC4/key_touch_Sensing.c **** {
 109:Generated_Source\PSoC4/key_touch_Sensing.c ****     key_touch_RES_PULLUP_E   = 0x02u,
 110:Generated_Source\PSoC4/key_touch_Sensing.c ****     key_touch_RES_PULLDOWN_E = 0x03u
 111:Generated_Source\PSoC4/key_touch_Sensing.c **** } key_touch_PORT_TEST_DM;
 112:Generated_Source\PSoC4/key_touch_Sensing.c **** 
 113:Generated_Source\PSoC4/key_touch_Sensing.c **** typedef enum
 114:Generated_Source\PSoC4/key_touch_Sensing.c **** {
 115:Generated_Source\PSoC4/key_touch_Sensing.c ****     key_touch_STS_RESET      = 0x01u,
 116:Generated_Source\PSoC4/key_touch_Sensing.c ****     key_touch_STS_NO_RESET   = 0x02u
 117:Generated_Source\PSoC4/key_touch_Sensing.c **** } key_touch_TEST_TYPE;
 118:Generated_Source\PSoC4/key_touch_Sensing.c **** 
 119:Generated_Source\PSoC4/key_touch_Sensing.c **** 
 120:Generated_Source\PSoC4/key_touch_Sensing.c **** /*******************************************************************************
 121:Generated_Source\PSoC4/key_touch_Sensing.c **** * Static Function Prototypes
 122:Generated_Source\PSoC4/key_touch_Sensing.c **** *******************************************************************************/
 123:Generated_Source\PSoC4/key_touch_Sensing.c **** /**
 124:Generated_Source\PSoC4/key_touch_Sensing.c **** * \if SECTION_CAPSENSE_INTERNAL
 125:Generated_Source\PSoC4/key_touch_Sensing.c **** * \addtogroup group_capsense_internal
 126:Generated_Source\PSoC4/key_touch_Sensing.c **** * \{
 127:Generated_Source\PSoC4/key_touch_Sensing.c **** */
 128:Generated_Source\PSoC4/key_touch_Sensing.c **** 
 129:Generated_Source\PSoC4/key_touch_Sensing.c **** #if (key_touch_DISABLE == key_touch_CSDV2)
 130:Generated_Source\PSoC4/key_touch_Sensing.c ****     static void key_touch_SsTrimIdacs(void);
 131:Generated_Source\PSoC4/key_touch_Sensing.c ****     #if ((key_touch_ENABLE == key_touch_CSX_EN) || \
 132:Generated_Source\PSoC4/key_touch_Sensing.c ****          (key_touch_IDAC_SINKING == key_touch_CSD_IDAC_CONFIG))
 133:Generated_Source\PSoC4/key_touch_Sensing.c ****         static void key_touch_SsTrimIdacsSinking(void);
 134:Generated_Source\PSoC4/key_touch_Sensing.c ****     #endif /* ((key_touch_ENABLE == key_touch_CSX_EN) || \
 135:Generated_Source\PSoC4/key_touch_Sensing.c ****                (key_touch_IDAC_SINKING == key_touch_CSD_IDAC_CONFIG)) */
 136:Generated_Source\PSoC4/key_touch_Sensing.c ****     #if ((key_touch_ENABLE == key_touch_CSX_EN) || \
 137:Generated_Source\PSoC4/key_touch_Sensing.c ****          (key_touch_IDAC_SOURCING == key_touch_CSD_IDAC_CONFIG))
 138:Generated_Source\PSoC4/key_touch_Sensing.c ****         static void key_touch_SsTrimIdacsSourcing(void);
 139:Generated_Source\PSoC4/key_touch_Sensing.c ****     #endif /* ((key_touch_ENABLE == key_touch_CSX_EN) || \
 140:Generated_Source\PSoC4/key_touch_Sensing.c ****                (key_touch_IDAC_SOURCING == key_touch_CSD_IDAC_CONFIG)) */
 141:Generated_Source\PSoC4/key_touch_Sensing.c **** #endif /* (key_touch_ENABLE == key_touch_CSDV2) */
 142:Generated_Source\PSoC4/key_touch_Sensing.c **** #if ((key_touch_ENABLE == key_touch_CSD_CSX_EN) || \
 143:Generated_Source\PSoC4/key_touch_Sensing.c ****      (key_touch_ENABLE == key_touch_SELF_TEST_EN) || \
 144:Generated_Source\PSoC4/key_touch_Sensing.c ****      (key_touch_ENABLE == key_touch_ADC_EN))
 145:Generated_Source\PSoC4/key_touch_Sensing.c ****     #if (key_touch_ENABLE == key_touch_CSD_EN)
 146:Generated_Source\PSoC4/key_touch_Sensing.c ****         static void key_touch_SsCSDDisableMode(void);
ARM GAS  C:\Users\Administrator\AppData\Local\Temp\ccPYRpEO.s 			page 4


 147:Generated_Source\PSoC4/key_touch_Sensing.c ****     #endif /* (key_touch_ENABLE == key_touch_CSD_EN) */
 148:Generated_Source\PSoC4/key_touch_Sensing.c ****     #if (key_touch_ENABLE == key_touch_CSX_EN)
 149:Generated_Source\PSoC4/key_touch_Sensing.c ****         static void key_touch_SsDisableCSXMode(void);
 150:Generated_Source\PSoC4/key_touch_Sensing.c ****     #endif /* (key_touch_ENABLE == key_touch_CSX_EN) */
 151:Generated_Source\PSoC4/key_touch_Sensing.c **** #endif /* ((key_touch_ENABLE == key_touch_CSD_CSX_EN) || \
 152:Generated_Source\PSoC4/key_touch_Sensing.c ****            (key_touch_ENABLE == key_touch_SELF_TEST_EN) || \
 153:Generated_Source\PSoC4/key_touch_Sensing.c ****            (key_touch_ENABLE == key_touch_ADC_EN)) */
 154:Generated_Source\PSoC4/key_touch_Sensing.c **** #if (key_touch_CSD_SS_DIS != key_touch_CSD_AUTOTUNE)
 155:Generated_Source\PSoC4/key_touch_Sensing.c ****     #if (key_touch_ENABLE == key_touch_CSD2X_EN)
 156:Generated_Source\PSoC4/key_touch_Sensing.c ****         static void key_touch_SsSetCSD0DirectClockMode(void);
 157:Generated_Source\PSoC4/key_touch_Sensing.c ****         static void key_touch_SsSetCSD1DirectClockMode(void);
 158:Generated_Source\PSoC4/key_touch_Sensing.c ****     #else
 159:Generated_Source\PSoC4/key_touch_Sensing.c ****         static void key_touch_SsSetDirectClockMode(void);
 160:Generated_Source\PSoC4/key_touch_Sensing.c ****     #endif /* (key_touch_ENABLE == key_touch_CSD2X_EN) */
 161:Generated_Source\PSoC4/key_touch_Sensing.c **** #endif /* (key_touch_CSD_SS_DIS != key_touch_CSD_AUTOTUNE) */
 162:Generated_Source\PSoC4/key_touch_Sensing.c **** 
 163:Generated_Source\PSoC4/key_touch_Sensing.c **** #if(((key_touch_ENABLE == key_touch_CSX_EN) && \
 164:Generated_Source\PSoC4/key_touch_Sensing.c ****      (key_touch_ENABLE == key_touch_CSDV2) && \
 165:Generated_Source\PSoC4/key_touch_Sensing.c ****      (key_touch_CLK_SOURCE_PRSAUTO == key_touch_CSX_TX_CLK_SOURCE)) ||\
 166:Generated_Source\PSoC4/key_touch_Sensing.c ****     ((key_touch_ENABLE == key_touch_CSD_EN) && \
 167:Generated_Source\PSoC4/key_touch_Sensing.c ****      (key_touch_ENABLE == key_touch_CSDV2) && \
 168:Generated_Source\PSoC4/key_touch_Sensing.c ****      (key_touch_CLK_SOURCE_PRSAUTO == key_touch_CSD_SNS_CLK_SOURCE)))
 169:Generated_Source\PSoC4/key_touch_Sensing.c ****     static CY_INLINE uint8 key_touch_SsCalcLfsrSize(uint32 snsClkDivider, uint32 conversionsNum);
 170:Generated_Source\PSoC4/key_touch_Sensing.c ****     static CY_INLINE uint8 key_touch_SsCalcLfsrScale(uint32 snsClkDivider, uint8 lfsrSize);
 171:Generated_Source\PSoC4/key_touch_Sensing.c **** #endif /* (((key_touch_ENABLE == key_touch_CSX_EN) && \
 172:Generated_Source\PSoC4/key_touch_Sensing.c ****             (key_touch_ENABLE == key_touch_CSDV2) && \
 173:Generated_Source\PSoC4/key_touch_Sensing.c ****             (key_touch_CLK_SOURCE_PRSAUTO == key_touch_CSX_TX_CLK_SOURCE)) ||\
 174:Generated_Source\PSoC4/key_touch_Sensing.c ****            ((key_touch_ENABLE == key_touch_CSD_EN) && \
 175:Generated_Source\PSoC4/key_touch_Sensing.c ****             (key_touch_ENABLE == key_touch_CSDV2) && \
 176:Generated_Source\PSoC4/key_touch_Sensing.c ****             (key_touch_CLK_SOURCE_PRSAUTO == key_touch_CSD_SNS_CLK_SOURCE))) */
 177:Generated_Source\PSoC4/key_touch_Sensing.c **** #if ((key_touch_CSD_SS_DIS != key_touch_CSD_AUTOTUNE) && \
 178:Generated_Source\PSoC4/key_touch_Sensing.c ****     (key_touch_ENABLE == key_touch_CSD2X_EN))
 179:Generated_Source\PSoC4/key_touch_Sensing.c ****     static void key_touch_SsSetEqualSlotClock(void);
 180:Generated_Source\PSoC4/key_touch_Sensing.c **** #endif /* ((key_touch_CSD_SS_DIS != key_touch_CSD_AUTOTUNE) \
 181:Generated_Source\PSoC4/key_touch_Sensing.c ****            (key_touch_ENABLE == key_touch_CSD2X_EN)) */
 182:Generated_Source\PSoC4/key_touch_Sensing.c **** #if ((key_touch_ENABLE == key_touch_CSD_EN) || (key_touch_ENABLE == key_touch_CSD2X_EN))
 183:Generated_Source\PSoC4/key_touch_Sensing.c ****     static void key_touch_SsSetWidgetSenseClkSrc(uint32 wdgtIndex, key_touch_RAM_WD_BASE_STRUCT * p
 184:Generated_Source\PSoC4/key_touch_Sensing.c **** #endif /* ((key_touch_ENABLE == key_touch_CSD_EN) || (key_touch_ENABLE == key_touch_CSD2X_EN)) */
 185:Generated_Source\PSoC4/key_touch_Sensing.c **** 
 186:Generated_Source\PSoC4/key_touch_Sensing.c **** #if ((key_touch_ENABLE == key_touch_CSX_EN) && (key_touch_ENABLE == key_touch_CSDV2))
 187:Generated_Source\PSoC4/key_touch_Sensing.c ****     static void key_touch_SsSetWidgetTxClkSrc(uint32 wdgtIndex, key_touch_RAM_WD_BASE_STRUCT * ptrW
 188:Generated_Source\PSoC4/key_touch_Sensing.c **** #endif /* ((key_touch_ENABLE == key_touch_CSX_EN) && (key_touch_ENABLE == key_touch_CSDV2)) */
 189:Generated_Source\PSoC4/key_touch_Sensing.c **** 
 190:Generated_Source\PSoC4/key_touch_Sensing.c **** /** \}
 191:Generated_Source\PSoC4/key_touch_Sensing.c **** * \endif */
 192:Generated_Source\PSoC4/key_touch_Sensing.c **** 
 193:Generated_Source\PSoC4/key_touch_Sensing.c **** /*******************************************************************************
 194:Generated_Source\PSoC4/key_touch_Sensing.c **** * Define module variables
 195:Generated_Source\PSoC4/key_touch_Sensing.c **** *******************************************************************************/
 196:Generated_Source\PSoC4/key_touch_Sensing.c **** 
 197:Generated_Source\PSoC4/key_touch_Sensing.c **** #if ((key_touch_ENABLE == key_touch_CSD_CSX_EN) || \
 198:Generated_Source\PSoC4/key_touch_Sensing.c ****      (key_touch_ENABLE == key_touch_SELF_TEST_EN) || \
 199:Generated_Source\PSoC4/key_touch_Sensing.c ****      (key_touch_ENABLE == key_touch_ADC_EN))
 200:Generated_Source\PSoC4/key_touch_Sensing.c ****     key_touch_SENSE_METHOD_ENUM key_touch_currentSenseMethod = key_touch_UNDEFINED_E;
 201:Generated_Source\PSoC4/key_touch_Sensing.c **** #endif /* ((key_touch_ENABLE == key_touch_CSD_CSX_EN) || \
 202:Generated_Source\PSoC4/key_touch_Sensing.c ****            (key_touch_ENABLE == key_touch_SELF_TEST_EN) || \
 203:Generated_Source\PSoC4/key_touch_Sensing.c ****            (key_touch_ENABLE == key_touch_ADC_EN))) */
ARM GAS  C:\Users\Administrator\AppData\Local\Temp\ccPYRpEO.s 			page 5


 204:Generated_Source\PSoC4/key_touch_Sensing.c **** 
 205:Generated_Source\PSoC4/key_touch_Sensing.c **** #if(key_touch_ENABLE == key_touch_MULTI_FREQ_SCAN_EN)
 206:Generated_Source\PSoC4/key_touch_Sensing.c ****     /*  Module variable keep track of frequency hopping channel index   */
 207:Generated_Source\PSoC4/key_touch_Sensing.c ****     uint8 key_touch_scanFreqIndex = 0u;
 208:Generated_Source\PSoC4/key_touch_Sensing.c ****     /*  Variable keep frequency offsets */
 209:Generated_Source\PSoC4/key_touch_Sensing.c ****     uint8 key_touch_immunity[key_touch_NUM_SCAN_FREQS] = {0u, 0u, 0u};
 210:Generated_Source\PSoC4/key_touch_Sensing.c **** #else
 211:Generated_Source\PSoC4/key_touch_Sensing.c ****     /* const allows C-compiler to do optimization */
 212:Generated_Source\PSoC4/key_touch_Sensing.c ****     const uint8 key_touch_scanFreqIndex = 0u;
 213:Generated_Source\PSoC4/key_touch_Sensing.c **** #endif /* (key_touch_ENABLE == key_touch_MULTI_FREQ_SCAN_EN) */
 214:Generated_Source\PSoC4/key_touch_Sensing.c **** 
 215:Generated_Source\PSoC4/key_touch_Sensing.c **** /* Global software variables */
 216:Generated_Source\PSoC4/key_touch_Sensing.c **** #if (key_touch_ENABLE == key_touch_CSD2X_EN)
 217:Generated_Source\PSoC4/key_touch_Sensing.c ****     volatile uint8 key_touch_widgetIndex0 = 0u;    /* Index of the scanning widget0 */
 218:Generated_Source\PSoC4/key_touch_Sensing.c ****     volatile uint8 key_touch_sensorIndex0 = 0u;    /* Index of the scanning sensor0 */
 219:Generated_Source\PSoC4/key_touch_Sensing.c ****     volatile uint8 key_touch_widgetIndex1 = 0u;    /* Index of the scanning widget1 */
 220:Generated_Source\PSoC4/key_touch_Sensing.c ****     volatile uint8 key_touch_sensorIndex1 = 0u;    /* Index of the scanning sensor1 */
 221:Generated_Source\PSoC4/key_touch_Sensing.c **** #else
 222:Generated_Source\PSoC4/key_touch_Sensing.c ****     volatile uint8 key_touch_widgetIndex = 0u;    /* Index of the scanning widget */
 223:Generated_Source\PSoC4/key_touch_Sensing.c ****     volatile uint8 key_touch_sensorIndex = 0u;    /* Index of the scanning sensor */
 224:Generated_Source\PSoC4/key_touch_Sensing.c **** #endif /* (key_touch_ENABLE == key_touch_CSD2X_EN) */
 225:Generated_Source\PSoC4/key_touch_Sensing.c **** uint8 key_touch_requestScanAllWidget = 0u;
 226:Generated_Source\PSoC4/key_touch_Sensing.c **** #if (key_touch_CSD_SS_DIS != key_touch_CSD_AUTOTUNE)
 227:Generated_Source\PSoC4/key_touch_Sensing.c ****     uint8 key_touch_prescalersTuningDone = 0u;
 228:Generated_Source\PSoC4/key_touch_Sensing.c **** #endif /* (key_touch_CSD_SS_DIS != key_touch_CSD_AUTOTUNE) */
 229:Generated_Source\PSoC4/key_touch_Sensing.c **** 
 230:Generated_Source\PSoC4/key_touch_Sensing.c **** /* Pointer to RAM_SNS_STRUCT structure  */
 231:Generated_Source\PSoC4/key_touch_Sensing.c **** #if (key_touch_ENABLE == key_touch_CSD2X_EN)
 232:Generated_Source\PSoC4/key_touch_Sensing.c ****     key_touch_RAM_SNS_STRUCT *key_touch_curRamSnsPtr0;
 233:Generated_Source\PSoC4/key_touch_Sensing.c ****     key_touch_RAM_SNS_STRUCT *key_touch_curRamSnsPtr1;
 234:Generated_Source\PSoC4/key_touch_Sensing.c **** #else
 235:Generated_Source\PSoC4/key_touch_Sensing.c ****     key_touch_RAM_SNS_STRUCT *key_touch_curRamSnsPtr;
 236:Generated_Source\PSoC4/key_touch_Sensing.c **** #endif /* (key_touch_ENABLE == key_touch_CSD2X_EN) */
 237:Generated_Source\PSoC4/key_touch_Sensing.c **** 
 238:Generated_Source\PSoC4/key_touch_Sensing.c **** #if ((key_touch_ENABLE == key_touch_CSD_GANGED_SNS_EN) || \
 239:Generated_Source\PSoC4/key_touch_Sensing.c ****      (key_touch_ENABLE == key_touch_CSX_EN))
 240:Generated_Source\PSoC4/key_touch_Sensing.c ****     /*  Pointer to Flash structure holding configuration of widget to be scanned  */
 241:Generated_Source\PSoC4/key_touch_Sensing.c ****     #if (key_touch_ENABLE == key_touch_CSD2X_EN)
 242:Generated_Source\PSoC4/key_touch_Sensing.c ****          key_touch_FLASH_WD_STRUCT const *key_touch_curFlashWdgtPtr0 = 0u;
 243:Generated_Source\PSoC4/key_touch_Sensing.c ****          key_touch_FLASH_WD_STRUCT const *key_touch_curFlashWdgtPtr1 = 0u;
 244:Generated_Source\PSoC4/key_touch_Sensing.c ****     #else
 245:Generated_Source\PSoC4/key_touch_Sensing.c ****          key_touch_FLASH_WD_STRUCT const *key_touch_curFlashWdgtPtr = 0u;
 246:Generated_Source\PSoC4/key_touch_Sensing.c ****     #endif /* (key_touch_ENABLE == key_touch_CSD2X_EN) */
 247:Generated_Source\PSoC4/key_touch_Sensing.c **** #endif /* ((key_touch_ENABLE == key_touch_CSD_GANGED_SNS_EN) || \
 248:Generated_Source\PSoC4/key_touch_Sensing.c ****            (key_touch_ENABLE == key_touch_CSX_EN))  */
 249:Generated_Source\PSoC4/key_touch_Sensing.c **** #if (key_touch_ENABLE == key_touch_CSD_GANGED_SNS_EN)
 250:Generated_Source\PSoC4/key_touch_Sensing.c ****     /*  Pointer to Flash structure holding info of sensor to be scanned  */
 251:Generated_Source\PSoC4/key_touch_Sensing.c ****     #if (key_touch_ENABLE == key_touch_CSD2X_EN)
 252:Generated_Source\PSoC4/key_touch_Sensing.c ****         key_touch_FLASH_SNS_STRUCT const *key_touch_curFlashSnsPtr0 = 0u;
 253:Generated_Source\PSoC4/key_touch_Sensing.c ****         key_touch_FLASH_SNS_STRUCT const *key_touch_curFlashSnsPtr1 = 0u;
 254:Generated_Source\PSoC4/key_touch_Sensing.c ****     #else
 255:Generated_Source\PSoC4/key_touch_Sensing.c ****         key_touch_FLASH_SNS_STRUCT const *key_touch_curFlashSnsPtr = 0u;
 256:Generated_Source\PSoC4/key_touch_Sensing.c ****     #endif /* (key_touch_ENABLE == key_touch_CSD2X_EN) */
 257:Generated_Source\PSoC4/key_touch_Sensing.c **** #endif /* (key_touch_ENABLE == key_touch_CSD_GANGED_SNS_EN) */
 258:Generated_Source\PSoC4/key_touch_Sensing.c **** /*  Pointer to Flash structure to hold Sns electrode that was connected previously  */
 259:Generated_Source\PSoC4/key_touch_Sensing.c **** #if (key_touch_ENABLE == key_touch_CSD2X_EN)
 260:Generated_Source\PSoC4/key_touch_Sensing.c ****     key_touch_FLASH_IO_STRUCT const *key_touch_curSnsIOPtr0;
ARM GAS  C:\Users\Administrator\AppData\Local\Temp\ccPYRpEO.s 			page 6


 261:Generated_Source\PSoC4/key_touch_Sensing.c ****     key_touch_FLASH_IO_STRUCT const *key_touch_curSnsIOPtr1;
 262:Generated_Source\PSoC4/key_touch_Sensing.c **** #else
 263:Generated_Source\PSoC4/key_touch_Sensing.c ****     key_touch_FLASH_IO_STRUCT const *key_touch_curSnsIOPtr;
 264:Generated_Source\PSoC4/key_touch_Sensing.c **** #endif /* (key_touch_ENABLE == key_touch_CSD2X_EN) */
 265:Generated_Source\PSoC4/key_touch_Sensing.c **** 
 266:Generated_Source\PSoC4/key_touch_Sensing.c **** /*******************************************************************************
 267:Generated_Source\PSoC4/key_touch_Sensing.c **** * Function Name: key_touch_IsBusy
 268:Generated_Source\PSoC4/key_touch_Sensing.c **** ****************************************************************************//**
 269:Generated_Source\PSoC4/key_touch_Sensing.c **** *
 270:Generated_Source\PSoC4/key_touch_Sensing.c **** * \brief
 271:Generated_Source\PSoC4/key_touch_Sensing.c **** *  Returns the current status of the component (scan completed or scan in
 272:Generated_Source\PSoC4/key_touch_Sensing.c **** *  progress).
 273:Generated_Source\PSoC4/key_touch_Sensing.c **** *
 274:Generated_Source\PSoC4/key_touch_Sensing.c **** * \details
 275:Generated_Source\PSoC4/key_touch_Sensing.c **** *  This function returns the status of the hardware block whether a scan is
 276:Generated_Source\PSoC4/key_touch_Sensing.c **** *  currently in progress or not. If the component is busy, no new scan or setup
 277:Generated_Source\PSoC4/key_touch_Sensing.c **** *  widgets should be made. It is recommended using the critical section (i.e.
 278:Generated_Source\PSoC4/key_touch_Sensing.c **** *  disable global interrupt) in the application when the device transitions from
 279:Generated_Source\PSoC4/key_touch_Sensing.c **** *  the active mode to sleep or deep sleep mode.
 280:Generated_Source\PSoC4/key_touch_Sensing.c **** *
 281:Generated_Source\PSoC4/key_touch_Sensing.c **** * \return
 282:Generated_Source\PSoC4/key_touch_Sensing.c **** *  Returns the current status of the component:
 283:Generated_Source\PSoC4/key_touch_Sensing.c **** *    - key_touch_NOT_BUSY if there is no scan in progress and a next scan
 284:Generated_Source\PSoC4/key_touch_Sensing.c **** *      can be initiated.
 285:Generated_Source\PSoC4/key_touch_Sensing.c **** *    - key_touch_SW_STS_BUSY if the previous scanning is not completed
 286:Generated_Source\PSoC4/key_touch_Sensing.c **** *      and the hardware block is busy.
 287:Generated_Source\PSoC4/key_touch_Sensing.c **** *
 288:Generated_Source\PSoC4/key_touch_Sensing.c **** *******************************************************************************/
 289:Generated_Source\PSoC4/key_touch_Sensing.c **** uint32 key_touch_IsBusy(void)
 290:Generated_Source\PSoC4/key_touch_Sensing.c **** {
  26              		.loc 1 290 0
  27              		.cfi_startproc
 291:Generated_Source\PSoC4/key_touch_Sensing.c ****     return ((*(volatile uint32 *)&key_touch_dsRam.status) & key_touch_SW_STS_BUSY);
  28              		.loc 1 291 0
  29 0000 024B     		ldr	r3, .L2
  30 0002 9B68     		ldr	r3, [r3, #8]
  31 0004 8020     		mov	r0, #128
  32 0006 1840     		and	r0, r3
 292:Generated_Source\PSoC4/key_touch_Sensing.c **** }
  33              		.loc 1 292 0
  34              		@ sp needed
  35 0008 7047     		bx	lr
  36              	.L3:
  37 000a C046     		.align	2
  38              	.L2:
  39 000c 00000000 		.word	key_touch_dsRam
  40              		.cfi_endproc
  41              	.LFE1:
  42              		.size	key_touch_IsBusy, .-key_touch_IsBusy
  43              		.section	.text.key_touch_SetupWidget,"ax",%progbits
  44              		.align	2
  45              		.global	key_touch_SetupWidget
  46              		.code	16
  47              		.thumb_func
  48              		.type	key_touch_SetupWidget, %function
  49              	key_touch_SetupWidget:
  50              	.LFB2:
ARM GAS  C:\Users\Administrator\AppData\Local\Temp\ccPYRpEO.s 			page 7


 293:Generated_Source\PSoC4/key_touch_Sensing.c **** 
 294:Generated_Source\PSoC4/key_touch_Sensing.c **** /*******************************************************************************
 295:Generated_Source\PSoC4/key_touch_Sensing.c **** * Function Name: key_touch_SetupWidget
 296:Generated_Source\PSoC4/key_touch_Sensing.c **** ****************************************************************************//**
 297:Generated_Source\PSoC4/key_touch_Sensing.c **** *
 298:Generated_Source\PSoC4/key_touch_Sensing.c **** * \brief
 299:Generated_Source\PSoC4/key_touch_Sensing.c **** *  Performs the initialization required to scan the specified widget.
 300:Generated_Source\PSoC4/key_touch_Sensing.c **** *
 301:Generated_Source\PSoC4/key_touch_Sensing.c **** * \details
 302:Generated_Source\PSoC4/key_touch_Sensing.c **** *  This function prepares the component to scan all sensors in the specified
 303:Generated_Source\PSoC4/key_touch_Sensing.c **** *  widget, by executing the following tasks.
 304:Generated_Source\PSoC4/key_touch_Sensing.c **** *    1. Re-initialize the hardware if it is not configured to perform the
 305:Generated_Source\PSoC4/key_touch_Sensing.c **** *       sensing method used by the specified widget, this happens only if the
 306:Generated_Source\PSoC4/key_touch_Sensing.c **** *       CSD and CSX methods are used in the component.
 307:Generated_Source\PSoC4/key_touch_Sensing.c **** *    2. Initialize the hardware with specific sensing configuration (e.g.
 308:Generated_Source\PSoC4/key_touch_Sensing.c **** *       sensor clock, scan resolution) used by the widget.
 309:Generated_Source\PSoC4/key_touch_Sensing.c **** *    3. Disconnect all previously connected electrodes, if the electrodes
 310:Generated_Source\PSoC4/key_touch_Sensing.c **** *       connected by the key_touch_CSDSetupWidgetExt(),
 311:Generated_Source\PSoC4/key_touch_Sensing.c **** *       key_touch_CSXSetupWidgetExt() or key_touch_CSDConnectSns()
 312:Generated_Source\PSoC4/key_touch_Sensing.c **** *       functions and not disconnected.
 313:Generated_Source\PSoC4/key_touch_Sensing.c **** *
 314:Generated_Source\PSoC4/key_touch_Sensing.c **** *  This function does not start sensor scanning, the key_touch_Scan()
 315:Generated_Source\PSoC4/key_touch_Sensing.c **** *  function must be called to start the scan sensors in the widget. If this
 316:Generated_Source\PSoC4/key_touch_Sensing.c **** *  function is called more than once, it does not break the component operation,
 317:Generated_Source\PSoC4/key_touch_Sensing.c **** *  but only the last initialized widget is in effect.
 318:Generated_Source\PSoC4/key_touch_Sensing.c **** 
 319:Generated_Source\PSoC4/key_touch_Sensing.c **** *
 320:Generated_Source\PSoC4/key_touch_Sensing.c **** * \param wdgtIndex
 321:Generated_Source\PSoC4/key_touch_Sensing.c **** *  Specify the ID number of the widget to be initialized for scanning.
 322:Generated_Source\PSoC4/key_touch_Sensing.c **** *  A macro for the widget ID can be found in the
 323:Generated_Source\PSoC4/key_touch_Sensing.c **** *  key_touch Configuration header file defined as
 324:Generated_Source\PSoC4/key_touch_Sensing.c **** *  key_touch_<WidgetName>_WDGT_ID
 325:Generated_Source\PSoC4/key_touch_Sensing.c **** *
 326:Generated_Source\PSoC4/key_touch_Sensing.c **** * \return
 327:Generated_Source\PSoC4/key_touch_Sensing.c **** *  Returns the status of the widget setting up operation:
 328:Generated_Source\PSoC4/key_touch_Sensing.c **** *    - CYRET_SUCCESS if the operation is successfully completed.
 329:Generated_Source\PSoC4/key_touch_Sensing.c **** *    - CYRET_BAD_PARAM if the widget is invalid or if the specified widget is
 330:Generated_Source\PSoC4/key_touch_Sensing.c **** *      disabled
 331:Generated_Source\PSoC4/key_touch_Sensing.c **** *    - CYRET_INVALID_STATE if the previous scanning is not completed and the
 332:Generated_Source\PSoC4/key_touch_Sensing.c **** *      hardware block is busy.
 333:Generated_Source\PSoC4/key_touch_Sensing.c **** *    - CYRET_UNKNOWN if an unknown sensing method is used by the widget or
 334:Generated_Source\PSoC4/key_touch_Sensing.c **** *      other spurious errors.
 335:Generated_Source\PSoC4/key_touch_Sensing.c **** *
 336:Generated_Source\PSoC4/key_touch_Sensing.c **** **********************************************************************************/
 337:Generated_Source\PSoC4/key_touch_Sensing.c **** cystatus key_touch_SetupWidget(uint32 wdgtIndex)
 338:Generated_Source\PSoC4/key_touch_Sensing.c **** {
  51              		.loc 1 338 0
  52              		.cfi_startproc
  53              	.LVL0:
  54 0000 10B5     		push	{r4, lr}
  55              		.cfi_def_cfa_offset 8
  56              		.cfi_offset 4, -8
  57              		.cfi_offset 14, -4
 339:Generated_Source\PSoC4/key_touch_Sensing.c ****     cystatus widgetStatus;
 340:Generated_Source\PSoC4/key_touch_Sensing.c **** 
 341:Generated_Source\PSoC4/key_touch_Sensing.c ****     if (key_touch_WDGT_SW_STS_BUSY == (key_touch_dsRam.status & key_touch_WDGT_SW_STS_BUSY))
  58              		.loc 1 341 0
ARM GAS  C:\Users\Administrator\AppData\Local\Temp\ccPYRpEO.s 			page 8


  59 0002 0F4B     		ldr	r3, .L10
  60 0004 9B68     		ldr	r3, [r3, #8]
  61 0006 DB03     		lsl	r3, r3, #15
  62 0008 0FD4     		bmi	.L7
 342:Generated_Source\PSoC4/key_touch_Sensing.c ****     {
 343:Generated_Source\PSoC4/key_touch_Sensing.c ****         /* Previous widget is being scanned. Return error. */
 344:Generated_Source\PSoC4/key_touch_Sensing.c ****         widgetStatus = CYRET_INVALID_STATE;
 345:Generated_Source\PSoC4/key_touch_Sensing.c ****     }
 346:Generated_Source\PSoC4/key_touch_Sensing.c ****     /*
 347:Generated_Source\PSoC4/key_touch_Sensing.c ****      *  Check if widget id is valid, specified widget is enabled and widget did not
 348:Generated_Source\PSoC4/key_touch_Sensing.c ****      *  detect any fault conditions if BIST is enabled. If all conditions are met,
 349:Generated_Source\PSoC4/key_touch_Sensing.c ****      *  set widgetStatus as good, if not, set widgetStatus as bad.
 350:Generated_Source\PSoC4/key_touch_Sensing.c ****      */
 351:Generated_Source\PSoC4/key_touch_Sensing.c ****     else if ((key_touch_TOTAL_SLOTS > wdgtIndex) &&
  63              		.loc 1 351 0
  64 000a 0B28     		cmp	r0, #11
  65 000c 0FD8     		bhi	.L8
 352:Generated_Source\PSoC4/key_touch_Sensing.c ****         (0uL != key_touch_GET_WIDGET_EN_STATUS(wdgtIndex)))
  66              		.loc 1 352 0 discriminator 1
  67 000e 4309     		lsr	r3, r0, #5
  68 0010 0233     		add	r3, r3, #2
  69 0012 9B00     		lsl	r3, r3, #2
  70 0014 0A4A     		ldr	r2, .L10
  71 0016 D318     		add	r3, r2, r3
  72 0018 5A68     		ldr	r2, [r3, #4]
  73 001a 1F23     		mov	r3, #31
  74 001c 0340     		and	r3, r0
  75 001e DA40     		lsr	r2, r2, r3
  76 0020 131C     		mov	r3, r2
 351:Generated_Source\PSoC4/key_touch_Sensing.c ****         (0uL != key_touch_GET_WIDGET_EN_STATUS(wdgtIndex)))
  77              		.loc 1 351 0 discriminator 1
  78 0022 DB07     		lsl	r3, r3, #31
  79 0024 05D4     		bmi	.L9
 353:Generated_Source\PSoC4/key_touch_Sensing.c **** 
 354:Generated_Source\PSoC4/key_touch_Sensing.c ****     {
 355:Generated_Source\PSoC4/key_touch_Sensing.c ****         widgetStatus = CYRET_SUCCESS;
 356:Generated_Source\PSoC4/key_touch_Sensing.c ****     }
 357:Generated_Source\PSoC4/key_touch_Sensing.c ****     else
 358:Generated_Source\PSoC4/key_touch_Sensing.c ****     {
 359:Generated_Source\PSoC4/key_touch_Sensing.c ****         widgetStatus = CYRET_BAD_PARAM;
  80              		.loc 1 359 0
  81 0026 0124     		mov	r4, #1
  82 0028 04E0     		b	.L5
  83              	.L7:
 344:Generated_Source\PSoC4/key_touch_Sensing.c ****     }
  84              		.loc 1 344 0
  85 002a 1124     		mov	r4, #17
  86 002c 02E0     		b	.L5
  87              	.L8:
  88              		.loc 1 359 0
  89 002e 0124     		mov	r4, #1
  90 0030 00E0     		b	.L5
  91              	.L9:
 355:Generated_Source\PSoC4/key_touch_Sensing.c ****     }
  92              		.loc 1 355 0
  93 0032 0024     		mov	r4, #0
  94              	.L5:
ARM GAS  C:\Users\Administrator\AppData\Local\Temp\ccPYRpEO.s 			page 9


  95              	.LVL1:
 360:Generated_Source\PSoC4/key_touch_Sensing.c ****     }
 361:Generated_Source\PSoC4/key_touch_Sensing.c **** 
 362:Generated_Source\PSoC4/key_touch_Sensing.c ****     /*
 363:Generated_Source\PSoC4/key_touch_Sensing.c ****      * Check widgetStatus flag that is set earlier, if flag is good, then set up only
 364:Generated_Source\PSoC4/key_touch_Sensing.c ****      * widget
 365:Generated_Source\PSoC4/key_touch_Sensing.c ****      */
 366:Generated_Source\PSoC4/key_touch_Sensing.c ****     if (CYRET_SUCCESS == widgetStatus)
  96              		.loc 1 366 0
  97 0034 002C     		cmp	r4, #0
  98 0036 01D1     		bne	.L6
 367:Generated_Source\PSoC4/key_touch_Sensing.c ****     {
 368:Generated_Source\PSoC4/key_touch_Sensing.c ****         /*  Check if CSD2X is enabled   */
 369:Generated_Source\PSoC4/key_touch_Sensing.c ****         #if (key_touch_ENABLE == key_touch_CSD2X_EN)
 370:Generated_Source\PSoC4/key_touch_Sensing.c **** 
 371:Generated_Source\PSoC4/key_touch_Sensing.c ****             widgetStatus = key_touch_SetupWidget2x(wdgtIndex);
 372:Generated_Source\PSoC4/key_touch_Sensing.c **** 
 373:Generated_Source\PSoC4/key_touch_Sensing.c ****         #elif (key_touch_ENABLE == key_touch_CSD_CSX_EN)
 374:Generated_Source\PSoC4/key_touch_Sensing.c ****             /*  Check widget sensing method is CSX and call CSX APIs    */
 375:Generated_Source\PSoC4/key_touch_Sensing.c ****             if (key_touch_SENSE_METHOD_CSX_E ==
 376:Generated_Source\PSoC4/key_touch_Sensing.c ****                 key_touch_GET_SENSE_METHOD(&key_touch_dsFlash.wdgtArray[wdgtIndex]))
 377:Generated_Source\PSoC4/key_touch_Sensing.c ****             {
 378:Generated_Source\PSoC4/key_touch_Sensing.c ****                 /*  Set up widget for CSX scan  */
 379:Generated_Source\PSoC4/key_touch_Sensing.c ****                 key_touch_CSXSetupWidget(wdgtIndex);
 380:Generated_Source\PSoC4/key_touch_Sensing.c ****             }
 381:Generated_Source\PSoC4/key_touch_Sensing.c ****             /*  Check widget sensing method is CSD and call appropriate API */
 382:Generated_Source\PSoC4/key_touch_Sensing.c ****             else if (key_touch_SENSE_METHOD_CSD_E ==
 383:Generated_Source\PSoC4/key_touch_Sensing.c ****                      key_touch_GET_SENSE_METHOD(&key_touch_dsFlash.wdgtArray[wdgtIndex]))
 384:Generated_Source\PSoC4/key_touch_Sensing.c ****             {
 385:Generated_Source\PSoC4/key_touch_Sensing.c ****                 /*  Set up widget for CSD scan  */
 386:Generated_Source\PSoC4/key_touch_Sensing.c ****                 key_touch_CSDSetupWidget(wdgtIndex);
 387:Generated_Source\PSoC4/key_touch_Sensing.c ****             }
 388:Generated_Source\PSoC4/key_touch_Sensing.c ****             else
 389:Generated_Source\PSoC4/key_touch_Sensing.c ****             {
 390:Generated_Source\PSoC4/key_touch_Sensing.c ****                 /*  Sensing method is invalid, return error to caller  */
 391:Generated_Source\PSoC4/key_touch_Sensing.c ****                 widgetStatus = CYRET_UNKNOWN;
 392:Generated_Source\PSoC4/key_touch_Sensing.c ****             }
 393:Generated_Source\PSoC4/key_touch_Sensing.c ****         #elif (key_touch_ENABLE == key_touch_CSD_EN)
 394:Generated_Source\PSoC4/key_touch_Sensing.c ****             /*  Set up widget for scan */
 395:Generated_Source\PSoC4/key_touch_Sensing.c ****             key_touch_CSDSetupWidget(wdgtIndex);
  99              		.loc 1 395 0
 100 0038 FFF7FEFF 		bl	key_touch_CSDSetupWidget
 101              	.LVL2:
 102              	.L6:
 396:Generated_Source\PSoC4/key_touch_Sensing.c ****         #elif (key_touch_ENABLE == key_touch_CSX_EN)
 397:Generated_Source\PSoC4/key_touch_Sensing.c ****             /*  Set up widgets for scan     */
 398:Generated_Source\PSoC4/key_touch_Sensing.c ****             key_touch_CSXSetupWidget(wdgtIndex);
 399:Generated_Source\PSoC4/key_touch_Sensing.c ****         #else
 400:Generated_Source\PSoC4/key_touch_Sensing.c ****             widgetStatus = CYRET_UNKNOWN;
 401:Generated_Source\PSoC4/key_touch_Sensing.c ****             #error "No sensing method enabled, component cannot work in this mode"
 402:Generated_Source\PSoC4/key_touch_Sensing.c ****         #endif  /* (key_touch_ENABLE == key_touch_CSD2X_EN) */
 403:Generated_Source\PSoC4/key_touch_Sensing.c ****     }
 404:Generated_Source\PSoC4/key_touch_Sensing.c **** 
 405:Generated_Source\PSoC4/key_touch_Sensing.c ****     return (widgetStatus);
 406:Generated_Source\PSoC4/key_touch_Sensing.c **** }
 103              		.loc 1 406 0
 104 003c 201C     		mov	r0, r4
ARM GAS  C:\Users\Administrator\AppData\Local\Temp\ccPYRpEO.s 			page 10


 105              		@ sp needed
 106              	.LVL3:
 107 003e 10BD     		pop	{r4, pc}
 108              	.L11:
 109              		.align	2
 110              	.L10:
 111 0040 00000000 		.word	key_touch_dsRam
 112              		.cfi_endproc
 113              	.LFE2:
 114              		.size	key_touch_SetupWidget, .-key_touch_SetupWidget
 115              		.section	.text.key_touch_Scan,"ax",%progbits
 116              		.align	2
 117              		.global	key_touch_Scan
 118              		.code	16
 119              		.thumb_func
 120              		.type	key_touch_Scan, %function
 121              	key_touch_Scan:
 122              	.LFB3:
 407:Generated_Source\PSoC4/key_touch_Sensing.c **** 
 408:Generated_Source\PSoC4/key_touch_Sensing.c **** 
 409:Generated_Source\PSoC4/key_touch_Sensing.c **** /*******************************************************************************
 410:Generated_Source\PSoC4/key_touch_Sensing.c **** * Function Name: key_touch_Scan
 411:Generated_Source\PSoC4/key_touch_Sensing.c **** ****************************************************************************//**
 412:Generated_Source\PSoC4/key_touch_Sensing.c **** *
 413:Generated_Source\PSoC4/key_touch_Sensing.c **** * \brief
 414:Generated_Source\PSoC4/key_touch_Sensing.c **** *  Initiates scan of all sensors in the widget which is initialized by
 415:Generated_Source\PSoC4/key_touch_Sensing.c **** *  key_touch_SetupWidget(), if the no scan is in progress.
 416:Generated_Source\PSoC4/key_touch_Sensing.c **** *
 417:Generated_Source\PSoC4/key_touch_Sensing.c **** * \details
 418:Generated_Source\PSoC4/key_touch_Sensing.c **** *  This function should be called only after the key_touch_SetupWidget()
 419:Generated_Source\PSoC4/key_touch_Sensing.c **** *  function is called to start the scanning of the sensors in the widget. The
 420:Generated_Source\PSoC4/key_touch_Sensing.c **** *  status of a sensor scan must be checked using the key_touch_IsBusy()
 421:Generated_Source\PSoC4/key_touch_Sensing.c **** *  API prior to starting a next scan or setting up another widget.
 422:Generated_Source\PSoC4/key_touch_Sensing.c **** *
 423:Generated_Source\PSoC4/key_touch_Sensing.c **** * \return
 424:Generated_Source\PSoC4/key_touch_Sensing.c **** *  Returns the status of the scan initiation operation:
 425:Generated_Source\PSoC4/key_touch_Sensing.c **** *    - CYRET_SUCCESS if scanning is successfully started.
 426:Generated_Source\PSoC4/key_touch_Sensing.c **** *    - CYRET_INVALID_STATE if the previous scanning is not completed and the
 427:Generated_Source\PSoC4/key_touch_Sensing.c **** *      hardware block is busy.
 428:Generated_Source\PSoC4/key_touch_Sensing.c **** *    - CYRET_UNKNOWN if an unknown sensing method is used by the widget.
 429:Generated_Source\PSoC4/key_touch_Sensing.c **** *
 430:Generated_Source\PSoC4/key_touch_Sensing.c **** ********************************************************************************/
 431:Generated_Source\PSoC4/key_touch_Sensing.c **** cystatus key_touch_Scan(void)
 432:Generated_Source\PSoC4/key_touch_Sensing.c **** {
 123              		.loc 1 432 0
 124              		.cfi_startproc
 125 0000 08B5     		push	{r3, lr}
 126              		.cfi_def_cfa_offset 8
 127              		.cfi_offset 3, -8
 128              		.cfi_offset 14, -4
 129              	.LVL4:
 433:Generated_Source\PSoC4/key_touch_Sensing.c ****     cystatus scanStatus = CYRET_SUCCESS;
 434:Generated_Source\PSoC4/key_touch_Sensing.c **** 
 435:Generated_Source\PSoC4/key_touch_Sensing.c ****     if (key_touch_WDGT_SW_STS_BUSY == (key_touch_dsRam.status & key_touch_WDGT_SW_STS_BUSY))
 130              		.loc 1 435 0
 131 0002 054B     		ldr	r3, .L15
 132 0004 9B68     		ldr	r3, [r3, #8]
ARM GAS  C:\Users\Administrator\AppData\Local\Temp\ccPYRpEO.s 			page 11


 133 0006 DB03     		lsl	r3, r3, #15
 134 0008 03D4     		bmi	.L14
 436:Generated_Source\PSoC4/key_touch_Sensing.c ****     {
 437:Generated_Source\PSoC4/key_touch_Sensing.c ****         /* Previous widget is being scanned. Return error. */
 438:Generated_Source\PSoC4/key_touch_Sensing.c ****         scanStatus = CYRET_INVALID_STATE;
 439:Generated_Source\PSoC4/key_touch_Sensing.c ****     }
 440:Generated_Source\PSoC4/key_touch_Sensing.c ****     else
 441:Generated_Source\PSoC4/key_touch_Sensing.c ****     {
 442:Generated_Source\PSoC4/key_touch_Sensing.c ****         /*  If CSD2X is enabled, call CSD2X scan    */
 443:Generated_Source\PSoC4/key_touch_Sensing.c ****     #if (key_touch_ENABLE == key_touch_CSD2X_EN)
 444:Generated_Source\PSoC4/key_touch_Sensing.c ****         scanStatus = key_touch_Scan2x();
 445:Generated_Source\PSoC4/key_touch_Sensing.c **** 
 446:Generated_Source\PSoC4/key_touch_Sensing.c ****     /*  If both CSD and CSX are enabled, call scan API based on widget sensing method    */
 447:Generated_Source\PSoC4/key_touch_Sensing.c ****     #elif (key_touch_ENABLE == key_touch_CSD_CSX_EN)
 448:Generated_Source\PSoC4/key_touch_Sensing.c ****         /*  Check widget sensing method and call appropriate APIs   */
 449:Generated_Source\PSoC4/key_touch_Sensing.c ****         switch (key_touch_currentSenseMethod)
 450:Generated_Source\PSoC4/key_touch_Sensing.c ****         {
 451:Generated_Source\PSoC4/key_touch_Sensing.c ****             case key_touch_SENSE_METHOD_CSX_E:
 452:Generated_Source\PSoC4/key_touch_Sensing.c ****                 key_touch_CSXScan();
 453:Generated_Source\PSoC4/key_touch_Sensing.c ****                 break;
 454:Generated_Source\PSoC4/key_touch_Sensing.c **** 
 455:Generated_Source\PSoC4/key_touch_Sensing.c ****             case key_touch_SENSE_METHOD_CSD_E:
 456:Generated_Source\PSoC4/key_touch_Sensing.c ****                  key_touch_CSDScan();
 457:Generated_Source\PSoC4/key_touch_Sensing.c ****                 break;
 458:Generated_Source\PSoC4/key_touch_Sensing.c **** 
 459:Generated_Source\PSoC4/key_touch_Sensing.c ****             default:
 460:Generated_Source\PSoC4/key_touch_Sensing.c ****                 scanStatus = CYRET_UNKNOWN;
 461:Generated_Source\PSoC4/key_touch_Sensing.c ****                 break;
 462:Generated_Source\PSoC4/key_touch_Sensing.c ****         }
 463:Generated_Source\PSoC4/key_touch_Sensing.c **** 
 464:Generated_Source\PSoC4/key_touch_Sensing.c ****     /*  If only CSD is enabled, call CSD scan   */
 465:Generated_Source\PSoC4/key_touch_Sensing.c ****     #elif (key_touch_ENABLE == key_touch_CSD_EN)
 466:Generated_Source\PSoC4/key_touch_Sensing.c ****         key_touch_CSDScan();
 135              		.loc 1 466 0
 136 000a FFF7FEFF 		bl	key_touch_CSDScan
 137              	.LVL5:
 433:Generated_Source\PSoC4/key_touch_Sensing.c ****     cystatus scanStatus = CYRET_SUCCESS;
 138              		.loc 1 433 0
 139 000e 0020     		mov	r0, #0
 140 0010 00E0     		b	.L13
 141              	.L14:
 438:Generated_Source\PSoC4/key_touch_Sensing.c ****     }
 142              		.loc 1 438 0
 143 0012 1120     		mov	r0, #17
 144              	.L13:
 145              	.LVL6:
 467:Generated_Source\PSoC4/key_touch_Sensing.c **** 
 468:Generated_Source\PSoC4/key_touch_Sensing.c ****     /*  If only CSX is enabled, call CSX scan   */
 469:Generated_Source\PSoC4/key_touch_Sensing.c ****     #elif (key_touch_ENABLE == key_touch_CSX_EN)
 470:Generated_Source\PSoC4/key_touch_Sensing.c ****         key_touch_CSXScan();
 471:Generated_Source\PSoC4/key_touch_Sensing.c **** 
 472:Generated_Source\PSoC4/key_touch_Sensing.c ****     #else
 473:Generated_Source\PSoC4/key_touch_Sensing.c ****         scanStatus = CYRET_UNKNOWN;
 474:Generated_Source\PSoC4/key_touch_Sensing.c ****         #error "No sensing method enabled, component cannot work in this mode"
 475:Generated_Source\PSoC4/key_touch_Sensing.c ****     #endif  /* (key_touch_ENABLE == key_touch_CSD2X_EN) */
 476:Generated_Source\PSoC4/key_touch_Sensing.c ****     }
 477:Generated_Source\PSoC4/key_touch_Sensing.c **** 
ARM GAS  C:\Users\Administrator\AppData\Local\Temp\ccPYRpEO.s 			page 12


 478:Generated_Source\PSoC4/key_touch_Sensing.c ****     return (scanStatus);
 479:Generated_Source\PSoC4/key_touch_Sensing.c **** }
 146              		.loc 1 479 0
 147              		@ sp needed
 148 0014 08BD     		pop	{r3, pc}
 149              	.L16:
 150 0016 C046     		.align	2
 151              	.L15:
 152 0018 00000000 		.word	key_touch_dsRam
 153              		.cfi_endproc
 154              	.LFE3:
 155              		.size	key_touch_Scan, .-key_touch_Scan
 156              		.section	.text.key_touch_ScanAllWidgets,"ax",%progbits
 157              		.align	2
 158              		.global	key_touch_ScanAllWidgets
 159              		.code	16
 160              		.thumb_func
 161              		.type	key_touch_ScanAllWidgets, %function
 162              	key_touch_ScanAllWidgets:
 163              	.LFB4:
 480:Generated_Source\PSoC4/key_touch_Sensing.c **** 
 481:Generated_Source\PSoC4/key_touch_Sensing.c **** 
 482:Generated_Source\PSoC4/key_touch_Sensing.c **** /*******************************************************************************
 483:Generated_Source\PSoC4/key_touch_Sensing.c **** * Function Name: key_touch_ScanAllWidgets
 484:Generated_Source\PSoC4/key_touch_Sensing.c **** ****************************************************************************//**
 485:Generated_Source\PSoC4/key_touch_Sensing.c **** *
 486:Generated_Source\PSoC4/key_touch_Sensing.c **** * \brief
 487:Generated_Source\PSoC4/key_touch_Sensing.c **** *  Initializes the first enabled widget and scans of all the sensors in the
 488:Generated_Source\PSoC4/key_touch_Sensing.c **** *  widget, then the same process is repeated for all widgets in the component.
 489:Generated_Source\PSoC4/key_touch_Sensing.c **** *  I.e. scan all the widgets in the component.
 490:Generated_Source\PSoC4/key_touch_Sensing.c **** *
 491:Generated_Source\PSoC4/key_touch_Sensing.c **** * \details
 492:Generated_Source\PSoC4/key_touch_Sensing.c **** *  This function initializes a widget and scans all the sensors in the widget,
 493:Generated_Source\PSoC4/key_touch_Sensing.c **** *  and then repeats the same for all the widgets in the component. The tasks of
 494:Generated_Source\PSoC4/key_touch_Sensing.c **** *  the key_touch_SetupWidget() and key_touch_Scan() functions are
 495:Generated_Source\PSoC4/key_touch_Sensing.c **** *  executed by these functions. The status of a sensor scan must be checked
 496:Generated_Source\PSoC4/key_touch_Sensing.c **** *  using the key_touch_IsBusy() API prior to starting a next scan
 497:Generated_Source\PSoC4/key_touch_Sensing.c **** *  or setting up another widget.
 498:Generated_Source\PSoC4/key_touch_Sensing.c **** *
 499:Generated_Source\PSoC4/key_touch_Sensing.c **** * \return
 500:Generated_Source\PSoC4/key_touch_Sensing.c **** *  Returns the status of operation:
 501:Generated_Source\PSoC4/key_touch_Sensing.c **** *    - CYRET_SUCCESS if scanning is successfully started.
 502:Generated_Source\PSoC4/key_touch_Sensing.c **** *    - CYRET_BAD_PARAM if all the widgets are disabled.
 503:Generated_Source\PSoC4/key_touch_Sensing.c **** *    - CYRET_INVALID_STATE if the previous scanning is not completed and the HW block is busy.
 504:Generated_Source\PSoC4/key_touch_Sensing.c **** *    - CYRET_UNKNOWN if there are unknown errors.
 505:Generated_Source\PSoC4/key_touch_Sensing.c **** *
 506:Generated_Source\PSoC4/key_touch_Sensing.c **** *******************************************************************************/
 507:Generated_Source\PSoC4/key_touch_Sensing.c **** cystatus key_touch_ScanAllWidgets(void)
 508:Generated_Source\PSoC4/key_touch_Sensing.c **** {
 164              		.loc 1 508 0
 165              		.cfi_startproc
 166 0000 10B5     		push	{r4, lr}
 167              		.cfi_def_cfa_offset 8
 168              		.cfi_offset 4, -8
 169              		.cfi_offset 14, -4
 170              	.LVL7:
 509:Generated_Source\PSoC4/key_touch_Sensing.c ****     cystatus scanStatus = CYRET_UNKNOWN;
ARM GAS  C:\Users\Administrator\AppData\Local\Temp\ccPYRpEO.s 			page 13


 510:Generated_Source\PSoC4/key_touch_Sensing.c **** 
 511:Generated_Source\PSoC4/key_touch_Sensing.c ****     uint32 wdgtIndex;
 512:Generated_Source\PSoC4/key_touch_Sensing.c **** 
 513:Generated_Source\PSoC4/key_touch_Sensing.c ****     if (key_touch_SW_STS_BUSY == (key_touch_dsRam.status & key_touch_SW_STS_BUSY))
 171              		.loc 1 513 0
 172 0002 0F4B     		ldr	r3, .L25
 173 0004 9B68     		ldr	r3, [r3, #8]
 174 0006 1B06     		lsl	r3, r3, #24
 175 0008 18D4     		bmi	.L24
 176 000a 0024     		mov	r4, #0
 177 000c 0120     		mov	r0, #1
 178 000e 4042     		neg	r0, r0
 179 0010 11E0     		b	.L19
 180              	.LVL8:
 181              	.L23:
 514:Generated_Source\PSoC4/key_touch_Sensing.c ****     {
 515:Generated_Source\PSoC4/key_touch_Sensing.c ****         /* Previous widget is being scanned. Return error. */
 516:Generated_Source\PSoC4/key_touch_Sensing.c ****         scanStatus = CYRET_INVALID_STATE;
 517:Generated_Source\PSoC4/key_touch_Sensing.c ****     }
 518:Generated_Source\PSoC4/key_touch_Sensing.c ****     else
 519:Generated_Source\PSoC4/key_touch_Sensing.c ****     {
 520:Generated_Source\PSoC4/key_touch_Sensing.c ****         /*
 521:Generated_Source\PSoC4/key_touch_Sensing.c ****          *  Set up widget first widget.
 522:Generated_Source\PSoC4/key_touch_Sensing.c ****          *  If widget returned error, set up next, continue same until widget does not return error
 523:Generated_Source\PSoC4/key_touch_Sensing.c ****          */
 524:Generated_Source\PSoC4/key_touch_Sensing.c ****         for (wdgtIndex = 0u;
 525:Generated_Source\PSoC4/key_touch_Sensing.c ****              wdgtIndex < key_touch_TOTAL_SLOTS;
 526:Generated_Source\PSoC4/key_touch_Sensing.c ****              wdgtIndex++)
 527:Generated_Source\PSoC4/key_touch_Sensing.c ****         {
 528:Generated_Source\PSoC4/key_touch_Sensing.c **** 
 529:Generated_Source\PSoC4/key_touch_Sensing.c ****             scanStatus = key_touch_SetupWidget(wdgtIndex);
 182              		.loc 1 529 0
 183 0012 201C     		mov	r0, r4
 184              	.LVL9:
 185 0014 FFF7FEFF 		bl	key_touch_SetupWidget
 186              	.LVL10:
 530:Generated_Source\PSoC4/key_touch_Sensing.c **** 
 531:Generated_Source\PSoC4/key_touch_Sensing.c ****             if (CYRET_SUCCESS == scanStatus)
 187              		.loc 1 531 0
 188 0018 0028     		cmp	r0, #0
 189 001a 0BD1     		bne	.L20
 532:Generated_Source\PSoC4/key_touch_Sensing.c ****             {
 533:Generated_Source\PSoC4/key_touch_Sensing.c ****                 #if (0u != (key_touch_TOTAL_SLOTS - 1u))
 534:Generated_Source\PSoC4/key_touch_Sensing.c ****                     /* If there are more than one widget to be scanned, request callback to scan ne
 535:Generated_Source\PSoC4/key_touch_Sensing.c ****                     if ((key_touch_TOTAL_SLOTS - 1u) > wdgtIndex)
 190              		.loc 1 535 0
 191 001c 0A2C     		cmp	r4, #10
 192 001e 03D8     		bhi	.L21
 536:Generated_Source\PSoC4/key_touch_Sensing.c ****                     {
 537:Generated_Source\PSoC4/key_touch_Sensing.c ****                          /* Request callback to scan next widget in ISR */
 538:Generated_Source\PSoC4/key_touch_Sensing.c ****                         key_touch_requestScanAllWidget = key_touch_ENABLE;
 193              		.loc 1 538 0
 194 0020 0122     		mov	r2, #1
 195 0022 084B     		ldr	r3, .L25+4
 196 0024 1A70     		strb	r2, [r3]
 197 0026 02E0     		b	.L22
 198              	.L21:
ARM GAS  C:\Users\Administrator\AppData\Local\Temp\ccPYRpEO.s 			page 14


 539:Generated_Source\PSoC4/key_touch_Sensing.c ****                     }
 540:Generated_Source\PSoC4/key_touch_Sensing.c ****                     else
 541:Generated_Source\PSoC4/key_touch_Sensing.c ****                     {
 542:Generated_Source\PSoC4/key_touch_Sensing.c ****                         /* Request to exit in ISR (Do not scan the next widgets) */
 543:Generated_Source\PSoC4/key_touch_Sensing.c ****                         key_touch_requestScanAllWidget = key_touch_DISABLE;
 199              		.loc 1 543 0
 200 0028 0022     		mov	r2, #0
 201 002a 064B     		ldr	r3, .L25+4
 202 002c 1A70     		strb	r2, [r3]
 203              	.L22:
 544:Generated_Source\PSoC4/key_touch_Sensing.c ****                     }
 545:Generated_Source\PSoC4/key_touch_Sensing.c ****                 #else
 546:Generated_Source\PSoC4/key_touch_Sensing.c ****                     {
 547:Generated_Source\PSoC4/key_touch_Sensing.c ****                         /* Request to exit in ISR (We have only one widget) */
 548:Generated_Source\PSoC4/key_touch_Sensing.c ****                         key_touch_requestScanAllWidget = key_touch_DISABLE;
 549:Generated_Source\PSoC4/key_touch_Sensing.c ****                     }
 550:Generated_Source\PSoC4/key_touch_Sensing.c ****                 #endif  /* (0u != (key_touch_TOTAL_SLOTS - 1u)) */
 551:Generated_Source\PSoC4/key_touch_Sensing.c **** 
 552:Generated_Source\PSoC4/key_touch_Sensing.c ****                 /*  Initiate scan and quit loop */
 553:Generated_Source\PSoC4/key_touch_Sensing.c ****                 scanStatus = key_touch_Scan();
 204              		.loc 1 553 0
 205 002e FFF7FEFF 		bl	key_touch_Scan
 206              	.LVL11:
 554:Generated_Source\PSoC4/key_touch_Sensing.c **** 
 555:Generated_Source\PSoC4/key_touch_Sensing.c ****                 break;
 207              		.loc 1 555 0
 208 0032 04E0     		b	.L18
 209              	.L20:
 526:Generated_Source\PSoC4/key_touch_Sensing.c ****         {
 210              		.loc 1 526 0
 211 0034 0134     		add	r4, r4, #1
 212              	.LVL12:
 213              	.L19:
 524:Generated_Source\PSoC4/key_touch_Sensing.c ****              wdgtIndex < key_touch_TOTAL_SLOTS;
 214              		.loc 1 524 0 discriminator 1
 215 0036 0B2C     		cmp	r4, #11
 216 0038 EBD9     		bls	.L23
 217 003a 00E0     		b	.L18
 218              	.LVL13:
 219              	.L24:
 516:Generated_Source\PSoC4/key_touch_Sensing.c ****     }
 220              		.loc 1 516 0
 221 003c 1120     		mov	r0, #17
 222              	.LVL14:
 223              	.L18:
 556:Generated_Source\PSoC4/key_touch_Sensing.c ****             }
 557:Generated_Source\PSoC4/key_touch_Sensing.c ****         }
 558:Generated_Source\PSoC4/key_touch_Sensing.c ****     }
 559:Generated_Source\PSoC4/key_touch_Sensing.c **** 
 560:Generated_Source\PSoC4/key_touch_Sensing.c ****     return (scanStatus);
 561:Generated_Source\PSoC4/key_touch_Sensing.c **** }
 224              		.loc 1 561 0
 225              		@ sp needed
 226 003e 10BD     		pop	{r4, pc}
 227              	.L26:
 228              		.align	2
 229              	.L25:
ARM GAS  C:\Users\Administrator\AppData\Local\Temp\ccPYRpEO.s 			page 15


 230 0040 00000000 		.word	key_touch_dsRam
 231 0044 00000000 		.word	.LANCHOR0
 232              		.cfi_endproc
 233              	.LFE4:
 234              		.size	key_touch_ScanAllWidgets, .-key_touch_ScanAllWidgets
 235              		.section	.text.key_touch_SetPinState,"ax",%progbits
 236              		.align	2
 237              		.global	key_touch_SetPinState
 238              		.code	16
 239              		.thumb_func
 240              		.type	key_touch_SetPinState, %function
 241              	key_touch_SetPinState:
 242              	.LFB6:
 562:Generated_Source\PSoC4/key_touch_Sensing.c **** 
 563:Generated_Source\PSoC4/key_touch_Sensing.c **** 
 564:Generated_Source\PSoC4/key_touch_Sensing.c **** /*******************************************************************************
 565:Generated_Source\PSoC4/key_touch_Sensing.c **** * Function Name: key_touch_SsInitialize
 566:Generated_Source\PSoC4/key_touch_Sensing.c **** ****************************************************************************//**
 567:Generated_Source\PSoC4/key_touch_Sensing.c **** *
 568:Generated_Source\PSoC4/key_touch_Sensing.c **** * \brief
 569:Generated_Source\PSoC4/key_touch_Sensing.c **** *   Performs hardware and firmware initialization required for proper operation
 570:Generated_Source\PSoC4/key_touch_Sensing.c **** *   of the key_touch component. This function is called from
 571:Generated_Source\PSoC4/key_touch_Sensing.c **** *   the key_touch_Start() API prior to calling any other APIs of the component.
 572:Generated_Source\PSoC4/key_touch_Sensing.c **** *
 573:Generated_Source\PSoC4/key_touch_Sensing.c **** * \details
 574:Generated_Source\PSoC4/key_touch_Sensing.c **** *   Performs hardware and firmware initialization required for proper operation
 575:Generated_Source\PSoC4/key_touch_Sensing.c **** *   of the key_touch component. This function is called from
 576:Generated_Source\PSoC4/key_touch_Sensing.c **** *   the key_touch_Start() API prior to calling any other APIs of the component.
 577:Generated_Source\PSoC4/key_touch_Sensing.c **** *   1. The function initializes immunity offsets when the frequency hopping is
 578:Generated_Source\PSoC4/key_touch_Sensing.c **** *      enabled.
 579:Generated_Source\PSoC4/key_touch_Sensing.c **** *   2. Depending on the configuration, the function initializes the CSD block
 580:Generated_Source\PSoC4/key_touch_Sensing.c **** *      for the CSD2X, CSD, CSX, or CSD+CSX modes.
 581:Generated_Source\PSoC4/key_touch_Sensing.c **** *   3. The function updates the dsRam.wdgtWorking variable with 1 when Self Test
 582:Generated_Source\PSoC4/key_touch_Sensing.c **** *      is enabled.
 583:Generated_Source\PSoC4/key_touch_Sensing.c **** *
 584:Generated_Source\PSoC4/key_touch_Sensing.c **** *   Calling the key_touch_Start API is the recommended method to initialize
 585:Generated_Source\PSoC4/key_touch_Sensing.c **** *   the key_touch component at power-up. The key_touch_SsInitialize()
 586:Generated_Source\PSoC4/key_touch_Sensing.c **** *   API should not be used for initialization, resume, or wake-up operations.
 587:Generated_Source\PSoC4/key_touch_Sensing.c **** *   The dsRam.wdgtWorking variable is updated.
 588:Generated_Source\PSoC4/key_touch_Sensing.c **** *
 589:Generated_Source\PSoC4/key_touch_Sensing.c **** * \return status
 590:Generated_Source\PSoC4/key_touch_Sensing.c **** *   Returns status of operation:
 591:Generated_Source\PSoC4/key_touch_Sensing.c **** *   - Zero        - Indicates successful initialization.
 592:Generated_Source\PSoC4/key_touch_Sensing.c **** *   - Non-zero    - One or more errors occurred in the initialization process.
 593:Generated_Source\PSoC4/key_touch_Sensing.c **** *
 594:Generated_Source\PSoC4/key_touch_Sensing.c **** *******************************************************************************/
 595:Generated_Source\PSoC4/key_touch_Sensing.c **** cystatus key_touch_SsInitialize(void)
 596:Generated_Source\PSoC4/key_touch_Sensing.c **** {
 597:Generated_Source\PSoC4/key_touch_Sensing.c ****     cystatus initStatus = CYRET_SUCCESS;
 598:Generated_Source\PSoC4/key_touch_Sensing.c **** 
 599:Generated_Source\PSoC4/key_touch_Sensing.c ****     #if (key_touch_ENABLE == key_touch_MULTI_FREQ_SCAN_EN)
 600:Generated_Source\PSoC4/key_touch_Sensing.c ****         key_touch_immunity[key_touch_FREQ_CHANNEL_0] = (uint8)CY_GET_REG32(CY_SYS_CLK_IMO_TRIM1_PTR
 601:Generated_Source\PSoC4/key_touch_Sensing.c ****         if (key_touch_COARSE_TRIM_THRESHOLD_1 > key_touch_immunity[key_touch_FREQ_CHANNEL_0])
 602:Generated_Source\PSoC4/key_touch_Sensing.c ****         {
 603:Generated_Source\PSoC4/key_touch_Sensing.c ****             key_touch_immunity[key_touch_FREQ_CHANNEL_1] =
 604:Generated_Source\PSoC4/key_touch_Sensing.c ****             key_touch_immunity[key_touch_FREQ_CHANNEL_0] + key_touch_FREQUENCY_OFFSET_5;
 605:Generated_Source\PSoC4/key_touch_Sensing.c ****             key_touch_immunity[key_touch_FREQ_CHANNEL_2] =
ARM GAS  C:\Users\Administrator\AppData\Local\Temp\ccPYRpEO.s 			page 16


 606:Generated_Source\PSoC4/key_touch_Sensing.c ****             key_touch_immunity[key_touch_FREQ_CHANNEL_0] + key_touch_FREQUENCY_OFFSET_10;
 607:Generated_Source\PSoC4/key_touch_Sensing.c ****         }
 608:Generated_Source\PSoC4/key_touch_Sensing.c ****         else if (key_touch_COARSE_TRIM_THRESHOLD_2 > key_touch_immunity[key_touch_FREQ_CHANNEL_0])
 609:Generated_Source\PSoC4/key_touch_Sensing.c ****         {
 610:Generated_Source\PSoC4/key_touch_Sensing.c ****             key_touch_immunity[key_touch_FREQ_CHANNEL_1] =
 611:Generated_Source\PSoC4/key_touch_Sensing.c ****             key_touch_immunity[key_touch_FREQ_CHANNEL_0] - key_touch_FREQUENCY_OFFSET_5;
 612:Generated_Source\PSoC4/key_touch_Sensing.c ****             key_touch_immunity[key_touch_FREQ_CHANNEL_2] =
 613:Generated_Source\PSoC4/key_touch_Sensing.c ****             key_touch_immunity[key_touch_FREQ_CHANNEL_0] + key_touch_FREQUENCY_OFFSET_5;
 614:Generated_Source\PSoC4/key_touch_Sensing.c ****         }
 615:Generated_Source\PSoC4/key_touch_Sensing.c ****         else
 616:Generated_Source\PSoC4/key_touch_Sensing.c ****         {
 617:Generated_Source\PSoC4/key_touch_Sensing.c ****             key_touch_immunity[key_touch_FREQ_CHANNEL_1] =
 618:Generated_Source\PSoC4/key_touch_Sensing.c ****             key_touch_immunity[key_touch_FREQ_CHANNEL_0] - key_touch_FREQUENCY_OFFSET_5;
 619:Generated_Source\PSoC4/key_touch_Sensing.c ****             key_touch_immunity[key_touch_FREQ_CHANNEL_2] =
 620:Generated_Source\PSoC4/key_touch_Sensing.c ****             key_touch_immunity[key_touch_FREQ_CHANNEL_0] - key_touch_FREQUENCY_OFFSET_10;
 621:Generated_Source\PSoC4/key_touch_Sensing.c ****         }
 622:Generated_Source\PSoC4/key_touch_Sensing.c ****     #endif /* (key_touch_ENABLE == key_touch_MULTI_FREQ_SCAN_EN) */
 623:Generated_Source\PSoC4/key_touch_Sensing.c **** 
 624:Generated_Source\PSoC4/key_touch_Sensing.c ****     #if (key_touch_DISABLE == key_touch_CSDV2)
 625:Generated_Source\PSoC4/key_touch_Sensing.c ****         key_touch_SsTrimIdacs();
 626:Generated_Source\PSoC4/key_touch_Sensing.c ****     #endif /* (key_touch_ENABLE == key_touch_CSDV2) */
 627:Generated_Source\PSoC4/key_touch_Sensing.c **** 
 628:Generated_Source\PSoC4/key_touch_Sensing.c ****     #if((key_touch_ENABLE == key_touch_CSD_EN) ||\
 629:Generated_Source\PSoC4/key_touch_Sensing.c ****     ((key_touch_ENABLE == key_touch_CSX_EN) && (key_touch_ENABLE == key_touch_CSDV2)))
 630:Generated_Source\PSoC4/key_touch_Sensing.c ****         key_touch_SsInitializeSourceSenseClk();
 631:Generated_Source\PSoC4/key_touch_Sensing.c ****     #endif /* ((key_touch_ENABLE == key_touch_CSD_EN) ||\
 632:Generated_Source\PSoC4/key_touch_Sensing.c ****               ((key_touch_ENABLE == key_touch_CSX_EN) && (key_touch_ENABLE == key_touch_CSDV2))) */
 633:Generated_Source\PSoC4/key_touch_Sensing.c **** 
 634:Generated_Source\PSoC4/key_touch_Sensing.c ****     /*
 635:Generated_Source\PSoC4/key_touch_Sensing.c ****      *  Check if CSD2X is enabled, if yes, initialize key_touch component
 636:Generated_Source\PSoC4/key_touch_Sensing.c ****      *  for CSD2x operation
 637:Generated_Source\PSoC4/key_touch_Sensing.c ****      */
 638:Generated_Source\PSoC4/key_touch_Sensing.c ****     #if (key_touch_ENABLE == key_touch_CSD2X_EN)
 639:Generated_Source\PSoC4/key_touch_Sensing.c ****         /*
 640:Generated_Source\PSoC4/key_touch_Sensing.c ****          *  Check if CSX or CSD enable along with CSD2X, if yes, provide the error
 641:Generated_Source\PSoC4/key_touch_Sensing.c ****          *  message as CSD2X can not coexist with CSD or CSX
 642:Generated_Source\PSoC4/key_touch_Sensing.c ****          */
 643:Generated_Source\PSoC4/key_touch_Sensing.c ****         #if (key_touch_ENABLE == key_touch_CSX_EN)
 644:Generated_Source\PSoC4/key_touch_Sensing.c ****             #error "CSD2X and CSX can not be enabled together"
 645:Generated_Source\PSoC4/key_touch_Sensing.c ****             initStatus = CYRET_UNKNOWN;
 646:Generated_Source\PSoC4/key_touch_Sensing.c ****         #elif (key_touch_ENABLE == key_touch_CSD_EN)
 647:Generated_Source\PSoC4/key_touch_Sensing.c ****             #error "CSD2X and CSD can not be enabled together"
 648:Generated_Source\PSoC4/key_touch_Sensing.c ****             initStatus = CYRET_UNKNOWN;
 649:Generated_Source\PSoC4/key_touch_Sensing.c ****         #endif /* (key_touch_CSX_EN == key_touch_ENABLE) */
 650:Generated_Source\PSoC4/key_touch_Sensing.c **** 
 651:Generated_Source\PSoC4/key_touch_Sensing.c ****         /* Initialize both CSD blocks for CSD2X scanning    */
 652:Generated_Source\PSoC4/key_touch_Sensing.c ****         key_touch_CSD2XInitialize();
 653:Generated_Source\PSoC4/key_touch_Sensing.c **** 
 654:Generated_Source\PSoC4/key_touch_Sensing.c ****     #elif ((key_touch_ENABLE == key_touch_CSD_CSX_EN) || \
 655:Generated_Source\PSoC4/key_touch_Sensing.c ****             (key_touch_ENABLE == key_touch_SELF_TEST_EN) || \
 656:Generated_Source\PSoC4/key_touch_Sensing.c ****             (key_touch_ENABLE == key_touch_ADC_EN))
 657:Generated_Source\PSoC4/key_touch_Sensing.c **** 
 658:Generated_Source\PSoC4/key_touch_Sensing.c ****         /* Set all IO states to default state  */
 659:Generated_Source\PSoC4/key_touch_Sensing.c ****         key_touch_SsSetIOsInDefaultState();
 660:Generated_Source\PSoC4/key_touch_Sensing.c ****         /*
 661:Generated_Source\PSoC4/key_touch_Sensing.c ****          * CSD hardware block is initialized in the Setup Widget based
 662:Generated_Source\PSoC4/key_touch_Sensing.c ****          * on widget sensing method. Release previously captured HW resources
ARM GAS  C:\Users\Administrator\AppData\Local\Temp\ccPYRpEO.s 			page 17


 663:Generated_Source\PSoC4/key_touch_Sensing.c ****          * if it is second call of key_touch_Start() function.
 664:Generated_Source\PSoC4/key_touch_Sensing.c ****          */
 665:Generated_Source\PSoC4/key_touch_Sensing.c ****         key_touch_SsSwitchSensingMode(key_touch_UNDEFINED_E);
 666:Generated_Source\PSoC4/key_touch_Sensing.c ****     #elif (key_touch_ENABLE == key_touch_CSD_EN)
 667:Generated_Source\PSoC4/key_touch_Sensing.c ****         /*  Initialize CSD block for CSD scanning   */
 668:Generated_Source\PSoC4/key_touch_Sensing.c ****         key_touch_SsCSDInitialize();
 669:Generated_Source\PSoC4/key_touch_Sensing.c **** 
 670:Generated_Source\PSoC4/key_touch_Sensing.c ****     #elif (key_touch_ENABLE == key_touch_CSX_EN)
 671:Generated_Source\PSoC4/key_touch_Sensing.c ****         /*  Initialize CSD block for CSX scanning   */
 672:Generated_Source\PSoC4/key_touch_Sensing.c ****         key_touch_CSXInitialize();
 673:Generated_Source\PSoC4/key_touch_Sensing.c **** 
 674:Generated_Source\PSoC4/key_touch_Sensing.c ****     #else
 675:Generated_Source\PSoC4/key_touch_Sensing.c ****         #error "No sensing method enabled, component cannot work in this mode"
 676:Generated_Source\PSoC4/key_touch_Sensing.c ****         initStatus = CYRET_UNKNOWN;
 677:Generated_Source\PSoC4/key_touch_Sensing.c ****     #endif  /* (key_touch_ENABLE == key_touch_CSD2X_EN) */
 678:Generated_Source\PSoC4/key_touch_Sensing.c **** 
 679:Generated_Source\PSoC4/key_touch_Sensing.c ****     return (initStatus);
 680:Generated_Source\PSoC4/key_touch_Sensing.c **** }
 681:Generated_Source\PSoC4/key_touch_Sensing.c **** 
 682:Generated_Source\PSoC4/key_touch_Sensing.c **** 
 683:Generated_Source\PSoC4/key_touch_Sensing.c **** /*******************************************************************************
 684:Generated_Source\PSoC4/key_touch_Sensing.c **** * Function Name: key_touch_SetPinState
 685:Generated_Source\PSoC4/key_touch_Sensing.c **** ****************************************************************************//**
 686:Generated_Source\PSoC4/key_touch_Sensing.c **** *
 687:Generated_Source\PSoC4/key_touch_Sensing.c **** * \brief
 688:Generated_Source\PSoC4/key_touch_Sensing.c **** *  Sets the state (drive mode and output state) of port pin used by a sensor.
 689:Generated_Source\PSoC4/key_touch_Sensing.c **** *  The possible states are GND, Shield, High-Z, Tx or Rx, sensor. If the sensor
 690:Generated_Source\PSoC4/key_touch_Sensing.c **** *  specified in the input parameter is a ganged sensor, then state of all pins
 691:Generated_Source\PSoC4/key_touch_Sensing.c **** *  associated with ganged sensor is updated.
 692:Generated_Source\PSoC4/key_touch_Sensing.c **** *
 693:Generated_Source\PSoC4/key_touch_Sensing.c **** * \details
 694:Generated_Source\PSoC4/key_touch_Sensing.c **** *  This function sets a specified state to the specified sensor pin. If the
 695:Generated_Source\PSoC4/key_touch_Sensing.c **** *  sensor is a ganged sensor, then the specified state is also set for all
 696:Generated_Source\PSoC4/key_touch_Sensing.c **** *  ganged pins of this sensor. Scanning should be completed before calling
 697:Generated_Source\PSoC4/key_touch_Sensing.c **** *  this API.
 698:Generated_Source\PSoC4/key_touch_Sensing.c **** *
 699:Generated_Source\PSoC4/key_touch_Sensing.c **** *  The key_touch_SHIELD and key_touch_SENSOR states are not
 700:Generated_Source\PSoC4/key_touch_Sensing.c **** *  allowed if there is no CSD widget configured in the users project.
 701:Generated_Source\PSoC4/key_touch_Sensing.c **** *  The key_touch_TX_PIN and key_touch_RX_PIN states are not
 702:Generated_Source\PSoC4/key_touch_Sensing.c **** *  allowed if there is no CSX widget configured in the users project.
 703:Generated_Source\PSoC4/key_touch_Sensing.c **** *
 704:Generated_Source\PSoC4/key_touch_Sensing.c **** *  It is not recommended to call this function directly from the application
 705:Generated_Source\PSoC4/key_touch_Sensing.c **** *  layer. This function should be used to implement only the users specific
 706:Generated_Source\PSoC4/key_touch_Sensing.c **** *  use cases. Functions that perform a setup and scan of the sensor/widget
 707:Generated_Source\PSoC4/key_touch_Sensing.c **** *  automatically set needed pin states. They do not take into account changes
 708:Generated_Source\PSoC4/key_touch_Sensing.c **** *  in the design made by the key_touch_SetPinState() function.
 709:Generated_Source\PSoC4/key_touch_Sensing.c **** *
 710:Generated_Source\PSoC4/key_touch_Sensing.c **** *  \param wdgtIndex
 711:Generated_Source\PSoC4/key_touch_Sensing.c **** *  Specify the ID number of the widget to change the pin state of the specified
 712:Generated_Source\PSoC4/key_touch_Sensing.c **** *  sensor.
 713:Generated_Source\PSoC4/key_touch_Sensing.c **** *  A macro for the widget ID can be found in the key_touch Configuration header
 714:Generated_Source\PSoC4/key_touch_Sensing.c **** *  file defined as key_touch_<WidgetName>_WDGT_ID.
 715:Generated_Source\PSoC4/key_touch_Sensing.c **** *
 716:Generated_Source\PSoC4/key_touch_Sensing.c **** *  \param snsIndex
 717:Generated_Source\PSoC4/key_touch_Sensing.c **** *  Specify the ID number of the sensor within the widget to change its pin
 718:Generated_Source\PSoC4/key_touch_Sensing.c **** *  state.
 719:Generated_Source\PSoC4/key_touch_Sensing.c **** *  A macro for the sensor ID within a specified widget can be found in the
ARM GAS  C:\Users\Administrator\AppData\Local\Temp\ccPYRpEO.s 			page 18


 720:Generated_Source\PSoC4/key_touch_Sensing.c **** *  key_touch Configuration header file defined as
 721:Generated_Source\PSoC4/key_touch_Sensing.c **** *  key_touch_<WidgetName>_SNS<SensorNumber>_ID
 722:Generated_Source\PSoC4/key_touch_Sensing.c **** *
 723:Generated_Source\PSoC4/key_touch_Sensing.c **** *  \param state
 724:Generated_Source\PSoC4/key_touch_Sensing.c **** *   Specify the state of the sensor that needs to be set:
 725:Generated_Source\PSoC4/key_touch_Sensing.c **** *     1. key_touch_GROUND - The pin is connected to ground.
 726:Generated_Source\PSoC4/key_touch_Sensing.c **** *     2. key_touch_HIGHZ - The drive mode of the pin is set to High-Z
 727:Generated_Source\PSoC4/key_touch_Sensing.c **** *        Analog.
 728:Generated_Source\PSoC4/key_touch_Sensing.c **** *     3. key_touch_SHIELD - The shield signal is routed to the pin (only
 729:Generated_Source\PSoC4/key_touch_Sensing.c **** *        in CSD sensing method when shield electrode is enabled).
 730:Generated_Source\PSoC4/key_touch_Sensing.c **** *     4. key_touch_SENSOR C The pin is connected to the scanning bus
 731:Generated_Source\PSoC4/key_touch_Sensing.c **** *        (only in CSD sensing method).
 732:Generated_Source\PSoC4/key_touch_Sensing.c **** *     5. key_touch_TX_PIN C The TX signal is routed to the sensor
 733:Generated_Source\PSoC4/key_touch_Sensing.c **** *        (only in CSX sensing method).
 734:Generated_Source\PSoC4/key_touch_Sensing.c **** *     6. key_touch_RX_PIN C The pin is connected to the scanning bus
 735:Generated_Source\PSoC4/key_touch_Sensing.c **** *        (only in CSX sensing method).
 736:Generated_Source\PSoC4/key_touch_Sensing.c **** *
 737:Generated_Source\PSoC4/key_touch_Sensing.c **** *******************************************************************************/
 738:Generated_Source\PSoC4/key_touch_Sensing.c **** void key_touch_SetPinState(uint32 wdgtIndex, uint32 snsIndex, uint32 state)
 739:Generated_Source\PSoC4/key_touch_Sensing.c **** {
 243              		.loc 1 739 0
 244              		.cfi_startproc
 245              	.LVL15:
 246 0000 70B5     		push	{r4, r5, r6, lr}
 247              		.cfi_def_cfa_offset 16
 248              		.cfi_offset 4, -16
 249              		.cfi_offset 5, -12
 250              		.cfi_offset 6, -8
 251              		.cfi_offset 14, -4
 740:Generated_Source\PSoC4/key_touch_Sensing.c ****     key_touch_FLASH_IO_STRUCT const *curSnsIOPtr;
 741:Generated_Source\PSoC4/key_touch_Sensing.c ****     #if (key_touch_ENABLE == key_touch_CSD_GANGED_SNS_EN)
 742:Generated_Source\PSoC4/key_touch_Sensing.c ****         key_touch_FLASH_SNS_STRUCT const *curFlashSnsPtr;
 743:Generated_Source\PSoC4/key_touch_Sensing.c ****         uint32 tempVal;
 744:Generated_Source\PSoC4/key_touch_Sensing.c ****     #endif /* (key_touch_ENABLE == key_touch_CSD_GANGED_SNS_EN) */
 745:Generated_Source\PSoC4/key_touch_Sensing.c ****     uint32 newRegisterValue;
 746:Generated_Source\PSoC4/key_touch_Sensing.c ****     uint8  interruptState;
 747:Generated_Source\PSoC4/key_touch_Sensing.c ****     uint32 pinHSIOMShift;
 748:Generated_Source\PSoC4/key_touch_Sensing.c ****     uint32 pinModeShift;
 749:Generated_Source\PSoC4/key_touch_Sensing.c **** 
 750:Generated_Source\PSoC4/key_touch_Sensing.c ****     #if (key_touch_ENABLE == key_touch_CSD_GANGED_SNS_EN)
 751:Generated_Source\PSoC4/key_touch_Sensing.c ****         /* Check ganged sns flag  */
 752:Generated_Source\PSoC4/key_touch_Sensing.c ****         if (key_touch_GANGED_SNS_MASK == (key_touch_dsFlash.wdgtArray[wdgtIndex].staticConfig &
 753:Generated_Source\PSoC4/key_touch_Sensing.c ****             key_touch_GANGED_SNS_MASK))
 754:Generated_Source\PSoC4/key_touch_Sensing.c ****         {
 755:Generated_Source\PSoC4/key_touch_Sensing.c ****             curFlashSnsPtr = key_touch_dsFlash.wdgtArray[wdgtIndex].ptr2SnsFlash;
 756:Generated_Source\PSoC4/key_touch_Sensing.c ****             curFlashSnsPtr += snsIndex;
 757:Generated_Source\PSoC4/key_touch_Sensing.c ****             curSnsIOPtr = &key_touch_ioList[curFlashSnsPtr->firstPinId];
 758:Generated_Source\PSoC4/key_touch_Sensing.c **** 
 759:Generated_Source\PSoC4/key_touch_Sensing.c ****             /* Get number of ganged pins  */
 760:Generated_Source\PSoC4/key_touch_Sensing.c ****             tempVal = curFlashSnsPtr->numPins;
 761:Generated_Source\PSoC4/key_touch_Sensing.c ****         }
 762:Generated_Source\PSoC4/key_touch_Sensing.c ****         else
 763:Generated_Source\PSoC4/key_touch_Sensing.c ****         {
 764:Generated_Source\PSoC4/key_touch_Sensing.c ****             curSnsIOPtr = (key_touch_FLASH_IO_STRUCT const *)
 765:Generated_Source\PSoC4/key_touch_Sensing.c ****                                     key_touch_dsFlash.wdgtArray[wdgtIndex].ptr2SnsFlash + snsIndex;
 766:Generated_Source\PSoC4/key_touch_Sensing.c ****             /* There are no ganged pins */
 767:Generated_Source\PSoC4/key_touch_Sensing.c ****             tempVal = 1u;
ARM GAS  C:\Users\Administrator\AppData\Local\Temp\ccPYRpEO.s 			page 19


 768:Generated_Source\PSoC4/key_touch_Sensing.c ****         }
 769:Generated_Source\PSoC4/key_touch_Sensing.c ****     #else
 770:Generated_Source\PSoC4/key_touch_Sensing.c ****         curSnsIOPtr = (key_touch_FLASH_IO_STRUCT const *)
 771:Generated_Source\PSoC4/key_touch_Sensing.c ****                                     key_touch_dsFlash.wdgtArray[wdgtIndex].ptr2SnsFlash + snsIndex;
 252              		.loc 1 771 0
 253 0002 C300     		lsl	r3, r0, #3
 254 0004 181A     		sub	r0, r3, r0
 255              	.LVL16:
 256 0006 8000     		lsl	r0, r0, #2
 257 0008 204B     		ldr	r3, .L32
 258 000a C458     		ldr	r4, [r0, r3]
 259 000c CB00     		lsl	r3, r1, #3
 260 000e 591A     		sub	r1, r3, r1
 261              	.LVL17:
 262 0010 8900     		lsl	r1, r1, #2
 770:Generated_Source\PSoC4/key_touch_Sensing.c ****                                     key_touch_dsFlash.wdgtArray[wdgtIndex].ptr2SnsFlash + snsIndex;
 263              		.loc 1 770 0
 264 0012 6418     		add	r4, r4, r1
 265              	.LVL18:
 772:Generated_Source\PSoC4/key_touch_Sensing.c ****     #endif  /* (key_touch_ENABLE == key_touch_CSD_GANGED_SNS_EN) */
 773:Generated_Source\PSoC4/key_touch_Sensing.c **** 
 774:Generated_Source\PSoC4/key_touch_Sensing.c ****     #if (key_touch_ENABLE == key_touch_CSD_GANGED_SNS_EN)
 775:Generated_Source\PSoC4/key_touch_Sensing.c ****         /* Reconfigure all ganged sensors  */
 776:Generated_Source\PSoC4/key_touch_Sensing.c ****         do
 777:Generated_Source\PSoC4/key_touch_Sensing.c ****         {
 778:Generated_Source\PSoC4/key_touch_Sensing.c ****     #endif  /* (key_touch_ENABLE == key_touch_CSD_GANGED_SNS_EN) */
 779:Generated_Source\PSoC4/key_touch_Sensing.c **** 
 780:Generated_Source\PSoC4/key_touch_Sensing.c ****             /* Get HSIOM and port mode shifts */
 781:Generated_Source\PSoC4/key_touch_Sensing.c ****             pinHSIOMShift = (uint32)curSnsIOPtr->hsiomShift;
 266              		.loc 1 781 0
 267 0014 267E     		ldrb	r6, [r4, #24]
 268              	.LVL19:
 782:Generated_Source\PSoC4/key_touch_Sensing.c ****             pinModeShift = (uint32)curSnsIOPtr->shift;
 269              		.loc 1 782 0
 270 0016 A57E     		ldrb	r5, [r4, #26]
 271              	.LVL20:
 783:Generated_Source\PSoC4/key_touch_Sensing.c **** 
 784:Generated_Source\PSoC4/key_touch_Sensing.c ****             /* Reset HSIOM register */
 785:Generated_Source\PSoC4/key_touch_Sensing.c ****             CY_SET_REG32(curSnsIOPtr->hsiomPtr, CY_GET_REG32(curSnsIOPtr->hsiomPtr) & ~(key_touch_H
 272              		.loc 1 785 0
 273 0018 2068     		ldr	r0, [r4]
 274 001a 0368     		ldr	r3, [r0]
 275 001c 0F21     		mov	r1, #15
 276 001e B140     		lsl	r1, r1, r6
 277 0020 8B43     		bic	r3, r1
 278 0022 0360     		str	r3, [r0]
 786:Generated_Source\PSoC4/key_touch_Sensing.c **** 
 787:Generated_Source\PSoC4/key_touch_Sensing.c ****             switch (state)
 279              		.loc 1 787 0
 280 0024 012A     		cmp	r2, #1
 281 0026 1AD0     		beq	.L29
 282 0028 002A     		cmp	r2, #0
 283 002a 02D0     		beq	.L30
 284 002c 032A     		cmp	r2, #3
 285 002e 28D0     		beq	.L31
 286 0030 2AE0     		b	.L27
 287              	.L30:
ARM GAS  C:\Users\Administrator\AppData\Local\Temp\ccPYRpEO.s 			page 20


 788:Generated_Source\PSoC4/key_touch_Sensing.c ****             {
 789:Generated_Source\PSoC4/key_touch_Sensing.c ****             case key_touch_GROUND:
 790:Generated_Source\PSoC4/key_touch_Sensing.c ****                 interruptState = CyEnterCriticalSection();
 288              		.loc 1 790 0
 289 0032 FFF7FEFF 		bl	CyEnterCriticalSection
 290              	.LVL21:
 791:Generated_Source\PSoC4/key_touch_Sensing.c **** 
 792:Generated_Source\PSoC4/key_touch_Sensing.c ****                 /* Update port configuration register (drive mode) for sensor */
 793:Generated_Source\PSoC4/key_touch_Sensing.c ****                 newRegisterValue = CY_GET_REG32(curSnsIOPtr->pcPtr);
 291              		.loc 1 793 0
 292 0036 6168     		ldr	r1, [r4, #4]
 293 0038 0B68     		ldr	r3, [r1]
 294              	.LVL22:
 794:Generated_Source\PSoC4/key_touch_Sensing.c ****                 newRegisterValue &= ~(key_touch_GPIO_PC_MASK << pinModeShift);
 295              		.loc 1 794 0
 296 003a 0722     		mov	r2, #7
 297 003c AA40     		lsl	r2, r2, r5
 298 003e 9343     		bic	r3, r2
 299              	.LVL23:
 795:Generated_Source\PSoC4/key_touch_Sensing.c ****                 newRegisterValue |= (key_touch_SNS_GROUND_CONNECT << pinModeShift);
 300              		.loc 1 795 0
 301 0040 0622     		mov	r2, #6
 302 0042 AA40     		lsl	r2, r2, r5
 303 0044 151C     		mov	r5, r2
 304              	.LVL24:
 305 0046 1D43     		orr	r5, r3
 306              	.LVL25:
 796:Generated_Source\PSoC4/key_touch_Sensing.c ****                 CY_SET_REG32(curSnsIOPtr->pcPtr, newRegisterValue);
 307              		.loc 1 796 0
 308 0048 0D60     		str	r5, [r1]
 797:Generated_Source\PSoC4/key_touch_Sensing.c **** 
 798:Generated_Source\PSoC4/key_touch_Sensing.c ****                 CyExitCriticalSection(interruptState);
 309              		.loc 1 798 0
 310 004a FFF7FEFF 		bl	CyExitCriticalSection
 311              	.LVL26:
 799:Generated_Source\PSoC4/key_touch_Sensing.c **** 
 800:Generated_Source\PSoC4/key_touch_Sensing.c ****                 /* Set logic 0 to port data register */
 801:Generated_Source\PSoC4/key_touch_Sensing.c ****                 CY_SET_REG32(curSnsIOPtr->drPtr, CY_GET_REG32(curSnsIOPtr->drPtr) & (uint32)~(uint3
 312              		.loc 1 801 0
 313 004e A168     		ldr	r1, [r4, #8]
 314 0050 0B68     		ldr	r3, [r1]
 315 0052 607E     		ldrb	r0, [r4, #25]
 316 0054 0122     		mov	r2, #1
 317 0056 8240     		lsl	r2, r2, r0
 318 0058 9343     		bic	r3, r2
 319 005a 0B60     		str	r3, [r1]
 802:Generated_Source\PSoC4/key_touch_Sensing.c ****                 break;
 320              		.loc 1 802 0
 321 005c 14E0     		b	.L27
 322              	.LVL27:
 323              	.L29:
 803:Generated_Source\PSoC4/key_touch_Sensing.c **** 
 804:Generated_Source\PSoC4/key_touch_Sensing.c ****             case key_touch_HIGHZ:
 805:Generated_Source\PSoC4/key_touch_Sensing.c ****                 interruptState = CyEnterCriticalSection();
 324              		.loc 1 805 0
 325 005e FFF7FEFF 		bl	CyEnterCriticalSection
 326              	.LVL28:
ARM GAS  C:\Users\Administrator\AppData\Local\Temp\ccPYRpEO.s 			page 21


 806:Generated_Source\PSoC4/key_touch_Sensing.c **** 
 807:Generated_Source\PSoC4/key_touch_Sensing.c ****                 /* Update port configuration register (drive mode) for sensor */
 808:Generated_Source\PSoC4/key_touch_Sensing.c ****                 newRegisterValue = CY_GET_REG32(curSnsIOPtr->pcPtr);
 327              		.loc 1 808 0
 328 0062 6168     		ldr	r1, [r4, #4]
 329 0064 0B68     		ldr	r3, [r1]
 330              	.LVL29:
 809:Generated_Source\PSoC4/key_touch_Sensing.c ****                 newRegisterValue &= ~(key_touch_GPIO_PC_MASK << pinModeShift);
 331              		.loc 1 809 0
 332 0066 0722     		mov	r2, #7
 333 0068 AA40     		lsl	r2, r2, r5
 334 006a 9343     		bic	r3, r2
 335              	.LVL30:
 810:Generated_Source\PSoC4/key_touch_Sensing.c ****                 CY_SET_REG32(curSnsIOPtr->pcPtr, newRegisterValue);
 336              		.loc 1 810 0
 337 006c 0B60     		str	r3, [r1]
 811:Generated_Source\PSoC4/key_touch_Sensing.c **** 
 812:Generated_Source\PSoC4/key_touch_Sensing.c ****                 CyExitCriticalSection(interruptState);
 338              		.loc 1 812 0
 339 006e FFF7FEFF 		bl	CyExitCriticalSection
 340              	.LVL31:
 813:Generated_Source\PSoC4/key_touch_Sensing.c **** 
 814:Generated_Source\PSoC4/key_touch_Sensing.c ****                 /* Set logic 0 to port data register */
 815:Generated_Source\PSoC4/key_touch_Sensing.c ****                 CY_SET_REG32(curSnsIOPtr->drPtr, CY_GET_REG32(curSnsIOPtr->drPtr) & (uint32)~(uint3
 341              		.loc 1 815 0
 342 0072 A168     		ldr	r1, [r4, #8]
 343 0074 0B68     		ldr	r3, [r1]
 344 0076 607E     		ldrb	r0, [r4, #25]
 345 0078 0122     		mov	r2, #1
 346 007a 8240     		lsl	r2, r2, r0
 347 007c 9343     		bic	r3, r2
 348 007e 0B60     		str	r3, [r1]
 816:Generated_Source\PSoC4/key_touch_Sensing.c ****                 break;
 349              		.loc 1 816 0
 350 0080 02E0     		b	.L27
 351              	.LVL32:
 352              	.L31:
 817:Generated_Source\PSoC4/key_touch_Sensing.c **** 
 818:Generated_Source\PSoC4/key_touch_Sensing.c ****             #if (key_touch_ENABLE == key_touch_CSD_SHIELD_EN)
 819:Generated_Source\PSoC4/key_touch_Sensing.c ****                 case key_touch_SHIELD:
 820:Generated_Source\PSoC4/key_touch_Sensing.c ****                     /* Set drive mode to Analog */
 821:Generated_Source\PSoC4/key_touch_Sensing.c ****                     CY_SET_REG32(curSnsIOPtr->pcPtr, CY_GET_REG32(curSnsIOPtr->pcPtr) &
 822:Generated_Source\PSoC4/key_touch_Sensing.c ****                                ~(key_touch_GPIO_PC_MASK <<(curSnsIOPtr->shift)));
 823:Generated_Source\PSoC4/key_touch_Sensing.c **** 
 824:Generated_Source\PSoC4/key_touch_Sensing.c ****                     /* Set appropriate bit in HSIOM register to configure pin to shield mode */
 825:Generated_Source\PSoC4/key_touch_Sensing.c ****                     CY_SET_REG32(curSnsIOPtr->hsiomPtr, CY_GET_REG32(curSnsIOPtr->hsiomPtr) |
 826:Generated_Source\PSoC4/key_touch_Sensing.c ****                                                        (key_touch_HSIOM_SEL_CSD_SHIELD << pinHSIOMS
 827:Generated_Source\PSoC4/key_touch_Sensing.c ****                     break;
 828:Generated_Source\PSoC4/key_touch_Sensing.c ****             #endif  /* (key_touch_ENABLE == key_touch_CSD_SHIELD_EN) */
 829:Generated_Source\PSoC4/key_touch_Sensing.c **** 
 830:Generated_Source\PSoC4/key_touch_Sensing.c ****             #if ((key_touch_ENABLE == key_touch_CSD_EN) || \
 831:Generated_Source\PSoC4/key_touch_Sensing.c ****                  (key_touch_ENABLE == key_touch_CSD_CSX_EN))
 832:Generated_Source\PSoC4/key_touch_Sensing.c ****                 case key_touch_SENSOR:
 833:Generated_Source\PSoC4/key_touch_Sensing.c ****                     /* Enable sensor */
 834:Generated_Source\PSoC4/key_touch_Sensing.c ****                     key_touch_CSDConnectSns(curSnsIOPtr);
 353              		.loc 1 834 0
 354 0082 201C     		mov	r0, r4
ARM GAS  C:\Users\Administrator\AppData\Local\Temp\ccPYRpEO.s 			page 22


 355 0084 FFF7FEFF 		bl	key_touch_CSDConnectSns
 356              	.LVL33:
 357              	.L27:
 835:Generated_Source\PSoC4/key_touch_Sensing.c ****                     break;
 836:Generated_Source\PSoC4/key_touch_Sensing.c ****             #endif  /* ((key_touch_ENABLE == key_touch_CSD_EN) || \
 837:Generated_Source\PSoC4/key_touch_Sensing.c ****                         (key_touch_ENABLE == key_touch_CSD_CSX_EN)) */
 838:Generated_Source\PSoC4/key_touch_Sensing.c **** 
 839:Generated_Source\PSoC4/key_touch_Sensing.c ****             #if ((key_touch_ENABLE == key_touch_CSX_EN) || \
 840:Generated_Source\PSoC4/key_touch_Sensing.c ****                  (key_touch_ENABLE == key_touch_CSD_CSX_EN))
 841:Generated_Source\PSoC4/key_touch_Sensing.c ****                 case key_touch_TX_PIN:
 842:Generated_Source\PSoC4/key_touch_Sensing.c ****                     CY_SET_REG32(curSnsIOPtr->hsiomPtr, CY_GET_REG32(curSnsIOPtr->hsiomPtr) | (key_
 843:Generated_Source\PSoC4/key_touch_Sensing.c ****                     CY_SET_REG32(curSnsIOPtr->pcPtr, CY_GET_REG32(curSnsIOPtr->pcPtr) | (key_touch_
 844:Generated_Source\PSoC4/key_touch_Sensing.c ****                     break;
 845:Generated_Source\PSoC4/key_touch_Sensing.c **** 
 846:Generated_Source\PSoC4/key_touch_Sensing.c ****                 case key_touch_RX_PIN:
 847:Generated_Source\PSoC4/key_touch_Sensing.c ****                     CY_SET_REG32(curSnsIOPtr->hsiomPtr, CY_GET_REG32(curSnsIOPtr->hsiomPtr) | (key_
 848:Generated_Source\PSoC4/key_touch_Sensing.c ****                     CY_SET_REG32(curSnsIOPtr->pcPtr, CY_GET_REG32(curSnsIOPtr->pcPtr) & ~(key_touch
 849:Generated_Source\PSoC4/key_touch_Sensing.c ****                     break;
 850:Generated_Source\PSoC4/key_touch_Sensing.c ****             #endif  /* ((key_touch_ENABLE == key_touch_CSX_EN) || \
 851:Generated_Source\PSoC4/key_touch_Sensing.c ****                         (key_touch_ENABLE == key_touch_CSD_CSX_EN)) */
 852:Generated_Source\PSoC4/key_touch_Sensing.c **** 
 853:Generated_Source\PSoC4/key_touch_Sensing.c ****             default:
 854:Generated_Source\PSoC4/key_touch_Sensing.c ****                 /* Wrong input */
 855:Generated_Source\PSoC4/key_touch_Sensing.c ****                 break;
 856:Generated_Source\PSoC4/key_touch_Sensing.c ****             }
 857:Generated_Source\PSoC4/key_touch_Sensing.c **** 
 858:Generated_Source\PSoC4/key_touch_Sensing.c ****     #if (key_touch_ENABLE == key_touch_CSD_GANGED_SNS_EN)
 859:Generated_Source\PSoC4/key_touch_Sensing.c ****             curSnsIOPtr++;
 860:Generated_Source\PSoC4/key_touch_Sensing.c ****             tempVal--;
 861:Generated_Source\PSoC4/key_touch_Sensing.c ****         } while (0u != tempVal);
 862:Generated_Source\PSoC4/key_touch_Sensing.c ****     #endif  /* (key_touch_ENABLE == key_touch_CSD_GANGED_SNS_EN) */
 863:Generated_Source\PSoC4/key_touch_Sensing.c **** }
 358              		.loc 1 863 0
 359              		@ sp needed
 360              	.LVL34:
 361              	.LVL35:
 362 0088 70BD     		pop	{r4, r5, r6, pc}
 363              	.L33:
 364 008a C046     		.align	2
 365              	.L32:
 366 008c 00000000 		.word	key_touch_dsFlash
 367              		.cfi_endproc
 368              	.LFE6:
 369              		.size	key_touch_SetPinState, .-key_touch_SetPinState
 370              		.section	.text.key_touch_SsPostAllWidgetsScan,"ax",%progbits
 371              		.align	2
 372              		.global	key_touch_SsPostAllWidgetsScan
 373              		.code	16
 374              		.thumb_func
 375              		.type	key_touch_SsPostAllWidgetsScan, %function
 376              	key_touch_SsPostAllWidgetsScan:
 377              	.LFB7:
 864:Generated_Source\PSoC4/key_touch_Sensing.c **** 
 865:Generated_Source\PSoC4/key_touch_Sensing.c **** 
 866:Generated_Source\PSoC4/key_touch_Sensing.c **** #if ((key_touch_ENABLE == key_touch_CSD_CSX_EN) || \
 867:Generated_Source\PSoC4/key_touch_Sensing.c ****      (key_touch_ENABLE == key_touch_SELF_TEST_EN) || \
 868:Generated_Source\PSoC4/key_touch_Sensing.c ****      (key_touch_ENABLE == key_touch_ADC_EN))
ARM GAS  C:\Users\Administrator\AppData\Local\Temp\ccPYRpEO.s 			page 23


 869:Generated_Source\PSoC4/key_touch_Sensing.c **** 
 870:Generated_Source\PSoC4/key_touch_Sensing.c ****     #if (key_touch_ENABLE == key_touch_CSD_EN)
 871:Generated_Source\PSoC4/key_touch_Sensing.c ****         /*******************************************************************************
 872:Generated_Source\PSoC4/key_touch_Sensing.c ****         * Function Name: key_touch_SsCSDDisableMode
 873:Generated_Source\PSoC4/key_touch_Sensing.c ****         ****************************************************************************//**
 874:Generated_Source\PSoC4/key_touch_Sensing.c ****         *
 875:Generated_Source\PSoC4/key_touch_Sensing.c ****         * \brief
 876:Generated_Source\PSoC4/key_touch_Sensing.c ****         *  This function disables CSD mode.
 877:Generated_Source\PSoC4/key_touch_Sensing.c ****         *
 878:Generated_Source\PSoC4/key_touch_Sensing.c ****         * \details
 879:Generated_Source\PSoC4/key_touch_Sensing.c ****         *  To disable CSD mode the following tasks are performed:
 880:Generated_Source\PSoC4/key_touch_Sensing.c ****         *  1. Disconnect Cmod from AMUXBUS-A;
 881:Generated_Source\PSoC4/key_touch_Sensing.c ****         *  2. Disconnect previous CSX electrode if it has been connected;
 882:Generated_Source\PSoC4/key_touch_Sensing.c ****         *  3. Disconnect Csh from AMUXBUS-B;
 883:Generated_Source\PSoC4/key_touch_Sensing.c ****         *  4. Disable Shield Electrodes.
 884:Generated_Source\PSoC4/key_touch_Sensing.c ****         *
 885:Generated_Source\PSoC4/key_touch_Sensing.c ****         *******************************************************************************/
 886:Generated_Source\PSoC4/key_touch_Sensing.c ****         static void key_touch_SsCSDDisableMode(void)
 887:Generated_Source\PSoC4/key_touch_Sensing.c ****         {
 888:Generated_Source\PSoC4/key_touch_Sensing.c ****             uint32 newRegValue;
 889:Generated_Source\PSoC4/key_touch_Sensing.c **** 
 890:Generated_Source\PSoC4/key_touch_Sensing.c ****             /* Disconnect Cmod from AMUXBUS-A using HSIOM registers */
 891:Generated_Source\PSoC4/key_touch_Sensing.c ****             newRegValue = CY_GET_REG32(key_touch_CMOD_HSIOM_PTR);
 892:Generated_Source\PSoC4/key_touch_Sensing.c ****             newRegValue &= (uint32)(~(uint32)key_touch_CMOD_HSIOM_MASK);
 893:Generated_Source\PSoC4/key_touch_Sensing.c ****             CY_SET_REG32(key_touch_CMOD_HSIOM_PTR, newRegValue);
 894:Generated_Source\PSoC4/key_touch_Sensing.c **** 
 895:Generated_Source\PSoC4/key_touch_Sensing.c ****             #if ((key_touch_ENABLE == key_touch_CSDV2) && \
 896:Generated_Source\PSoC4/key_touch_Sensing.c ****                  ((key_touch_ENABLE == key_touch_CSD_IDAC_COMP_EN) && \
 897:Generated_Source\PSoC4/key_touch_Sensing.c ****                  (key_touch_ENABLE == key_touch_CSD_DEDICATED_IDAC_COMP_EN)))
 898:Generated_Source\PSoC4/key_touch_Sensing.c ****                 /* Disconnect IDACA and IDACB */
 899:Generated_Source\PSoC4/key_touch_Sensing.c ****                 newRegValue = CY_GET_REG32(key_touch_SW_REFGEN_SEL_PTR);
 900:Generated_Source\PSoC4/key_touch_Sensing.c ****                 newRegValue &= (uint32)(~key_touch_SW_REFGEN_SEL_SW_IAIB_MASK);
 901:Generated_Source\PSoC4/key_touch_Sensing.c ****                 CY_SET_REG32(key_touch_SW_REFGEN_SEL_PTR, newRegValue);
 902:Generated_Source\PSoC4/key_touch_Sensing.c ****             #endif /* ((key_touch_ENABLE == key_touch_CSDV2) && \
 903:Generated_Source\PSoC4/key_touch_Sensing.c ****                        ((key_touch_ENABLE == key_touch_CSD_IDAC_COMP_EN) && \
 904:Generated_Source\PSoC4/key_touch_Sensing.c ****                        (key_touch_ENABLE == key_touch_CSD_DEDICATED_IDAC_COMP_EN))) */
 905:Generated_Source\PSoC4/key_touch_Sensing.c **** 
 906:Generated_Source\PSoC4/key_touch_Sensing.c ****             /* Disconnect previous CSD electrode if it has been connected */
 907:Generated_Source\PSoC4/key_touch_Sensing.c ****             key_touch_SsCSDElectrodeCheck();
 908:Generated_Source\PSoC4/key_touch_Sensing.c **** 
 909:Generated_Source\PSoC4/key_touch_Sensing.c ****             /* Disconnect Csh from AMUXBUS-B */
 910:Generated_Source\PSoC4/key_touch_Sensing.c ****             #if ((key_touch_ENABLE == key_touch_CSD_SHIELD_EN) && \
 911:Generated_Source\PSoC4/key_touch_Sensing.c ****                  (key_touch_ENABLE == key_touch_CSD_SHIELD_TANK_EN))
 912:Generated_Source\PSoC4/key_touch_Sensing.c ****                 newRegValue = CY_GET_REG32(key_touch_CSH_HSIOM_PTR);
 913:Generated_Source\PSoC4/key_touch_Sensing.c ****                 newRegValue &= (uint32)(~(uint32)(key_touch_CSH_TO_AMUXBUS_B_MASK << key_touch_CSH_
 914:Generated_Source\PSoC4/key_touch_Sensing.c ****                 CY_SET_REG32(key_touch_CSH_HSIOM_PTR, newRegValue);
 915:Generated_Source\PSoC4/key_touch_Sensing.c ****             #endif /* ((key_touch_ENABLE == key_touch_CSD_SHIELD_EN) && \
 916:Generated_Source\PSoC4/key_touch_Sensing.c ****                        (key_touch_ENABLE == key_touch_CSD_SHIELD_TANK_EN)) */
 917:Generated_Source\PSoC4/key_touch_Sensing.c **** 
 918:Generated_Source\PSoC4/key_touch_Sensing.c ****             #if ((key_touch_ENABLE == key_touch_CSD_SHIELD_EN) && \
 919:Generated_Source\PSoC4/key_touch_Sensing.c ****                  (0u != key_touch_CSD_TOTAL_SHIELD_COUNT))
 920:Generated_Source\PSoC4/key_touch_Sensing.c ****                 key_touch_SsCSDDisableShieldElectrodes();
 921:Generated_Source\PSoC4/key_touch_Sensing.c ****             #endif /* ((key_touch_ENABLE == key_touch_CSD_SHIELD_EN) && \
 922:Generated_Source\PSoC4/key_touch_Sensing.c ****                        (0u != key_touch_CSD_TOTAL_SHIELD_COUNT)) */
 923:Generated_Source\PSoC4/key_touch_Sensing.c ****         }
 924:Generated_Source\PSoC4/key_touch_Sensing.c ****     #endif /* (key_touch_ENABLE == key_touch_CSD_EN) */
 925:Generated_Source\PSoC4/key_touch_Sensing.c **** 
ARM GAS  C:\Users\Administrator\AppData\Local\Temp\ccPYRpEO.s 			page 24


 926:Generated_Source\PSoC4/key_touch_Sensing.c **** 
 927:Generated_Source\PSoC4/key_touch_Sensing.c ****     #if (key_touch_ENABLE == key_touch_CSX_EN)
 928:Generated_Source\PSoC4/key_touch_Sensing.c ****         /*******************************************************************************
 929:Generated_Source\PSoC4/key_touch_Sensing.c ****         * Function Name: key_touch_SsDisableCSXMode
 930:Generated_Source\PSoC4/key_touch_Sensing.c ****         ****************************************************************************//**
 931:Generated_Source\PSoC4/key_touch_Sensing.c ****         *
 932:Generated_Source\PSoC4/key_touch_Sensing.c ****         * \brief
 933:Generated_Source\PSoC4/key_touch_Sensing.c ****         *  This function disables CSX mode.
 934:Generated_Source\PSoC4/key_touch_Sensing.c ****         *
 935:Generated_Source\PSoC4/key_touch_Sensing.c ****         * \details
 936:Generated_Source\PSoC4/key_touch_Sensing.c ****         *  To disable CSX mode the following tasks are performed:
 937:Generated_Source\PSoC4/key_touch_Sensing.c ****         *  1. Disconnect CintA and CintB from AMUXBUS-A
 938:Generated_Source\PSoC4/key_touch_Sensing.c ****         *  2. Disconnect previous CSX electrode if it has been connected
 939:Generated_Source\PSoC4/key_touch_Sensing.c ****         *
 940:Generated_Source\PSoC4/key_touch_Sensing.c ****         *******************************************************************************/
 941:Generated_Source\PSoC4/key_touch_Sensing.c ****         static void key_touch_SsDisableCSXMode(void)
 942:Generated_Source\PSoC4/key_touch_Sensing.c ****         {
 943:Generated_Source\PSoC4/key_touch_Sensing.c ****             uint32 newRegValue;
 944:Generated_Source\PSoC4/key_touch_Sensing.c **** 
 945:Generated_Source\PSoC4/key_touch_Sensing.c ****             /*  Disconnect CintA from AMUXBUS-A using HSIOM registers.   */
 946:Generated_Source\PSoC4/key_touch_Sensing.c ****             newRegValue = CY_GET_REG32(key_touch_CintA_HSIOM_PTR);
 947:Generated_Source\PSoC4/key_touch_Sensing.c ****             newRegValue &= (uint32)(~(uint32)key_touch_CintA_HSIOM_MASK);
 948:Generated_Source\PSoC4/key_touch_Sensing.c ****             CY_SET_REG32(key_touch_CintA_HSIOM_PTR, newRegValue);
 949:Generated_Source\PSoC4/key_touch_Sensing.c **** 
 950:Generated_Source\PSoC4/key_touch_Sensing.c ****             /*  Disconnect CintB from AMUXBUS-A using HSIOM registers.   */
 951:Generated_Source\PSoC4/key_touch_Sensing.c ****             newRegValue = CY_GET_REG32(key_touch_CintB_HSIOM_PTR);
 952:Generated_Source\PSoC4/key_touch_Sensing.c ****             newRegValue &= (uint32)(~(uint32)key_touch_CintB_HSIOM_MASK);
 953:Generated_Source\PSoC4/key_touch_Sensing.c ****             CY_SET_REG32(key_touch_CintB_HSIOM_PTR, newRegValue);
 954:Generated_Source\PSoC4/key_touch_Sensing.c **** 
 955:Generated_Source\PSoC4/key_touch_Sensing.c ****             /* Disconnect previous CSX electrode if it has been connected */
 956:Generated_Source\PSoC4/key_touch_Sensing.c ****             key_touch_CSXElectrodeCheck();
 957:Generated_Source\PSoC4/key_touch_Sensing.c ****         }
 958:Generated_Source\PSoC4/key_touch_Sensing.c ****     #endif /* (key_touch_ENABLE == key_touch_CSX_EN) */
 959:Generated_Source\PSoC4/key_touch_Sensing.c **** 
 960:Generated_Source\PSoC4/key_touch_Sensing.c **** 
 961:Generated_Source\PSoC4/key_touch_Sensing.c ****     /*******************************************************************************
 962:Generated_Source\PSoC4/key_touch_Sensing.c ****     * Function Name: key_touch_SsSwitchSensingMode
 963:Generated_Source\PSoC4/key_touch_Sensing.c ****     ****************************************************************************//**
 964:Generated_Source\PSoC4/key_touch_Sensing.c ****     *
 965:Generated_Source\PSoC4/key_touch_Sensing.c ****     * \brief
 966:Generated_Source\PSoC4/key_touch_Sensing.c ****     *  This function changes the mode for case when both CSD and CSX widgets are
 967:Generated_Source\PSoC4/key_touch_Sensing.c ****     *  scanned.
 968:Generated_Source\PSoC4/key_touch_Sensing.c ****     *
 969:Generated_Source\PSoC4/key_touch_Sensing.c ****     * \details
 970:Generated_Source\PSoC4/key_touch_Sensing.c ****     *  To switch to the CSD mode the following tasks are performed:
 971:Generated_Source\PSoC4/key_touch_Sensing.c ****     *  1. Disconnect CintA and CintB from AMUXBUS-A;
 972:Generated_Source\PSoC4/key_touch_Sensing.c ****     *  2. Disconnect previous CSD electrode if it has been connected;
 973:Generated_Source\PSoC4/key_touch_Sensing.c ****     *  3. Initialize CSD mode.
 974:Generated_Source\PSoC4/key_touch_Sensing.c ****     *
 975:Generated_Source\PSoC4/key_touch_Sensing.c ****     *  To switch to the CSX mode the following tasks are performed:
 976:Generated_Source\PSoC4/key_touch_Sensing.c ****     *  1. Disconnect Cmod from AMUXBUS-A;
 977:Generated_Source\PSoC4/key_touch_Sensing.c ****     *  2. Disconnect previous CSX electrode if it has been connected;
 978:Generated_Source\PSoC4/key_touch_Sensing.c ****     *  3. Initialize CSX mode.
 979:Generated_Source\PSoC4/key_touch_Sensing.c ****     *
 980:Generated_Source\PSoC4/key_touch_Sensing.c ****     * \param mode Specifies the scan mode:
 981:Generated_Source\PSoC4/key_touch_Sensing.c ****     *           -  (1) key_touch_SENSE_METHOD_CSD_E
 982:Generated_Source\PSoC4/key_touch_Sensing.c ****     *           -  (2) key_touch_SENSE_METHOD_CSX_E
ARM GAS  C:\Users\Administrator\AppData\Local\Temp\ccPYRpEO.s 			page 25


 983:Generated_Source\PSoC4/key_touch_Sensing.c ****     *           -  (3) key_touch_SENSE_METHOD_BIST_E
 984:Generated_Source\PSoC4/key_touch_Sensing.c ****     *
 985:Generated_Source\PSoC4/key_touch_Sensing.c ****     *******************************************************************************/
 986:Generated_Source\PSoC4/key_touch_Sensing.c ****     void key_touch_SsSwitchSensingMode(key_touch_SENSE_METHOD_ENUM mode)
 987:Generated_Source\PSoC4/key_touch_Sensing.c ****     {
 988:Generated_Source\PSoC4/key_touch_Sensing.c ****         if (key_touch_currentSenseMethod != mode)
 989:Generated_Source\PSoC4/key_touch_Sensing.c ****         {
 990:Generated_Source\PSoC4/key_touch_Sensing.c ****             /* The requested mode differes to the current one. Disable the current mode */
 991:Generated_Source\PSoC4/key_touch_Sensing.c ****             if (key_touch_SENSE_METHOD_CSD_E ==  key_touch_currentSenseMethod)
 992:Generated_Source\PSoC4/key_touch_Sensing.c ****             {
 993:Generated_Source\PSoC4/key_touch_Sensing.c ****                 #if (key_touch_ENABLE == key_touch_CSD_EN)
 994:Generated_Source\PSoC4/key_touch_Sensing.c ****                     key_touch_SsCSDDisableMode();
 995:Generated_Source\PSoC4/key_touch_Sensing.c ****                 #endif /* (key_touch_ENABLE == key_touch_CSD_EN) */
 996:Generated_Source\PSoC4/key_touch_Sensing.c ****             }
 997:Generated_Source\PSoC4/key_touch_Sensing.c ****             else if (key_touch_SENSE_METHOD_CSX_E ==  key_touch_currentSenseMethod)
 998:Generated_Source\PSoC4/key_touch_Sensing.c ****             {
 999:Generated_Source\PSoC4/key_touch_Sensing.c ****                 #if (key_touch_ENABLE == key_touch_CSX_EN)
1000:Generated_Source\PSoC4/key_touch_Sensing.c ****                     key_touch_SsDisableCSXMode();
1001:Generated_Source\PSoC4/key_touch_Sensing.c ****                 #endif /* (key_touch_ENABLE == key_touch_CSX_EN) */
1002:Generated_Source\PSoC4/key_touch_Sensing.c ****             }
1003:Generated_Source\PSoC4/key_touch_Sensing.c ****             else if (key_touch_SENSE_METHOD_BIST_E ==  key_touch_currentSenseMethod)
1004:Generated_Source\PSoC4/key_touch_Sensing.c ****             {
1005:Generated_Source\PSoC4/key_touch_Sensing.c ****                 #if (key_touch_ENABLE == key_touch_SELF_TEST_EN)
1006:Generated_Source\PSoC4/key_touch_Sensing.c ****                     key_touch_BistDisableMode();
1007:Generated_Source\PSoC4/key_touch_Sensing.c ****                 #endif /* (key_touch_ENABLE == key_touch_CSX_EN) */
1008:Generated_Source\PSoC4/key_touch_Sensing.c ****             }
1009:Generated_Source\PSoC4/key_touch_Sensing.c ****             else
1010:Generated_Source\PSoC4/key_touch_Sensing.c ****             {
1011:Generated_Source\PSoC4/key_touch_Sensing.c ****                 #if (key_touch_ENABLE == key_touch_ADC_EN)
1012:Generated_Source\PSoC4/key_touch_Sensing.c ****                     /* Release ADC resources */
1013:Generated_Source\PSoC4/key_touch_Sensing.c ****                     (void)key_touch_AdcReleaseResources();
1014:Generated_Source\PSoC4/key_touch_Sensing.c ****                 #endif /* (key_touch_ENABLE == key_touch_ADC_EN) */
1015:Generated_Source\PSoC4/key_touch_Sensing.c ****             }
1016:Generated_Source\PSoC4/key_touch_Sensing.c **** 
1017:Generated_Source\PSoC4/key_touch_Sensing.c ****             /* Enable the specified mode */
1018:Generated_Source\PSoC4/key_touch_Sensing.c ****             if (key_touch_SENSE_METHOD_CSD_E == mode)
1019:Generated_Source\PSoC4/key_touch_Sensing.c ****             {
1020:Generated_Source\PSoC4/key_touch_Sensing.c ****                 #if (key_touch_ENABLE == key_touch_CSD_EN)
1021:Generated_Source\PSoC4/key_touch_Sensing.c ****                     /* Initialize CSD mode to guarantee configured CSD mode */
1022:Generated_Source\PSoC4/key_touch_Sensing.c ****                     key_touch_SsCSDInitialize();
1023:Generated_Source\PSoC4/key_touch_Sensing.c ****                     key_touch_currentSenseMethod = key_touch_SENSE_METHOD_CSD_E;
1024:Generated_Source\PSoC4/key_touch_Sensing.c ****                 #endif /* (key_touch_ENABLE == key_touch_CSD_EN) */
1025:Generated_Source\PSoC4/key_touch_Sensing.c ****             }
1026:Generated_Source\PSoC4/key_touch_Sensing.c ****             else if (key_touch_SENSE_METHOD_CSX_E == mode)
1027:Generated_Source\PSoC4/key_touch_Sensing.c ****             {
1028:Generated_Source\PSoC4/key_touch_Sensing.c ****                 #if (key_touch_ENABLE == key_touch_CSX_EN)
1029:Generated_Source\PSoC4/key_touch_Sensing.c ****                     /* Initialize CSX mode to guarantee configured CSX mode */
1030:Generated_Source\PSoC4/key_touch_Sensing.c ****                     key_touch_CSXInitialize();
1031:Generated_Source\PSoC4/key_touch_Sensing.c ****                     key_touch_currentSenseMethod = key_touch_SENSE_METHOD_CSX_E;
1032:Generated_Source\PSoC4/key_touch_Sensing.c ****                 #endif /* (key_touch_ENABLE == key_touch_CSX_EN) */
1033:Generated_Source\PSoC4/key_touch_Sensing.c ****             }
1034:Generated_Source\PSoC4/key_touch_Sensing.c ****             else if (key_touch_SENSE_METHOD_BIST_E == mode)
1035:Generated_Source\PSoC4/key_touch_Sensing.c ****             {
1036:Generated_Source\PSoC4/key_touch_Sensing.c ****                 #if (key_touch_ENABLE == key_touch_SELF_TEST_EN)
1037:Generated_Source\PSoC4/key_touch_Sensing.c ****                     /* Initialize CSX mode to guarantee configured CSX mode */
1038:Generated_Source\PSoC4/key_touch_Sensing.c ****                     key_touch_BistInitialize();
1039:Generated_Source\PSoC4/key_touch_Sensing.c ****                     key_touch_currentSenseMethod = key_touch_SENSE_METHOD_BIST_E;
ARM GAS  C:\Users\Administrator\AppData\Local\Temp\ccPYRpEO.s 			page 26


1040:Generated_Source\PSoC4/key_touch_Sensing.c ****                 #endif /* (key_touch_ENABLE == key_touch_CSX_EN) */
1041:Generated_Source\PSoC4/key_touch_Sensing.c ****             }
1042:Generated_Source\PSoC4/key_touch_Sensing.c ****             else
1043:Generated_Source\PSoC4/key_touch_Sensing.c ****             {
1044:Generated_Source\PSoC4/key_touch_Sensing.c ****                 key_touch_currentSenseMethod = key_touch_UNDEFINED_E;
1045:Generated_Source\PSoC4/key_touch_Sensing.c ****             }
1046:Generated_Source\PSoC4/key_touch_Sensing.c ****         }
1047:Generated_Source\PSoC4/key_touch_Sensing.c ****     }
1048:Generated_Source\PSoC4/key_touch_Sensing.c **** #endif  /* ((key_touch_ENABLE == key_touch_CSD_CSX_EN) || \
1049:Generated_Source\PSoC4/key_touch_Sensing.c ****             (key_touch_ENABLE == key_touch_SELF_TEST_EN) || \
1050:Generated_Source\PSoC4/key_touch_Sensing.c ****             (key_touch_ENABLE == key_touch_ADC_EN)) */
1051:Generated_Source\PSoC4/key_touch_Sensing.c **** 
1052:Generated_Source\PSoC4/key_touch_Sensing.c **** #if ((key_touch_ENABLE == key_touch_CSX_EN) || \
1053:Generated_Source\PSoC4/key_touch_Sensing.c ****      (key_touch_ENABLE == key_touch_SELF_TEST_EN) || \
1054:Generated_Source\PSoC4/key_touch_Sensing.c ****      (key_touch_ENABLE == key_touch_ADC_EN))
1055:Generated_Source\PSoC4/key_touch_Sensing.c ****     /*******************************************************************************
1056:Generated_Source\PSoC4/key_touch_Sensing.c ****     * Function Name: key_touch_SsSetIOsInDefaultState
1057:Generated_Source\PSoC4/key_touch_Sensing.c ****     ****************************************************************************//**
1058:Generated_Source\PSoC4/key_touch_Sensing.c ****     *
1059:Generated_Source\PSoC4/key_touch_Sensing.c ****     * \brief
1060:Generated_Source\PSoC4/key_touch_Sensing.c ****     *   Sets all electrodes into a default state.
1061:Generated_Source\PSoC4/key_touch_Sensing.c ****     *
1062:Generated_Source\PSoC4/key_touch_Sensing.c ****     * \details
1063:Generated_Source\PSoC4/key_touch_Sensing.c ****     *   Sets all IOs into a default state:
1064:Generated_Source\PSoC4/key_touch_Sensing.c ****     *   - HSIOM   - Disconnected, the GPIO mode.
1065:Generated_Source\PSoC4/key_touch_Sensing.c ****     *   - DM      - Strong drive.
1066:Generated_Source\PSoC4/key_touch_Sensing.c ****     *   - State   - Zero.
1067:Generated_Source\PSoC4/key_touch_Sensing.c ****     *
1068:Generated_Source\PSoC4/key_touch_Sensing.c ****     *   It is not recommended to call this function directly from the application
1069:Generated_Source\PSoC4/key_touch_Sensing.c ****     *   layer.
1070:Generated_Source\PSoC4/key_touch_Sensing.c ****     *
1071:Generated_Source\PSoC4/key_touch_Sensing.c ****     *******************************************************************************/
1072:Generated_Source\PSoC4/key_touch_Sensing.c ****     void key_touch_SsSetIOsInDefaultState(void)
1073:Generated_Source\PSoC4/key_touch_Sensing.c ****     {
1074:Generated_Source\PSoC4/key_touch_Sensing.c ****         key_touch_FLASH_IO_STRUCT const *ioPtr = &key_touch_ioList[0u];
1075:Generated_Source\PSoC4/key_touch_Sensing.c ****         uint32 loopIndex;
1076:Generated_Source\PSoC4/key_touch_Sensing.c ****         uint32 regValue;
1077:Generated_Source\PSoC4/key_touch_Sensing.c **** 
1078:Generated_Source\PSoC4/key_touch_Sensing.c ****         /*  Loop through all electrodes */
1079:Generated_Source\PSoC4/key_touch_Sensing.c ****         for (loopIndex = 0u; loopIndex < key_touch_TOTAL_ELECTRODES; loopIndex++)
1080:Generated_Source\PSoC4/key_touch_Sensing.c ****         {
1081:Generated_Source\PSoC4/key_touch_Sensing.c ****             /*  1. Disconnect HSIOM
1082:Generated_Source\PSoC4/key_touch_Sensing.c ****                 2. Set strong DM
1083:Generated_Source\PSoC4/key_touch_Sensing.c ****                 3. Set pin state to logic 0     */
1084:Generated_Source\PSoC4/key_touch_Sensing.c ****             regValue = CY_GET_REG32 (ioPtr->hsiomPtr);
1085:Generated_Source\PSoC4/key_touch_Sensing.c ****             regValue &= ~(ioPtr->hsiomMask);
1086:Generated_Source\PSoC4/key_touch_Sensing.c ****             CY_SET_REG32 (ioPtr->hsiomPtr, regValue);
1087:Generated_Source\PSoC4/key_touch_Sensing.c **** 
1088:Generated_Source\PSoC4/key_touch_Sensing.c ****             regValue = CY_GET_REG32 (ioPtr->pcPtr);
1089:Generated_Source\PSoC4/key_touch_Sensing.c ****             regValue &= ~(key_touch_GPIO_PC_MASK << ioPtr->shift);
1090:Generated_Source\PSoC4/key_touch_Sensing.c ****             regValue |=  (key_touch_GPIO_STRGDRV << ioPtr->shift);
1091:Generated_Source\PSoC4/key_touch_Sensing.c ****             CY_SET_REG32 (ioPtr->pcPtr, regValue);
1092:Generated_Source\PSoC4/key_touch_Sensing.c **** 
1093:Generated_Source\PSoC4/key_touch_Sensing.c ****             regValue = CY_GET_REG32 (ioPtr->drPtr);
1094:Generated_Source\PSoC4/key_touch_Sensing.c ****             regValue &= ~(ioPtr->mask);
1095:Generated_Source\PSoC4/key_touch_Sensing.c ****             CY_SET_REG32 (ioPtr->drPtr, regValue);
1096:Generated_Source\PSoC4/key_touch_Sensing.c **** 
ARM GAS  C:\Users\Administrator\AppData\Local\Temp\ccPYRpEO.s 			page 27


1097:Generated_Source\PSoC4/key_touch_Sensing.c ****             /*  Get next electrode  */
1098:Generated_Source\PSoC4/key_touch_Sensing.c ****             ioPtr++;
1099:Generated_Source\PSoC4/key_touch_Sensing.c ****         }
1100:Generated_Source\PSoC4/key_touch_Sensing.c ****     }
1101:Generated_Source\PSoC4/key_touch_Sensing.c **** #endif /* ((key_touch_ENABLE == key_touch_CSX_EN) || \
1102:Generated_Source\PSoC4/key_touch_Sensing.c ****           (key_touch_ENABLE == key_touch_SELF_TEST_EN) || \
1103:Generated_Source\PSoC4/key_touch_Sensing.c ****           (key_touch_ENABLE == key_touch_ADC_EN)) */
1104:Generated_Source\PSoC4/key_touch_Sensing.c **** 
1105:Generated_Source\PSoC4/key_touch_Sensing.c **** 
1106:Generated_Source\PSoC4/key_touch_Sensing.c **** #if (key_touch_ENABLE == key_touch_ADC_EN)
1107:Generated_Source\PSoC4/key_touch_Sensing.c **** /*******************************************************************************
1108:Generated_Source\PSoC4/key_touch_Sensing.c **** * Function Name: key_touch_SsReleaseResources()
1109:Generated_Source\PSoC4/key_touch_Sensing.c **** ****************************************************************************//**
1110:Generated_Source\PSoC4/key_touch_Sensing.c **** *
1111:Generated_Source\PSoC4/key_touch_Sensing.c **** * \brief
1112:Generated_Source\PSoC4/key_touch_Sensing.c **** *  This function sets the resources that do not belong to the CSDv2 HW block to
1113:Generated_Source\PSoC4/key_touch_Sensing.c **** *  default state.
1114:Generated_Source\PSoC4/key_touch_Sensing.c **** *
1115:Generated_Source\PSoC4/key_touch_Sensing.c **** * \details
1116:Generated_Source\PSoC4/key_touch_Sensing.c **** *  The function performs following tasks:
1117:Generated_Source\PSoC4/key_touch_Sensing.c **** *  1. Checks if CSD block busy and returns error if it is busy
1118:Generated_Source\PSoC4/key_touch_Sensing.c **** *  2. Disconnects integration capacitors (CintA, CintB for CSX mode and
1119:Generated_Source\PSoC4/key_touch_Sensing.c **** *     Cmod for CSD mode)
1120:Generated_Source\PSoC4/key_touch_Sensing.c **** *  3. Disconnect electroded if they have been connected.
1121:Generated_Source\PSoC4/key_touch_Sensing.c **** *
1122:Generated_Source\PSoC4/key_touch_Sensing.c **** * \return
1123:Generated_Source\PSoC4/key_touch_Sensing.c **** *   Returns the status of operation:
1124:Generated_Source\PSoC4/key_touch_Sensing.c **** *   - Zero        - Resources released successfully.
1125:Generated_Source\PSoC4/key_touch_Sensing.c **** *   - Non-zero    - One or more errors occurred in releasing process.
1126:Generated_Source\PSoC4/key_touch_Sensing.c **** *
1127:Generated_Source\PSoC4/key_touch_Sensing.c **** *******************************************************************************/
1128:Generated_Source\PSoC4/key_touch_Sensing.c **** cystatus key_touch_SsReleaseResources(void)
1129:Generated_Source\PSoC4/key_touch_Sensing.c **** {
1130:Generated_Source\PSoC4/key_touch_Sensing.c ****     cystatus busyStatus = CYRET_SUCCESS;
1131:Generated_Source\PSoC4/key_touch_Sensing.c **** 
1132:Generated_Source\PSoC4/key_touch_Sensing.c ****     if (key_touch_SW_STS_BUSY == (key_touch_dsRam.status & key_touch_SW_STS_BUSY))
1133:Generated_Source\PSoC4/key_touch_Sensing.c ****     {
1134:Generated_Source\PSoC4/key_touch_Sensing.c ****         /* Previous widget is being scanned. Return error. */
1135:Generated_Source\PSoC4/key_touch_Sensing.c ****         busyStatus = CYRET_INVALID_STATE;
1136:Generated_Source\PSoC4/key_touch_Sensing.c ****     }
1137:Generated_Source\PSoC4/key_touch_Sensing.c ****     else
1138:Generated_Source\PSoC4/key_touch_Sensing.c ****     {
1139:Generated_Source\PSoC4/key_touch_Sensing.c ****         #if (key_touch_ENABLE == key_touch_CSX_EN)
1140:Generated_Source\PSoC4/key_touch_Sensing.c ****             key_touch_SsDisableCSXMode();
1141:Generated_Source\PSoC4/key_touch_Sensing.c ****         #endif /* (key_touch_ENABLE == key_touch_CSX_EN) */
1142:Generated_Source\PSoC4/key_touch_Sensing.c **** 
1143:Generated_Source\PSoC4/key_touch_Sensing.c ****         #if (key_touch_ENABLE == key_touch_CSD_EN)
1144:Generated_Source\PSoC4/key_touch_Sensing.c ****             key_touch_SsCSDDisableMode();
1145:Generated_Source\PSoC4/key_touch_Sensing.c ****         #endif /* (key_touch_ENABLE == key_touch_CSD_EN) */
1146:Generated_Source\PSoC4/key_touch_Sensing.c **** 
1147:Generated_Source\PSoC4/key_touch_Sensing.c ****         #if (key_touch_ENABLE == key_touch_SELF_TEST_EN)
1148:Generated_Source\PSoC4/key_touch_Sensing.c ****             key_touch_BistDisableMode();
1149:Generated_Source\PSoC4/key_touch_Sensing.c ****         #endif /* (key_touch_ENABLE == key_touch_SELF_TEST_EN) */
1150:Generated_Source\PSoC4/key_touch_Sensing.c **** 
1151:Generated_Source\PSoC4/key_touch_Sensing.c ****         #if ((key_touch_ENABLE == key_touch_CSD_EN) && \
1152:Generated_Source\PSoC4/key_touch_Sensing.c ****              (key_touch_ENABLE == key_touch_CSD_SHIELD_EN) &&  \
1153:Generated_Source\PSoC4/key_touch_Sensing.c ****              (key_touch_SNS_CONNECTION_SHIELD == key_touch_CSD_INACTIVE_SNS_CONNECTION))
ARM GAS  C:\Users\Administrator\AppData\Local\Temp\ccPYRpEO.s 			page 28


1154:Generated_Source\PSoC4/key_touch_Sensing.c ****             key_touch_SsSetIOsInDefaultState();
1155:Generated_Source\PSoC4/key_touch_Sensing.c ****         #endif /* ((key_touch_ENABLE == key_touch_CSD_EN) && \
1156:Generated_Source\PSoC4/key_touch_Sensing.c ****              (key_touch_DISABLE != key_touch_CSD_SHIELD_EN) &&  \
1157:Generated_Source\PSoC4/key_touch_Sensing.c ****              (key_touch_SNS_CONNECTION_SHIELD == key_touch_CSD_INACTIVE_SNS_CONNECTION)) */
1158:Generated_Source\PSoC4/key_touch_Sensing.c **** 
1159:Generated_Source\PSoC4/key_touch_Sensing.c ****         /*
1160:Generated_Source\PSoC4/key_touch_Sensing.c ****          * Reset of the currentSenseMethod variable to make sure that the next
1161:Generated_Source\PSoC4/key_touch_Sensing.c ****          * call of SetupWidget() API setups the correct widget mode
1162:Generated_Source\PSoC4/key_touch_Sensing.c ****          */
1163:Generated_Source\PSoC4/key_touch_Sensing.c ****         key_touch_currentSenseMethod = key_touch_UNDEFINED_E;
1164:Generated_Source\PSoC4/key_touch_Sensing.c ****     }
1165:Generated_Source\PSoC4/key_touch_Sensing.c **** 
1166:Generated_Source\PSoC4/key_touch_Sensing.c ****     return busyStatus;
1167:Generated_Source\PSoC4/key_touch_Sensing.c **** }
1168:Generated_Source\PSoC4/key_touch_Sensing.c **** #endif /* (key_touch_ENABLE == key_touch_ADC_EN) */
1169:Generated_Source\PSoC4/key_touch_Sensing.c **** 
1170:Generated_Source\PSoC4/key_touch_Sensing.c **** 
1171:Generated_Source\PSoC4/key_touch_Sensing.c **** /*******************************************************************************
1172:Generated_Source\PSoC4/key_touch_Sensing.c **** * Function Name: key_touch_SsPostAllWidgetsScan
1173:Generated_Source\PSoC4/key_touch_Sensing.c **** ****************************************************************************//**
1174:Generated_Source\PSoC4/key_touch_Sensing.c **** *
1175:Generated_Source\PSoC4/key_touch_Sensing.c **** * \brief
1176:Generated_Source\PSoC4/key_touch_Sensing.c **** *   The ISR function for multiple widget scanning implementation.
1177:Generated_Source\PSoC4/key_touch_Sensing.c **** *
1178:Generated_Source\PSoC4/key_touch_Sensing.c **** * \details
1179:Generated_Source\PSoC4/key_touch_Sensing.c **** *   This is the function used by the key_touch ISR to implement multiple widget
1180:Generated_Source\PSoC4/key_touch_Sensing.c **** *   scanning.
1181:Generated_Source\PSoC4/key_touch_Sensing.c **** *   Should not be used by the application layer.
1182:Generated_Source\PSoC4/key_touch_Sensing.c **** *
1183:Generated_Source\PSoC4/key_touch_Sensing.c **** *******************************************************************************/
1184:Generated_Source\PSoC4/key_touch_Sensing.c **** void key_touch_SsPostAllWidgetsScan(void)
1185:Generated_Source\PSoC4/key_touch_Sensing.c **** {
 378              		.loc 1 1185 0
 379              		.cfi_startproc
 380 0000 10B5     		push	{r4, lr}
 381              		.cfi_def_cfa_offset 8
 382              		.cfi_offset 4, -8
 383              		.cfi_offset 14, -4
 384              	.L39:
1186:Generated_Source\PSoC4/key_touch_Sensing.c ****     #if (key_touch_DISABLE == key_touch_CSD2X_EN)
1187:Generated_Source\PSoC4/key_touch_Sensing.c ****         /*
1188:Generated_Source\PSoC4/key_touch_Sensing.c ****         *   1. Increment widget index
1189:Generated_Source\PSoC4/key_touch_Sensing.c ****         *   2. Check if all widgets are scanned
1190:Generated_Source\PSoC4/key_touch_Sensing.c ****         *   3. If all widgets are not scanned, set up and scan next widget
1191:Generated_Source\PSoC4/key_touch_Sensing.c ****         */
1192:Generated_Source\PSoC4/key_touch_Sensing.c ****         #if (1u != key_touch_TOTAL_WIDGETS)
1193:Generated_Source\PSoC4/key_touch_Sensing.c ****             cystatus postScanStatus;
1194:Generated_Source\PSoC4/key_touch_Sensing.c **** 
1195:Generated_Source\PSoC4/key_touch_Sensing.c ****             do
1196:Generated_Source\PSoC4/key_touch_Sensing.c ****             {
1197:Generated_Source\PSoC4/key_touch_Sensing.c ****                 key_touch_widgetIndex++;
 385              		.loc 1 1197 0
 386 0002 174A     		ldr	r2, .L40
 387 0004 5378     		ldrb	r3, [r2, #1]
 388 0006 0133     		add	r3, r3, #1
 389 0008 DBB2     		uxtb	r3, r3
 390 000a 5370     		strb	r3, [r2, #1]
ARM GAS  C:\Users\Administrator\AppData\Local\Temp\ccPYRpEO.s 			page 29


1198:Generated_Source\PSoC4/key_touch_Sensing.c **** 
1199:Generated_Source\PSoC4/key_touch_Sensing.c ****                 postScanStatus = key_touch_SetupWidget((uint32)key_touch_widgetIndex);
 391              		.loc 1 1199 0
 392 000c 5078     		ldrb	r0, [r2, #1]
 393 000e C0B2     		uxtb	r0, r0
 394 0010 FFF7FEFF 		bl	key_touch_SetupWidget
 395              	.LVL36:
 396 0014 041E     		sub	r4, r0, #0
 397              	.LVL37:
1200:Generated_Source\PSoC4/key_touch_Sensing.c **** 
1201:Generated_Source\PSoC4/key_touch_Sensing.c ****                 if (CYRET_SUCCESS == postScanStatus)
 398              		.loc 1 1201 0
 399 0016 09D1     		bne	.L35
1202:Generated_Source\PSoC4/key_touch_Sensing.c ****                 {
1203:Generated_Source\PSoC4/key_touch_Sensing.c ****                     if((key_touch_TOTAL_WIDGETS - 1u) == key_touch_widgetIndex)
 400              		.loc 1 1203 0
 401 0018 114B     		ldr	r3, .L40
 402 001a 5B78     		ldrb	r3, [r3, #1]
 403 001c 0B2B     		cmp	r3, #11
 404 001e 02D1     		bne	.L36
1204:Generated_Source\PSoC4/key_touch_Sensing.c ****                     {
1205:Generated_Source\PSoC4/key_touch_Sensing.c ****                         /* The last widget will be scanned. Reset flag to skip configuring the next
1206:Generated_Source\PSoC4/key_touch_Sensing.c ****                         key_touch_requestScanAllWidget = key_touch_DISABLE;
 405              		.loc 1 1206 0
 406 0020 0022     		mov	r2, #0
 407 0022 0F4B     		ldr	r3, .L40
 408 0024 1A70     		strb	r2, [r3]
 409              	.L36:
1207:Generated_Source\PSoC4/key_touch_Sensing.c ****                     }
1208:Generated_Source\PSoC4/key_touch_Sensing.c ****                     (void)key_touch_Scan();
 410              		.loc 1 1208 0
 411 0026 FFF7FEFF 		bl	key_touch_Scan
 412              	.LVL38:
 413 002a 15E0     		b	.L37
 414              	.LVL39:
 415              	.L35:
1209:Generated_Source\PSoC4/key_touch_Sensing.c ****                 }
1210:Generated_Source\PSoC4/key_touch_Sensing.c ****                 else if((key_touch_TOTAL_WIDGETS - 1u) == key_touch_widgetIndex)
 416              		.loc 1 1210 0
 417 002c 0C4B     		ldr	r3, .L40
 418 002e 5B78     		ldrb	r3, [r3, #1]
 419 0030 0B2B     		cmp	r3, #11
 420 0032 0AD1     		bne	.L38
1211:Generated_Source\PSoC4/key_touch_Sensing.c ****                 {
1212:Generated_Source\PSoC4/key_touch_Sensing.c ****                     #if ((key_touch_ENABLE == key_touch_BLOCK_OFF_AFTER_SCAN_EN) && \
1213:Generated_Source\PSoC4/key_touch_Sensing.c ****                          (key_touch_ENABLE == key_touch_CSD_EN))
1214:Generated_Source\PSoC4/key_touch_Sensing.c ****                         if (key_touch_SENSE_METHOD_CSD_E ==
1215:Generated_Source\PSoC4/key_touch_Sensing.c ****                              key_touch_GET_SENSE_METHOD(&key_touch_dsFlash.wdgtArray[key_touch_widg
1216:Generated_Source\PSoC4/key_touch_Sensing.c ****                         {
1217:Generated_Source\PSoC4/key_touch_Sensing.c ****                             /*  Disable the CSD block */
1218:Generated_Source\PSoC4/key_touch_Sensing.c ****                             CY_SET_REG32(key_touch_CONFIG_PTR, key_touch_configCsd);
1219:Generated_Source\PSoC4/key_touch_Sensing.c ****                         }
1220:Generated_Source\PSoC4/key_touch_Sensing.c ****                     #endif /* ((key_touch_ENABLE == key_touch_BLOCK_OFF_AFTER_SCAN_EN) && \
1221:Generated_Source\PSoC4/key_touch_Sensing.c ****                                (key_touch_ENABLE == key_touch_CSD_EN)) */
1222:Generated_Source\PSoC4/key_touch_Sensing.c **** 
1223:Generated_Source\PSoC4/key_touch_Sensing.c ****                     /* All widgets are totally processed. Reset BUSY flag */
1224:Generated_Source\PSoC4/key_touch_Sensing.c ****                     key_touch_dsRam.status &= ~key_touch_SW_STS_BUSY;
ARM GAS  C:\Users\Administrator\AppData\Local\Temp\ccPYRpEO.s 			page 30


 421              		.loc 1 1224 0
 422 0034 0B4A     		ldr	r2, .L40+4
 423 0036 7533     		add	r3, r3, #117
 424 0038 9168     		ldr	r1, [r2, #8]
 425 003a 9943     		bic	r1, r3
1225:Generated_Source\PSoC4/key_touch_Sensing.c **** 
1226:Generated_Source\PSoC4/key_touch_Sensing.c ****                     /* Update status with with the failure */
1227:Generated_Source\PSoC4/key_touch_Sensing.c ****                     key_touch_dsRam.status &= ~key_touch_STATUS_ERR_MASK;
 426              		.loc 1 1227 0
 427 003c 0B02     		lsl	r3, r1, #8
 428 003e 1B0A     		lsr	r3, r3, #8
1228:Generated_Source\PSoC4/key_touch_Sensing.c ****                     key_touch_dsRam.status |= ((postScanStatus & key_touch_STATUS_ERR_SIZE) << key_
 429              		.loc 1 1228 0
 430 0040 0406     		lsl	r4, r0, #24
 431 0042 2343     		orr	r3, r4
 432 0044 9360     		str	r3, [r2, #8]
 433              	.LVL40:
1229:Generated_Source\PSoC4/key_touch_Sensing.c **** 
1230:Generated_Source\PSoC4/key_touch_Sensing.c ****                     /* Set postScanStatus to exit the while loop */
1231:Generated_Source\PSoC4/key_touch_Sensing.c ****                     postScanStatus = CYRET_SUCCESS;
 434              		.loc 1 1231 0
 435 0046 0024     		mov	r4, #0
 436 0048 06E0     		b	.L37
 437              	.LVL41:
 438              	.L38:
1232:Generated_Source\PSoC4/key_touch_Sensing.c ****                 }
1233:Generated_Source\PSoC4/key_touch_Sensing.c ****                 else
1234:Generated_Source\PSoC4/key_touch_Sensing.c ****                 {
1235:Generated_Source\PSoC4/key_touch_Sensing.c ****                     /* Update status with with the failure. Configure the next widget in while() lo
1236:Generated_Source\PSoC4/key_touch_Sensing.c ****                     key_touch_dsRam.status &= ~key_touch_STATUS_ERR_MASK;
 439              		.loc 1 1236 0
 440 004a 0649     		ldr	r1, .L40+4
 441 004c 8B68     		ldr	r3, [r1, #8]
 442 004e 1B02     		lsl	r3, r3, #8
 443 0050 1B0A     		lsr	r3, r3, #8
1237:Generated_Source\PSoC4/key_touch_Sensing.c ****                     key_touch_dsRam.status |= ((postScanStatus & key_touch_STATUS_ERR_SIZE) << key_
 444              		.loc 1 1237 0
 445 0052 0206     		lsl	r2, r0, #24
 446 0054 1343     		orr	r3, r2
 447 0056 8B60     		str	r3, [r1, #8]
 448              	.LVL42:
 449              	.L37:
1238:Generated_Source\PSoC4/key_touch_Sensing.c ****                 }
1239:Generated_Source\PSoC4/key_touch_Sensing.c ****             } while (CYRET_SUCCESS != postScanStatus);
 450              		.loc 1 1239 0
 451 0058 002C     		cmp	r4, #0
 452 005a D2D1     		bne	.L39
1240:Generated_Source\PSoC4/key_touch_Sensing.c ****         #endif /* (1u != key_touch_TOTAL_WIDGETS) */
1241:Generated_Source\PSoC4/key_touch_Sensing.c ****     #else
1242:Generated_Source\PSoC4/key_touch_Sensing.c ****         #if (1u != key_touch_TOTAL_SLOTS)
1243:Generated_Source\PSoC4/key_touch_Sensing.c ****             cystatus postScanStatus = CYRET_SUCCESS;
1244:Generated_Source\PSoC4/key_touch_Sensing.c **** 
1245:Generated_Source\PSoC4/key_touch_Sensing.c ****             do
1246:Generated_Source\PSoC4/key_touch_Sensing.c ****             {
1247:Generated_Source\PSoC4/key_touch_Sensing.c ****                 if ((key_touch_TOTAL_SLOTS - 1u) > key_touch_slotIndex)
1248:Generated_Source\PSoC4/key_touch_Sensing.c ****                 {
1249:Generated_Source\PSoC4/key_touch_Sensing.c ****                     key_touch_slotIndex++;
ARM GAS  C:\Users\Administrator\AppData\Local\Temp\ccPYRpEO.s 			page 31


1250:Generated_Source\PSoC4/key_touch_Sensing.c ****                     postScanStatus = key_touch_SetupWidget((uint32)key_touch_slotIndex);
1251:Generated_Source\PSoC4/key_touch_Sensing.c **** 
1252:Generated_Source\PSoC4/key_touch_Sensing.c **** 
1253:Generated_Source\PSoC4/key_touch_Sensing.c ****                     if (CYRET_SUCCESS == postScanStatus)
1254:Generated_Source\PSoC4/key_touch_Sensing.c ****                     {
1255:Generated_Source\PSoC4/key_touch_Sensing.c ****                         if((key_touch_TOTAL_SLOTS - 1u) == key_touch_slotIndex)
1256:Generated_Source\PSoC4/key_touch_Sensing.c ****                         {
1257:Generated_Source\PSoC4/key_touch_Sensing.c ****                             /* The last slot will be scanned. Reset flag to skip configuring the ne
1258:Generated_Source\PSoC4/key_touch_Sensing.c ****                             key_touch_requestScanAllWidget = key_touch_DISABLE;
1259:Generated_Source\PSoC4/key_touch_Sensing.c ****                         }
1260:Generated_Source\PSoC4/key_touch_Sensing.c ****                         (void)key_touch_Scan();
1261:Generated_Source\PSoC4/key_touch_Sensing.c ****                     }
1262:Generated_Source\PSoC4/key_touch_Sensing.c ****                     else if((key_touch_TOTAL_SLOTS - 1u) == key_touch_slotIndex)
1263:Generated_Source\PSoC4/key_touch_Sensing.c ****                     {
1264:Generated_Source\PSoC4/key_touch_Sensing.c ****                         #if (key_touch_ENABLE == key_touch_BLOCK_OFF_AFTER_SCAN_EN)
1265:Generated_Source\PSoC4/key_touch_Sensing.c ****                             /*  Disable the CSD blocks */
1266:Generated_Source\PSoC4/key_touch_Sensing.c ****                             CY_SET_REG32(key_touch_CSD0_CONFIG_PTR, key_touch_configCsd0);
1267:Generated_Source\PSoC4/key_touch_Sensing.c ****                             CY_SET_REG32(key_touch_CSD1_CONFIG_PTR, key_touch_configCsd1);
1268:Generated_Source\PSoC4/key_touch_Sensing.c ****                         #endif /* (key_touch_ENABLE == key_touch_BLOCK_OFF_AFTER_SCAN_EN) */
1269:Generated_Source\PSoC4/key_touch_Sensing.c **** 
1270:Generated_Source\PSoC4/key_touch_Sensing.c ****                         /* All widgets are totally processed. Reset BUSY flag */
1271:Generated_Source\PSoC4/key_touch_Sensing.c ****                         key_touch_dsRam.status &= ~key_touch_SW_STS_BUSY;
1272:Generated_Source\PSoC4/key_touch_Sensing.c **** 
1273:Generated_Source\PSoC4/key_touch_Sensing.c ****                         /* Update status with with the failure */
1274:Generated_Source\PSoC4/key_touch_Sensing.c ****                         key_touch_dsRam.status &= ~key_touch_STATUS_ERR_MASK;
1275:Generated_Source\PSoC4/key_touch_Sensing.c ****                         key_touch_dsRam.status |= ((postScanStatus & key_touch_STATUS_ERR_SIZE) << 
1276:Generated_Source\PSoC4/key_touch_Sensing.c **** 
1277:Generated_Source\PSoC4/key_touch_Sensing.c ****                         /* Set postScanStatus to exit the while loop */
1278:Generated_Source\PSoC4/key_touch_Sensing.c ****                         postScanStatus = CYRET_SUCCESS;
1279:Generated_Source\PSoC4/key_touch_Sensing.c ****                     }
1280:Generated_Source\PSoC4/key_touch_Sensing.c ****                     else
1281:Generated_Source\PSoC4/key_touch_Sensing.c ****                     {
1282:Generated_Source\PSoC4/key_touch_Sensing.c ****                         /* Update status with with the failure. Configure the next widget in while(
1283:Generated_Source\PSoC4/key_touch_Sensing.c ****                         key_touch_dsRam.status &= ~key_touch_STATUS_ERR_MASK;
1284:Generated_Source\PSoC4/key_touch_Sensing.c ****                         key_touch_dsRam.status |= ((postScanStatus & key_touch_STATUS_ERR_SIZE) << 
1285:Generated_Source\PSoC4/key_touch_Sensing.c ****                     }
1286:Generated_Source\PSoC4/key_touch_Sensing.c ****                 }
1287:Generated_Source\PSoC4/key_touch_Sensing.c ****             } while (CYRET_SUCCESS != postScanStatus);
1288:Generated_Source\PSoC4/key_touch_Sensing.c ****         #endif /* (1u != key_touch_TOTAL_SLOTS) */
1289:Generated_Source\PSoC4/key_touch_Sensing.c ****     #endif /* (key_touch_CSD2X_EN == key_touch_DISABLE) */
1290:Generated_Source\PSoC4/key_touch_Sensing.c **** }
 453              		.loc 1 1290 0
 454              		@ sp needed
 455              	.LVL43:
 456 005c 10BD     		pop	{r4, pc}
 457              	.L41:
 458 005e C046     		.align	2
 459              	.L40:
 460 0060 00000000 		.word	.LANCHOR0
 461 0064 00000000 		.word	key_touch_dsRam
 462              		.cfi_endproc
 463              	.LFE7:
 464              		.size	key_touch_SsPostAllWidgetsScan, .-key_touch_SsPostAllWidgetsScan
 465              		.section	.text.key_touch_SsIsrInitialize,"ax",%progbits
 466              		.align	2
 467              		.global	key_touch_SsIsrInitialize
 468              		.code	16
ARM GAS  C:\Users\Administrator\AppData\Local\Temp\ccPYRpEO.s 			page 32


 469              		.thumb_func
 470              		.type	key_touch_SsIsrInitialize, %function
 471              	key_touch_SsIsrInitialize:
 472              	.LFB8:
1291:Generated_Source\PSoC4/key_touch_Sensing.c **** 
1292:Generated_Source\PSoC4/key_touch_Sensing.c **** 
1293:Generated_Source\PSoC4/key_touch_Sensing.c **** /*******************************************************************************
1294:Generated_Source\PSoC4/key_touch_Sensing.c **** * Function Name: key_touch_SsIsrInitialize
1295:Generated_Source\PSoC4/key_touch_Sensing.c **** ****************************************************************************//**
1296:Generated_Source\PSoC4/key_touch_Sensing.c **** *
1297:Generated_Source\PSoC4/key_touch_Sensing.c **** * \brief
1298:Generated_Source\PSoC4/key_touch_Sensing.c **** *   Enables and initializes for the function pointer for a callback for the ISR.
1299:Generated_Source\PSoC4/key_touch_Sensing.c **** *
1300:Generated_Source\PSoC4/key_touch_Sensing.c **** * \details
1301:Generated_Source\PSoC4/key_touch_Sensing.c **** *   The  "address" is a special type cyisraddress defined by Cylib. This function
1302:Generated_Source\PSoC4/key_touch_Sensing.c **** *   is used by component APIs and should not be used by an application program for
1303:Generated_Source\PSoC4/key_touch_Sensing.c **** *   proper working of the component.
1304:Generated_Source\PSoC4/key_touch_Sensing.c **** *
1305:Generated_Source\PSoC4/key_touch_Sensing.c **** * \param  address The address of the function to be called when interrupt is fired.
1306:Generated_Source\PSoC4/key_touch_Sensing.c **** *
1307:Generated_Source\PSoC4/key_touch_Sensing.c **** *******************************************************************************/
1308:Generated_Source\PSoC4/key_touch_Sensing.c **** void key_touch_SsIsrInitialize(cyisraddress address)
1309:Generated_Source\PSoC4/key_touch_Sensing.c **** {
 473              		.loc 1 1309 0
 474              		.cfi_startproc
 475              	.LVL44:
 476 0000 08B5     		push	{r3, lr}
 477              		.cfi_def_cfa_offset 8
 478              		.cfi_offset 3, -8
 479              		.cfi_offset 14, -4
1310:Generated_Source\PSoC4/key_touch_Sensing.c **** #if (key_touch_ENABLE == key_touch_CSD2X_EN)
1311:Generated_Source\PSoC4/key_touch_Sensing.c ****     key_touch_ISR0_StartEx(address);
1312:Generated_Source\PSoC4/key_touch_Sensing.c ****     key_touch_ISR1_StartEx(address);
1313:Generated_Source\PSoC4/key_touch_Sensing.c **** #else
1314:Generated_Source\PSoC4/key_touch_Sensing.c ****     key_touch_ISR_StartEx(address);
 480              		.loc 1 1314 0
 481 0002 FFF7FEFF 		bl	key_touch_ISR_StartEx
 482              	.LVL45:
1315:Generated_Source\PSoC4/key_touch_Sensing.c **** #endif /* (key_touch_ENABLE == key_touch_CSD2X_EN) */
1316:Generated_Source\PSoC4/key_touch_Sensing.c **** }
 483              		.loc 1 1316 0
 484              		@ sp needed
 485 0006 08BD     		pop	{r3, pc}
 486              		.cfi_endproc
 487              	.LFE8:
 488              		.size	key_touch_SsIsrInitialize, .-key_touch_SsIsrInitialize
 489              		.section	.text.key_touch_SsSetModClkClockDivider,"ax",%progbits
 490              		.align	2
 491              		.global	key_touch_SsSetModClkClockDivider
 492              		.code	16
 493              		.thumb_func
 494              		.type	key_touch_SsSetModClkClockDivider, %function
 495              	key_touch_SsSetModClkClockDivider:
 496              	.LFB9:
1317:Generated_Source\PSoC4/key_touch_Sensing.c **** 
1318:Generated_Source\PSoC4/key_touch_Sensing.c **** 
1319:Generated_Source\PSoC4/key_touch_Sensing.c **** /*******************************************************************************
ARM GAS  C:\Users\Administrator\AppData\Local\Temp\ccPYRpEO.s 			page 33


1320:Generated_Source\PSoC4/key_touch_Sensing.c **** * Function Name: key_touch_SsSetModClkClockDivider
1321:Generated_Source\PSoC4/key_touch_Sensing.c **** ****************************************************************************//**
1322:Generated_Source\PSoC4/key_touch_Sensing.c **** *
1323:Generated_Source\PSoC4/key_touch_Sensing.c **** * \brief
1324:Generated_Source\PSoC4/key_touch_Sensing.c **** *   Sets the divider values for the modulator clock and then starts
1325:Generated_Source\PSoC4/key_touch_Sensing.c **** *   the modulator clock.
1326:Generated_Source\PSoC4/key_touch_Sensing.c **** *
1327:Generated_Source\PSoC4/key_touch_Sensing.c **** * \details
1328:Generated_Source\PSoC4/key_touch_Sensing.c **** *   It is not recommended to call this function directly by the application layer.
1329:Generated_Source\PSoC4/key_touch_Sensing.c **** *   It is used by initialization, widget APIs or wakeup functions to
1330:Generated_Source\PSoC4/key_touch_Sensing.c **** *   enable the clocks.
1331:Generated_Source\PSoC4/key_touch_Sensing.c **** *
1332:Generated_Source\PSoC4/key_touch_Sensing.c **** * \param
1333:Generated_Source\PSoC4/key_touch_Sensing.c **** *   modClk The divider value for the modulator clock.
1334:Generated_Source\PSoC4/key_touch_Sensing.c **** *
1335:Generated_Source\PSoC4/key_touch_Sensing.c **** *******************************************************************************/
1336:Generated_Source\PSoC4/key_touch_Sensing.c **** void key_touch_SsSetModClkClockDivider(uint32 modClk)
1337:Generated_Source\PSoC4/key_touch_Sensing.c **** {
 497              		.loc 1 1337 0
 498              		.cfi_startproc
 499              	.LVL46:
1338:Generated_Source\PSoC4/key_touch_Sensing.c **** #if (key_touch_ENABLE == key_touch_IS_M0S8PERI_BLOCK)
1339:Generated_Source\PSoC4/key_touch_Sensing.c ****     /*  Stop modulator clock   */
1340:Generated_Source\PSoC4/key_touch_Sensing.c ****     CY_SET_REG32(key_touch_MODCLK_CMD_PTR,
 500              		.loc 1 1340 0
 501 0000 074A     		ldr	r2, .L45
 502 0002 084B     		ldr	r3, .L45+4
 503 0004 1A60     		str	r2, [r3]
1341:Generated_Source\PSoC4/key_touch_Sensing.c ****                  ((uint32)key_touch_ModClk__DIV_ID <<
1342:Generated_Source\PSoC4/key_touch_Sensing.c ****                  key_touch_MODCLK_CMD_DIV_SHIFT)|
1343:Generated_Source\PSoC4/key_touch_Sensing.c ****                  ((uint32)key_touch_MODCLK_CMD_DISABLE_MASK));
1344:Generated_Source\PSoC4/key_touch_Sensing.c **** 
1345:Generated_Source\PSoC4/key_touch_Sensing.c ****     /*
1346:Generated_Source\PSoC4/key_touch_Sensing.c ****      * Set divider value for sense modClk.
1347:Generated_Source\PSoC4/key_touch_Sensing.c ****      * 1u is subtracted from modClk because Divider register value 0 corresponds
1348:Generated_Source\PSoC4/key_touch_Sensing.c ****      * to dividing by 1.
1349:Generated_Source\PSoC4/key_touch_Sensing.c ****      */
1350:Generated_Source\PSoC4/key_touch_Sensing.c ****     CY_SET_REG32(key_touch_MODCLK_DIV_PTR, ((modClk - 1u) << 8u));
 504              		.loc 1 1350 0
 505 0006 0138     		sub	r0, r0, #1
 506              	.LVL47:
 507 0008 0002     		lsl	r0, r0, #8
 508              	.LVL48:
 509 000a 074B     		ldr	r3, .L45+8
 510 000c 1860     		str	r0, [r3]
 511              	.L44:
1351:Generated_Source\PSoC4/key_touch_Sensing.c **** 
1352:Generated_Source\PSoC4/key_touch_Sensing.c ****     /*  Check whether previous modulator clock start command has finished. */
1353:Generated_Source\PSoC4/key_touch_Sensing.c ****     while(0u != (CY_GET_REG32(key_touch_MODCLK_CMD_PTR) & key_touch_MODCLK_CMD_ENABLE_MASK))
 512              		.loc 1 1353 0 discriminator 1
 513 000e 054B     		ldr	r3, .L45+4
 514 0010 1B68     		ldr	r3, [r3]
 515 0012 002B     		cmp	r3, #0
 516 0014 FBDB     		blt	.L44
1354:Generated_Source\PSoC4/key_touch_Sensing.c ****     {
1355:Generated_Source\PSoC4/key_touch_Sensing.c ****         /*  Wait until previous modulator clock start command has finished. */
1356:Generated_Source\PSoC4/key_touch_Sensing.c ****     }
ARM GAS  C:\Users\Administrator\AppData\Local\Temp\ccPYRpEO.s 			page 34


1357:Generated_Source\PSoC4/key_touch_Sensing.c **** 
1358:Generated_Source\PSoC4/key_touch_Sensing.c ****     /*  Start modulator clock, aligned to HFCLK */
1359:Generated_Source\PSoC4/key_touch_Sensing.c ****     CY_SET_REG32(key_touch_MODCLK_CMD_PTR,
 517              		.loc 1 1359 0
 518 0016 054A     		ldr	r2, .L45+12
 519 0018 024B     		ldr	r3, .L45+4
 520 001a 1A60     		str	r2, [r3]
1360:Generated_Source\PSoC4/key_touch_Sensing.c ****                  (uint32)(((uint32)key_touch_ModClk__DIV_ID << key_touch_MODCLK_CMD_DIV_SHIFT) |
1361:Generated_Source\PSoC4/key_touch_Sensing.c ****                   ((uint32)key_touch_ModClk__PA_DIV_ID << key_touch_MODCLK_CMD_PA_DIV_SHIFT) |
1362:Generated_Source\PSoC4/key_touch_Sensing.c ****                   key_touch_MODCLK_CMD_ENABLE_MASK));
1363:Generated_Source\PSoC4/key_touch_Sensing.c **** #else
1364:Generated_Source\PSoC4/key_touch_Sensing.c ****     uint32 newRegValue;
1365:Generated_Source\PSoC4/key_touch_Sensing.c **** 
1366:Generated_Source\PSoC4/key_touch_Sensing.c ****     /* Clear bit to disable ModClk clock. */
1367:Generated_Source\PSoC4/key_touch_Sensing.c ****     CY_SET_REG32(key_touch_MODCLK_CMD_PTR,
1368:Generated_Source\PSoC4/key_touch_Sensing.c ****                  CY_GET_REG32(key_touch_MODCLK_CMD_PTR) &
1369:Generated_Source\PSoC4/key_touch_Sensing.c ****                  (uint32)(~key_touch_ModClk__ENABLE_MASK));
1370:Generated_Source\PSoC4/key_touch_Sensing.c **** 
1371:Generated_Source\PSoC4/key_touch_Sensing.c ****     /*
1372:Generated_Source\PSoC4/key_touch_Sensing.c ****      * Update ModClk clock divider.
1373:Generated_Source\PSoC4/key_touch_Sensing.c ****      * 1u is subtracted from modClk because Divider register value has range (0-65535).
1374:Generated_Source\PSoC4/key_touch_Sensing.c ****      */
1375:Generated_Source\PSoC4/key_touch_Sensing.c ****     newRegValue = CY_GET_REG32(key_touch_MODCLK_DIV_PTR) & (uint32)(~(uint32)key_touch_ModClk__DIVI
1376:Generated_Source\PSoC4/key_touch_Sensing.c ****     newRegValue |= (modClk - 1u);
1377:Generated_Source\PSoC4/key_touch_Sensing.c ****     CY_SET_REG32(key_touch_MODCLK_DIV_PTR, newRegValue);
1378:Generated_Source\PSoC4/key_touch_Sensing.c **** 
1379:Generated_Source\PSoC4/key_touch_Sensing.c ****     /* Set bit to enable ModClk clock. */
1380:Generated_Source\PSoC4/key_touch_Sensing.c ****     CY_SET_REG32(key_touch_MODCLK_CMD_PTR,
1381:Generated_Source\PSoC4/key_touch_Sensing.c ****                  CY_GET_REG32(key_touch_MODCLK_CMD_PTR) |
1382:Generated_Source\PSoC4/key_touch_Sensing.c ****                 key_touch_ModClk__ENABLE_MASK);
1383:Generated_Source\PSoC4/key_touch_Sensing.c **** #endif /* (key_touch_ENABLE == key_touch_IS_M0S8PERI_BLOCK) */
1384:Generated_Source\PSoC4/key_touch_Sensing.c **** }
 521              		.loc 1 1384 0
 522              		@ sp needed
 523 001c 7047     		bx	lr
 524              	.L46:
 525 001e C046     		.align	2
 526              	.L45:
 527 0020 40000040 		.word	1073741888
 528 0024 00000140 		.word	1073807360
 529 0028 00030140 		.word	1073808128
 530 002c 40FF0080 		.word	-2147418304
 531              		.cfi_endproc
 532              	.LFE9:
 533              		.size	key_touch_SsSetModClkClockDivider, .-key_touch_SsSetModClkClockDivider
 534              		.section	.text.key_touch_SsSetSnsClockDivider,"ax",%progbits
 535              		.align	2
 536              		.global	key_touch_SsSetSnsClockDivider
 537              		.code	16
 538              		.thumb_func
 539              		.type	key_touch_SsSetSnsClockDivider, %function
 540              	key_touch_SsSetSnsClockDivider:
 541              	.LFB10:
1385:Generated_Source\PSoC4/key_touch_Sensing.c **** 
1386:Generated_Source\PSoC4/key_touch_Sensing.c **** 
1387:Generated_Source\PSoC4/key_touch_Sensing.c **** /*******************************************************************************
1388:Generated_Source\PSoC4/key_touch_Sensing.c **** * Function Name: key_touch_SsSetSnsClockDivider
ARM GAS  C:\Users\Administrator\AppData\Local\Temp\ccPYRpEO.s 			page 35


1389:Generated_Source\PSoC4/key_touch_Sensing.c **** ****************************************************************************//**
1390:Generated_Source\PSoC4/key_touch_Sensing.c **** *
1391:Generated_Source\PSoC4/key_touch_Sensing.c **** * \brief
1392:Generated_Source\PSoC4/key_touch_Sensing.c **** *   Sets the divider values for the sense clock and then starts
1393:Generated_Source\PSoC4/key_touch_Sensing.c **** *   the sense clock.
1394:Generated_Source\PSoC4/key_touch_Sensing.c **** *
1395:Generated_Source\PSoC4/key_touch_Sensing.c **** * \details
1396:Generated_Source\PSoC4/key_touch_Sensing.c **** *   It is not recommended to call this function directly by the application layer.
1397:Generated_Source\PSoC4/key_touch_Sensing.c **** *   It is used by initialization, widget APIs or wakeup functions to
1398:Generated_Source\PSoC4/key_touch_Sensing.c **** *   enable the clocks.
1399:Generated_Source\PSoC4/key_touch_Sensing.c **** *
1400:Generated_Source\PSoC4/key_touch_Sensing.c **** * \param
1401:Generated_Source\PSoC4/key_touch_Sensing.c **** *   snsClk The divider value for the sense clock.
1402:Generated_Source\PSoC4/key_touch_Sensing.c **** *
1403:Generated_Source\PSoC4/key_touch_Sensing.c **** *******************************************************************************/
1404:Generated_Source\PSoC4/key_touch_Sensing.c **** void key_touch_SsSetSnsClockDivider(uint32 snsClk)
1405:Generated_Source\PSoC4/key_touch_Sensing.c **** {
 542              		.loc 1 1405 0
 543              		.cfi_startproc
 544              	.LVL49:
1406:Generated_Source\PSoC4/key_touch_Sensing.c **** #if (key_touch_ENABLE == key_touch_CSDV2)
1407:Generated_Source\PSoC4/key_touch_Sensing.c ****     uint32 newRegValue;
1408:Generated_Source\PSoC4/key_touch_Sensing.c **** 
1409:Generated_Source\PSoC4/key_touch_Sensing.c ****     /*
1410:Generated_Source\PSoC4/key_touch_Sensing.c ****      * Set divider value for sense clock.
1411:Generated_Source\PSoC4/key_touch_Sensing.c ****      * 1u is subtracted from snsClk because SENSE_DIV value 0 corresponds
1412:Generated_Source\PSoC4/key_touch_Sensing.c ****      * to dividing by 1.
1413:Generated_Source\PSoC4/key_touch_Sensing.c ****      */
1414:Generated_Source\PSoC4/key_touch_Sensing.c ****     newRegValue = CY_GET_REG32(key_touch_SENSE_PERIOD_PTR);
 545              		.loc 1 1414 0
 546 0000 034A     		ldr	r2, .L48
 547 0002 1368     		ldr	r3, [r2]
 548              	.LVL50:
1415:Generated_Source\PSoC4/key_touch_Sensing.c ****     newRegValue &= (uint32)(~key_touch_SENSE_PERIOD_SENSE_DIV_MASK);
 549              		.loc 1 1415 0
 550 0004 1B0B     		lsr	r3, r3, #12
 551              	.LVL51:
 552 0006 1B03     		lsl	r3, r3, #12
 553              	.LVL52:
1416:Generated_Source\PSoC4/key_touch_Sensing.c ****     newRegValue |= snsClk - 1u;
 554              		.loc 1 1416 0
 555 0008 0138     		sub	r0, r0, #1
 556              	.LVL53:
 557 000a 1843     		orr	r0, r3
 558              	.LVL54:
1417:Generated_Source\PSoC4/key_touch_Sensing.c ****     CY_SET_REG32(key_touch_SENSE_PERIOD_PTR, newRegValue);
 559              		.loc 1 1417 0
 560 000c 1060     		str	r0, [r2]
1418:Generated_Source\PSoC4/key_touch_Sensing.c **** #else
1419:Generated_Source\PSoC4/key_touch_Sensing.c ****     #if (key_touch_ENABLE == key_touch_IS_M0S8PERI_BLOCK)
1420:Generated_Source\PSoC4/key_touch_Sensing.c ****         /*  Stop sense clock clock   */
1421:Generated_Source\PSoC4/key_touch_Sensing.c ****         CY_SET_REG32(key_touch_SNSCLK_CMD_PTR,
1422:Generated_Source\PSoC4/key_touch_Sensing.c ****                      ((uint32)key_touch_SnsClk__DIV_ID <<
1423:Generated_Source\PSoC4/key_touch_Sensing.c ****                      key_touch_SNSCLK_CMD_DIV_SHIFT)|
1424:Generated_Source\PSoC4/key_touch_Sensing.c ****                      ((uint32)key_touch_SNSCLK_CMD_DISABLE_MASK));
1425:Generated_Source\PSoC4/key_touch_Sensing.c **** 
1426:Generated_Source\PSoC4/key_touch_Sensing.c ****         /*
ARM GAS  C:\Users\Administrator\AppData\Local\Temp\ccPYRpEO.s 			page 36


1427:Generated_Source\PSoC4/key_touch_Sensing.c ****          * Set divider value for sense clock.
1428:Generated_Source\PSoC4/key_touch_Sensing.c ****          * 1u is subtracted from snsClk because Divider register value 0 corresponds
1429:Generated_Source\PSoC4/key_touch_Sensing.c ****          * to dividing by 1.
1430:Generated_Source\PSoC4/key_touch_Sensing.c ****          */
1431:Generated_Source\PSoC4/key_touch_Sensing.c ****         CY_SET_REG32(key_touch_SNSCLK_DIV_PTR, ((snsClk - 1u) << 8u));
1432:Generated_Source\PSoC4/key_touch_Sensing.c **** 
1433:Generated_Source\PSoC4/key_touch_Sensing.c ****         /*  Check whether previous sense clock start command has finished. */
1434:Generated_Source\PSoC4/key_touch_Sensing.c ****         while(0u != (CY_GET_REG32(key_touch_SNSCLK_CMD_PTR) & key_touch_SNSCLK_CMD_ENABLE_MASK))
1435:Generated_Source\PSoC4/key_touch_Sensing.c ****         {
1436:Generated_Source\PSoC4/key_touch_Sensing.c ****             /*  Wait until previous sense clock start command has finished. */
1437:Generated_Source\PSoC4/key_touch_Sensing.c ****         }
1438:Generated_Source\PSoC4/key_touch_Sensing.c **** 
1439:Generated_Source\PSoC4/key_touch_Sensing.c ****         /* Start sense clock aligned to previously started modulator clock. */
1440:Generated_Source\PSoC4/key_touch_Sensing.c ****         CY_SET_REG32(key_touch_SNSCLK_CMD_PTR,
1441:Generated_Source\PSoC4/key_touch_Sensing.c ****                      (uint32)(((uint32)key_touch_SnsClk__DIV_ID << key_touch_SNSCLK_CMD_DIV_SHIFT) 
1442:Generated_Source\PSoC4/key_touch_Sensing.c ****                       ((uint32)key_touch_ModClk__PA_DIV_ID << key_touch_SNSCLK_CMD_PA_DIV_SHIFT) |
1443:Generated_Source\PSoC4/key_touch_Sensing.c ****                       key_touch_SNSCLK_CMD_ENABLE_MASK));
1444:Generated_Source\PSoC4/key_touch_Sensing.c ****     #else
1445:Generated_Source\PSoC4/key_touch_Sensing.c ****         uint32 newRegValue;
1446:Generated_Source\PSoC4/key_touch_Sensing.c **** 
1447:Generated_Source\PSoC4/key_touch_Sensing.c ****         /* Clear bit to disable SnsClk clock. */
1448:Generated_Source\PSoC4/key_touch_Sensing.c ****         CY_SET_REG32(key_touch_SNSCLK_CMD_PTR,
1449:Generated_Source\PSoC4/key_touch_Sensing.c ****                      CY_GET_REG32(key_touch_SNSCLK_CMD_PTR) &
1450:Generated_Source\PSoC4/key_touch_Sensing.c ****                      (uint32)(~(uint32)key_touch_SnsClk__ENABLE_MASK));
1451:Generated_Source\PSoC4/key_touch_Sensing.c **** 
1452:Generated_Source\PSoC4/key_touch_Sensing.c ****         /*
1453:Generated_Source\PSoC4/key_touch_Sensing.c ****          * Update snsClk clock divider.
1454:Generated_Source\PSoC4/key_touch_Sensing.c ****          * 1u is subtracted from snsClk because Divider register value has range (0-65535).
1455:Generated_Source\PSoC4/key_touch_Sensing.c ****          */
1456:Generated_Source\PSoC4/key_touch_Sensing.c ****         newRegValue = CY_GET_REG32(key_touch_SNSCLK_DIV_PTR) & (uint32)(~(uint32)key_touch_SnsClk__
1457:Generated_Source\PSoC4/key_touch_Sensing.c ****         newRegValue |= (snsClk - 1u);
1458:Generated_Source\PSoC4/key_touch_Sensing.c ****         CY_SET_REG32(key_touch_SNSCLK_DIV_PTR, newRegValue);
1459:Generated_Source\PSoC4/key_touch_Sensing.c **** 
1460:Generated_Source\PSoC4/key_touch_Sensing.c ****         /* Set bit to enable SnsClk clock. */
1461:Generated_Source\PSoC4/key_touch_Sensing.c ****         CY_SET_REG32(key_touch_SNSCLK_CMD_PTR,
1462:Generated_Source\PSoC4/key_touch_Sensing.c ****                      CY_GET_REG32(key_touch_SNSCLK_CMD_PTR) |
1463:Generated_Source\PSoC4/key_touch_Sensing.c ****                     key_touch_SnsClk__ENABLE_MASK);
1464:Generated_Source\PSoC4/key_touch_Sensing.c ****     #endif /* (key_touch_ENABLE == key_touch_IS_M0S8PERI_BLOCK) */
1465:Generated_Source\PSoC4/key_touch_Sensing.c **** #endif /* (key_touch_ENABLE == key_touch_CSDV2) */
1466:Generated_Source\PSoC4/key_touch_Sensing.c **** }
 561              		.loc 1 1466 0
 562              		@ sp needed
 563 000e 7047     		bx	lr
 564              	.L49:
 565              		.align	2
 566              	.L48:
 567 0010 00020B40 		.word	1074463232
 568              		.cfi_endproc
 569              	.LFE10:
 570              		.size	key_touch_SsSetSnsClockDivider, .-key_touch_SsSetSnsClockDivider
 571              		.section	.text.key_touch_SsSetClockDividers,"ax",%progbits
 572              		.align	2
 573              		.global	key_touch_SsSetClockDividers
 574              		.code	16
 575              		.thumb_func
 576              		.type	key_touch_SsSetClockDividers, %function
 577              	key_touch_SsSetClockDividers:
ARM GAS  C:\Users\Administrator\AppData\Local\Temp\ccPYRpEO.s 			page 37


 578              	.LFB11:
1467:Generated_Source\PSoC4/key_touch_Sensing.c **** 
1468:Generated_Source\PSoC4/key_touch_Sensing.c **** 
1469:Generated_Source\PSoC4/key_touch_Sensing.c **** /*******************************************************************************
1470:Generated_Source\PSoC4/key_touch_Sensing.c **** * Function Name: key_touch_SsSetClockDividers
1471:Generated_Source\PSoC4/key_touch_Sensing.c **** ****************************************************************************//**
1472:Generated_Source\PSoC4/key_touch_Sensing.c **** *
1473:Generated_Source\PSoC4/key_touch_Sensing.c **** * \brief
1474:Generated_Source\PSoC4/key_touch_Sensing.c **** *   Sets the divider values for sense and modulator clocks and then starts
1475:Generated_Source\PSoC4/key_touch_Sensing.c **** *   a modulator clock-phase aligned to HFCLK and sense clock-phase aligned to
1476:Generated_Source\PSoC4/key_touch_Sensing.c **** *   the modulator clock.
1477:Generated_Source\PSoC4/key_touch_Sensing.c **** *
1478:Generated_Source\PSoC4/key_touch_Sensing.c **** * \details
1479:Generated_Source\PSoC4/key_touch_Sensing.c **** *   It is not recommended to call this function directly by the application layer.
1480:Generated_Source\PSoC4/key_touch_Sensing.c **** *   It is used by initialization, widget APIs or wakeup functions to
1481:Generated_Source\PSoC4/key_touch_Sensing.c **** *   enable the clocks.
1482:Generated_Source\PSoC4/key_touch_Sensing.c **** *
1483:Generated_Source\PSoC4/key_touch_Sensing.c **** * \param
1484:Generated_Source\PSoC4/key_touch_Sensing.c **** *   snsClk The divider value for the sense clock.
1485:Generated_Source\PSoC4/key_touch_Sensing.c **** *   modClk The divider value for the modulator clock.
1486:Generated_Source\PSoC4/key_touch_Sensing.c **** *
1487:Generated_Source\PSoC4/key_touch_Sensing.c **** *******************************************************************************/
1488:Generated_Source\PSoC4/key_touch_Sensing.c **** void key_touch_SsSetClockDividers(uint32 snsClk, uint32 modClk)
1489:Generated_Source\PSoC4/key_touch_Sensing.c **** {
 579              		.loc 1 1489 0
 580              		.cfi_startproc
 581              	.LVL55:
 582 0000 10B5     		push	{r4, lr}
 583              		.cfi_def_cfa_offset 8
 584              		.cfi_offset 4, -8
 585              		.cfi_offset 14, -4
 586 0002 041C     		mov	r4, r0
1490:Generated_Source\PSoC4/key_touch_Sensing.c ****     /* Configure Mod clock */
1491:Generated_Source\PSoC4/key_touch_Sensing.c ****     key_touch_SsSetModClkClockDivider(modClk);
 587              		.loc 1 1491 0
 588 0004 081C     		mov	r0, r1
 589              	.LVL56:
 590 0006 FFF7FEFF 		bl	key_touch_SsSetModClkClockDivider
 591              	.LVL57:
1492:Generated_Source\PSoC4/key_touch_Sensing.c **** 
1493:Generated_Source\PSoC4/key_touch_Sensing.c ****     /* Configure Sns clock */
1494:Generated_Source\PSoC4/key_touch_Sensing.c ****     key_touch_SsSetSnsClockDivider(snsClk);
 592              		.loc 1 1494 0
 593 000a 201C     		mov	r0, r4
 594 000c FFF7FEFF 		bl	key_touch_SsSetSnsClockDivider
 595              	.LVL58:
1495:Generated_Source\PSoC4/key_touch_Sensing.c **** }
 596              		.loc 1 1495 0
 597              		@ sp needed
 598              	.LVL59:
 599 0010 10BD     		pop	{r4, pc}
 600              		.cfi_endproc
 601              	.LFE11:
 602              		.size	key_touch_SsSetClockDividers, .-key_touch_SsSetClockDividers
 603 0012 C046     		.section	.text.key_touch_CalibrateWidget,"ax",%progbits
 604              		.align	2
 605              		.global	key_touch_CalibrateWidget
ARM GAS  C:\Users\Administrator\AppData\Local\Temp\ccPYRpEO.s 			page 38


 606              		.code	16
 607              		.thumb_func
 608              		.type	key_touch_CalibrateWidget, %function
 609              	key_touch_CalibrateWidget:
 610              	.LFB12:
1496:Generated_Source\PSoC4/key_touch_Sensing.c **** 
1497:Generated_Source\PSoC4/key_touch_Sensing.c **** 
1498:Generated_Source\PSoC4/key_touch_Sensing.c **** #if ((key_touch_ENABLE == key_touch_CSD_IDAC_AUTOCAL_EN) || \
1499:Generated_Source\PSoC4/key_touch_Sensing.c ****      (key_touch_ENABLE == key_touch_CSX_IDAC_AUTOCAL_EN))
1500:Generated_Source\PSoC4/key_touch_Sensing.c ****     /*******************************************************************************
1501:Generated_Source\PSoC4/key_touch_Sensing.c ****     * Function Name: key_touch_CalibrateWidget
1502:Generated_Source\PSoC4/key_touch_Sensing.c ****     ****************************************************************************//**
1503:Generated_Source\PSoC4/key_touch_Sensing.c ****     *
1504:Generated_Source\PSoC4/key_touch_Sensing.c ****     * \brief
1505:Generated_Source\PSoC4/key_touch_Sensing.c ****     *  Calibrates the IDACs for all sensors in the specified widget to default
1506:Generated_Source\PSoC4/key_touch_Sensing.c ****     *  target (85%) value, this function detects sensing method used by the
1507:Generated_Source\PSoC4/key_touch_Sensing.c ****     *  widget prior to calibration.
1508:Generated_Source\PSoC4/key_touch_Sensing.c ****     *
1509:Generated_Source\PSoC4/key_touch_Sensing.c ****     * \details
1510:Generated_Source\PSoC4/key_touch_Sensing.c ****     *  This function performs exactly the same tasks as
1511:Generated_Source\PSoC4/key_touch_Sensing.c ****     *  key_touch_CalibrateAllWidgets, but only for a specified widget.
1512:Generated_Source\PSoC4/key_touch_Sensing.c ****     *  This function detects the sensing method used by the widgets and takes
1513:Generated_Source\PSoC4/key_touch_Sensing.c ****     *  into account the Enable compensation IDAC parameter.
1514:Generated_Source\PSoC4/key_touch_Sensing.c ****     *
1515:Generated_Source\PSoC4/key_touch_Sensing.c ****     *  This function is available when the CSD and/or CSX Enable IDAC
1516:Generated_Source\PSoC4/key_touch_Sensing.c ****     *  auto-calibration parameter is enabled.
1517:Generated_Source\PSoC4/key_touch_Sensing.c **** 
1518:Generated_Source\PSoC4/key_touch_Sensing.c ****     *
1519:Generated_Source\PSoC4/key_touch_Sensing.c ****     * \param wdgtIndex
1520:Generated_Source\PSoC4/key_touch_Sensing.c ****     *  Specify the ID number of the widget to calibrate its raw count.
1521:Generated_Source\PSoC4/key_touch_Sensing.c ****     *  A macro for the widget ID can be found in the
1522:Generated_Source\PSoC4/key_touch_Sensing.c ****     *  key_touch Configuration header file defined as
1523:Generated_Source\PSoC4/key_touch_Sensing.c ****     *  key_touch_<WidgetName>_WDGT_ID.
1524:Generated_Source\PSoC4/key_touch_Sensing.c ****     *
1525:Generated_Source\PSoC4/key_touch_Sensing.c ****     * \return
1526:Generated_Source\PSoC4/key_touch_Sensing.c ****     *  Returns the status of the specified widget calibration:
1527:Generated_Source\PSoC4/key_touch_Sensing.c ****     *    - CYRET_SUCCESS if operation is successfully completed.
1528:Generated_Source\PSoC4/key_touch_Sensing.c ****     *    - CYRET_BAD_PARAM if the input parameter is invalid.
1529:Generated_Source\PSoC4/key_touch_Sensing.c ****     *    - CYRET_BAD_DATA if the calibration failed and the component may not
1530:Generated_Source\PSoC4/key_touch_Sensing.c ****     *      operate as expected.
1531:Generated_Source\PSoC4/key_touch_Sensing.c ****     *
1532:Generated_Source\PSoC4/key_touch_Sensing.c ****     *******************************************************************************/
1533:Generated_Source\PSoC4/key_touch_Sensing.c ****     cystatus key_touch_CalibrateWidget(uint32 wdgtIndex)
1534:Generated_Source\PSoC4/key_touch_Sensing.c ****     {
 611              		.loc 1 1534 0
 612              		.cfi_startproc
 613              	.LVL60:
 614 0000 08B5     		push	{r3, lr}
 615              		.cfi_def_cfa_offset 8
 616              		.cfi_offset 3, -8
 617              		.cfi_offset 14, -4
 618 0002 031E     		sub	r3, r0, #0
 619              	.LVL61:
1535:Generated_Source\PSoC4/key_touch_Sensing.c ****         cystatus calibrateStatus = CYRET_SUCCESS;
1536:Generated_Source\PSoC4/key_touch_Sensing.c **** 
1537:Generated_Source\PSoC4/key_touch_Sensing.c ****         do
1538:Generated_Source\PSoC4/key_touch_Sensing.c ****         {
ARM GAS  C:\Users\Administrator\AppData\Local\Temp\ccPYRpEO.s 			page 39


1539:Generated_Source\PSoC4/key_touch_Sensing.c ****             if (key_touch_TOTAL_WIDGETS <= wdgtIndex)
 620              		.loc 1 1539 0
 621 0004 0B2B     		cmp	r3, #11
 622 0006 01D8     		bhi	.L54
1535:Generated_Source\PSoC4/key_touch_Sensing.c ****         cystatus calibrateStatus = CYRET_SUCCESS;
 623              		.loc 1 1535 0
 624 0008 0020     		mov	r0, #0
 625              	.LVL62:
 626 000a 00E0     		b	.L52
 627              	.LVL63:
 628              	.L54:
1540:Generated_Source\PSoC4/key_touch_Sensing.c ****             {
1541:Generated_Source\PSoC4/key_touch_Sensing.c ****                 calibrateStatus = CYRET_BAD_PARAM;
 629              		.loc 1 1541 0
 630 000c 0120     		mov	r0, #1
 631              	.LVL64:
 632              	.L52:
1542:Generated_Source\PSoC4/key_touch_Sensing.c ****             }
1543:Generated_Source\PSoC4/key_touch_Sensing.c **** 
1544:Generated_Source\PSoC4/key_touch_Sensing.c ****             /*
1545:Generated_Source\PSoC4/key_touch_Sensing.c ****              *  Check if widget id is valid, specified widget did not
1546:Generated_Source\PSoC4/key_touch_Sensing.c ****              *  detect any faults conditions if BIST is enabled.
1547:Generated_Source\PSoC4/key_touch_Sensing.c ****              */
1548:Generated_Source\PSoC4/key_touch_Sensing.c ****             #if (key_touch_ENABLE == key_touch_SELF_TEST_EN)
1549:Generated_Source\PSoC4/key_touch_Sensing.c ****                 if (0u != key_touch_GET_WIDGET_EN_STATUS(wdgtIndex))
1550:Generated_Source\PSoC4/key_touch_Sensing.c ****                 {
1551:Generated_Source\PSoC4/key_touch_Sensing.c ****                     calibrateStatus = CYRET_SUCCESS;
1552:Generated_Source\PSoC4/key_touch_Sensing.c ****                 }
1553:Generated_Source\PSoC4/key_touch_Sensing.c ****                 else
1554:Generated_Source\PSoC4/key_touch_Sensing.c ****                 {
1555:Generated_Source\PSoC4/key_touch_Sensing.c ****                     calibrateStatus = CYRET_INVALID_STATE;
1556:Generated_Source\PSoC4/key_touch_Sensing.c ****                 }
1557:Generated_Source\PSoC4/key_touch_Sensing.c ****             #endif  /* (key_touch_ENABLE == key_touch_SELF_TEST_EN) */
1558:Generated_Source\PSoC4/key_touch_Sensing.c **** 
1559:Generated_Source\PSoC4/key_touch_Sensing.c ****             if (CYRET_SUCCESS != calibrateStatus)
 633              		.loc 1 1559 0
 634 000e 0028     		cmp	r0, #0
 635 0010 03D1     		bne	.L53
 636 0012 181C     		mov	r0, r3
 637              	.LVL65:
1560:Generated_Source\PSoC4/key_touch_Sensing.c ****             {
1561:Generated_Source\PSoC4/key_touch_Sensing.c ****                 /* Exit from the loop because of a fail */
1562:Generated_Source\PSoC4/key_touch_Sensing.c ****                 break;
1563:Generated_Source\PSoC4/key_touch_Sensing.c ****             }
1564:Generated_Source\PSoC4/key_touch_Sensing.c ****             
1565:Generated_Source\PSoC4/key_touch_Sensing.c ****             /* If CSD2X is enabled, calibrate CSD sensor    */
1566:Generated_Source\PSoC4/key_touch_Sensing.c ****             #if (key_touch_ENABLE == key_touch_CSD2X_EN)
1567:Generated_Source\PSoC4/key_touch_Sensing.c ****                 /* Calibrate CSD2X slot */
1568:Generated_Source\PSoC4/key_touch_Sensing.c ****                 calibrateStatus = key_touch_CSD2XCalibrateWidget(wdgtIndex, key_touch_CSD_RAWCOUNT_
1569:Generated_Source\PSoC4/key_touch_Sensing.c **** 
1570:Generated_Source\PSoC4/key_touch_Sensing.c ****             /*  If both CSD and CSX are enabled, calibrate widget using sensing method */
1571:Generated_Source\PSoC4/key_touch_Sensing.c ****             #elif (key_touch_ENABLE == key_touch_CSD_CSX_EN)
1572:Generated_Source\PSoC4/key_touch_Sensing.c **** 
1573:Generated_Source\PSoC4/key_touch_Sensing.c ****                 /* Check widget sensing method and call appropriate APIs */
1574:Generated_Source\PSoC4/key_touch_Sensing.c ****                 #if (key_touch_ENABLE == key_touch_CSX_IDAC_AUTOCAL_EN)
1575:Generated_Source\PSoC4/key_touch_Sensing.c ****                     if (key_touch_SENSE_METHOD_CSX_E ==
1576:Generated_Source\PSoC4/key_touch_Sensing.c ****                         key_touch_GET_SENSE_METHOD(&key_touch_dsFlash.wdgtArray[wdgtIndex]))
ARM GAS  C:\Users\Administrator\AppData\Local\Temp\ccPYRpEO.s 			page 40


1577:Generated_Source\PSoC4/key_touch_Sensing.c ****                     {
1578:Generated_Source\PSoC4/key_touch_Sensing.c ****                         /* Calibrate CSX widget  */
1579:Generated_Source\PSoC4/key_touch_Sensing.c ****                        key_touch_CSXCalibrateWidget(wdgtIndex, key_touch_CSX_RAWCOUNT_CAL_LEVEL);
1580:Generated_Source\PSoC4/key_touch_Sensing.c ****                     }
1581:Generated_Source\PSoC4/key_touch_Sensing.c ****                 #endif  /* (key_touch_ENABLE == key_touch_CSX_IDAC_AUTOCAL_EN) */
1582:Generated_Source\PSoC4/key_touch_Sensing.c **** 
1583:Generated_Source\PSoC4/key_touch_Sensing.c ****                 #if (key_touch_ENABLE == key_touch_CSD_IDAC_AUTOCAL_EN)
1584:Generated_Source\PSoC4/key_touch_Sensing.c ****                     if (key_touch_SENSE_METHOD_CSD_E ==
1585:Generated_Source\PSoC4/key_touch_Sensing.c ****                         key_touch_GET_SENSE_METHOD(&key_touch_dsFlash.wdgtArray[wdgtIndex]))
1586:Generated_Source\PSoC4/key_touch_Sensing.c ****                     {
1587:Generated_Source\PSoC4/key_touch_Sensing.c ****                         /* Calibrate CSD widget */
1588:Generated_Source\PSoC4/key_touch_Sensing.c ****                         calibrateStatus = key_touch_CSDCalibrateWidget(wdgtIndex, key_touch_CSD_RAW
1589:Generated_Source\PSoC4/key_touch_Sensing.c ****                     }
1590:Generated_Source\PSoC4/key_touch_Sensing.c ****                 #endif  /* (key_touch_ENABLE == key_touch_CSD_IDAC_AUTOCAL_EN) */
1591:Generated_Source\PSoC4/key_touch_Sensing.c **** 
1592:Generated_Source\PSoC4/key_touch_Sensing.c ****             /*  If only CSD is enabled, calibrate CSD sensor  */
1593:Generated_Source\PSoC4/key_touch_Sensing.c ****             #elif (key_touch_ENABLE == key_touch_CSD_EN)
1594:Generated_Source\PSoC4/key_touch_Sensing.c ****                 calibrateStatus = key_touch_CSDCalibrateWidget(wdgtIndex, key_touch_CSD_RAWCOUNT_CA
 638              		.loc 1 1594 0
 639 0014 3C21     		mov	r1, #60
 640 0016 FFF7FEFF 		bl	key_touch_CSDCalibrateWidget
 641              	.LVL66:
 642              	.L53:
1595:Generated_Source\PSoC4/key_touch_Sensing.c **** 
1596:Generated_Source\PSoC4/key_touch_Sensing.c ****             /*  If only CSX is enabled, call CSX scan   */
1597:Generated_Source\PSoC4/key_touch_Sensing.c ****             #elif (key_touch_ENABLE == key_touch_CSX_EN)
1598:Generated_Source\PSoC4/key_touch_Sensing.c ****                 key_touch_CSXCalibrateWidget(wdgtIndex, key_touch_CSX_RAWCOUNT_CAL_LEVEL);
1599:Generated_Source\PSoC4/key_touch_Sensing.c **** 
1600:Generated_Source\PSoC4/key_touch_Sensing.c ****             #else
1601:Generated_Source\PSoC4/key_touch_Sensing.c ****                 calibrateStatus = CYRET_UNKNOWN;
1602:Generated_Source\PSoC4/key_touch_Sensing.c ****             #endif  /* (key_touch_ENABLE == key_touch_CSD2X_EN) */
1603:Generated_Source\PSoC4/key_touch_Sensing.c **** 
1604:Generated_Source\PSoC4/key_touch_Sensing.c ****              /* Update CRC */
1605:Generated_Source\PSoC4/key_touch_Sensing.c ****             #if (key_touch_ENABLE ==key_touch_TST_WDGT_CRC_EN)
1606:Generated_Source\PSoC4/key_touch_Sensing.c ****                 key_touch_DsUpdateWidgetCrc(wdgtIndex);
1607:Generated_Source\PSoC4/key_touch_Sensing.c ****             #endif /* (key_touch_ENABLE ==key_touch_TST_WDGT_CRC_EN) */
1608:Generated_Source\PSoC4/key_touch_Sensing.c **** 
1609:Generated_Source\PSoC4/key_touch_Sensing.c ****         } while (0u);
1610:Generated_Source\PSoC4/key_touch_Sensing.c **** 
1611:Generated_Source\PSoC4/key_touch_Sensing.c ****         return calibrateStatus;
1612:Generated_Source\PSoC4/key_touch_Sensing.c ****     }
 643              		.loc 1 1612 0
 644              		@ sp needed
 645 001a 08BD     		pop	{r3, pc}
 646              		.cfi_endproc
 647              	.LFE12:
 648              		.size	key_touch_CalibrateWidget, .-key_touch_CalibrateWidget
 649              		.section	.text.key_touch_CalibrateAllWidgets,"ax",%progbits
 650              		.align	2
 651              		.global	key_touch_CalibrateAllWidgets
 652              		.code	16
 653              		.thumb_func
 654              		.type	key_touch_CalibrateAllWidgets, %function
 655              	key_touch_CalibrateAllWidgets:
 656              	.LFB13:
1613:Generated_Source\PSoC4/key_touch_Sensing.c **** 
1614:Generated_Source\PSoC4/key_touch_Sensing.c **** 
ARM GAS  C:\Users\Administrator\AppData\Local\Temp\ccPYRpEO.s 			page 41


1615:Generated_Source\PSoC4/key_touch_Sensing.c ****     /*******************************************************************************
1616:Generated_Source\PSoC4/key_touch_Sensing.c ****     * Function Name: key_touch_CalibrateAllWidgets
1617:Generated_Source\PSoC4/key_touch_Sensing.c ****     ****************************************************************************//**
1618:Generated_Source\PSoC4/key_touch_Sensing.c ****     *
1619:Generated_Source\PSoC4/key_touch_Sensing.c ****     * \brief
1620:Generated_Source\PSoC4/key_touch_Sensing.c ****     *  Calibrates the IDACs for all widgets in the component to default target
1621:Generated_Source\PSoC4/key_touch_Sensing.c ****     *  (85%) value, this function detects sensing method used by the widgets
1622:Generated_Source\PSoC4/key_touch_Sensing.c ****     *  prior to calibration.
1623:Generated_Source\PSoC4/key_touch_Sensing.c ****     *
1624:Generated_Source\PSoC4/key_touch_Sensing.c ****     * \details
1625:Generated_Source\PSoC4/key_touch_Sensing.c ****     *  Calibrates the IDACs for all widgets in the component to the default
1626:Generated_Source\PSoC4/key_touch_Sensing.c ****     *  target (85% of maximum possible raw count) value. This function detects
1627:Generated_Source\PSoC4/key_touch_Sensing.c ****     *  the sensing method used by the widgets and takes into account the Enable
1628:Generated_Source\PSoC4/key_touch_Sensing.c ****     *  compensation IDAC parameter.
1629:Generated_Source\PSoC4/key_touch_Sensing.c ****     *
1630:Generated_Source\PSoC4/key_touch_Sensing.c ****     *  This function is available when the CSD and/or CSX Enable IDAC
1631:Generated_Source\PSoC4/key_touch_Sensing.c ****     *  auto-calibration parameter is enabled.
1632:Generated_Source\PSoC4/key_touch_Sensing.c ****     *
1633:Generated_Source\PSoC4/key_touch_Sensing.c ****     * \return
1634:Generated_Source\PSoC4/key_touch_Sensing.c ****     *  Returns the status of the calibration process:
1635:Generated_Source\PSoC4/key_touch_Sensing.c ****     *    - CYRET_SUCCESS if the operation is successfully completed.
1636:Generated_Source\PSoC4/key_touch_Sensing.c ****     *    - CYRET_BAD_DATA if the calibration failed and the component may not
1637:Generated_Source\PSoC4/key_touch_Sensing.c ****     *      operate as expected.
1638:Generated_Source\PSoC4/key_touch_Sensing.c ****     *
1639:Generated_Source\PSoC4/key_touch_Sensing.c ****     *******************************************************************************/
1640:Generated_Source\PSoC4/key_touch_Sensing.c ****     cystatus key_touch_CalibrateAllWidgets(void)
1641:Generated_Source\PSoC4/key_touch_Sensing.c ****     {
 657              		.loc 1 1641 0
 658              		.cfi_startproc
 659 0000 38B5     		push	{r3, r4, r5, lr}
 660              		.cfi_def_cfa_offset 16
 661              		.cfi_offset 3, -16
 662              		.cfi_offset 4, -12
 663              		.cfi_offset 5, -8
 664              		.cfi_offset 14, -4
 665              	.LVL67:
1642:Generated_Source\PSoC4/key_touch_Sensing.c ****         cystatus calibrateStatus = CYRET_SUCCESS;
1643:Generated_Source\PSoC4/key_touch_Sensing.c ****         uint32 wdgtIndex;
1644:Generated_Source\PSoC4/key_touch_Sensing.c **** 
1645:Generated_Source\PSoC4/key_touch_Sensing.c ****         for (wdgtIndex = 0u; wdgtIndex < key_touch_TOTAL_WIDGETS; wdgtIndex++)
 666              		.loc 1 1645 0
 667 0002 0024     		mov	r4, #0
1642:Generated_Source\PSoC4/key_touch_Sensing.c ****         cystatus calibrateStatus = CYRET_SUCCESS;
 668              		.loc 1 1642 0
 669 0004 0025     		mov	r5, #0
 670              		.loc 1 1645 0
 671 0006 04E0     		b	.L56
 672              	.LVL68:
 673              	.L57:
1646:Generated_Source\PSoC4/key_touch_Sensing.c ****         {
1647:Generated_Source\PSoC4/key_touch_Sensing.c ****             calibrateStatus |= key_touch_CalibrateWidget(wdgtIndex);
 674              		.loc 1 1647 0 discriminator 3
 675 0008 201C     		mov	r0, r4
 676 000a FFF7FEFF 		bl	key_touch_CalibrateWidget
 677              	.LVL69:
 678 000e 0543     		orr	r5, r0
 679              	.LVL70:
ARM GAS  C:\Users\Administrator\AppData\Local\Temp\ccPYRpEO.s 			page 42


1645:Generated_Source\PSoC4/key_touch_Sensing.c ****         {
 680              		.loc 1 1645 0 discriminator 3
 681 0010 0134     		add	r4, r4, #1
 682              	.LVL71:
 683              	.L56:
1645:Generated_Source\PSoC4/key_touch_Sensing.c ****         {
 684              		.loc 1 1645 0 is_stmt 0 discriminator 1
 685 0012 0B2C     		cmp	r4, #11
 686 0014 F8D9     		bls	.L57
1648:Generated_Source\PSoC4/key_touch_Sensing.c ****         }
1649:Generated_Source\PSoC4/key_touch_Sensing.c **** 
1650:Generated_Source\PSoC4/key_touch_Sensing.c ****         return calibrateStatus;
1651:Generated_Source\PSoC4/key_touch_Sensing.c ****     }
 687              		.loc 1 1651 0 is_stmt 1
 688 0016 281C     		mov	r0, r5
 689              		@ sp needed
 690              	.LVL72:
 691              	.LVL73:
 692 0018 38BD     		pop	{r3, r4, r5, pc}
 693              		.cfi_endproc
 694              	.LFE13:
 695              		.size	key_touch_CalibrateAllWidgets, .-key_touch_CalibrateAllWidgets
 696 001a C046     		.section	.text.key_touch_SsClearCSDSensors,"ax",%progbits
 697              		.align	2
 698              		.global	key_touch_SsClearCSDSensors
 699              		.code	16
 700              		.thumb_func
 701              		.type	key_touch_SsClearCSDSensors, %function
 702              	key_touch_SsClearCSDSensors:
 703              	.LFB18:
1652:Generated_Source\PSoC4/key_touch_Sensing.c **** #endif /* ((key_touch_ENABLE == key_touch_CSD_IDAC_AUTOCAL_EN) ||
1653:Generated_Source\PSoC4/key_touch_Sensing.c ****            (key_touch_ENABLE == key_touch_CSX_IDAC_AUTOCAL_EN)) */
1654:Generated_Source\PSoC4/key_touch_Sensing.c **** 
1655:Generated_Source\PSoC4/key_touch_Sensing.c **** 
1656:Generated_Source\PSoC4/key_touch_Sensing.c **** #if (key_touch_CSD_SS_DIS != key_touch_CSD_AUTOTUNE)
1657:Generated_Source\PSoC4/key_touch_Sensing.c ****     #if (key_touch_ENABLE == key_touch_CSD2X_EN)
1658:Generated_Source\PSoC4/key_touch_Sensing.c ****         /*******************************************************************************
1659:Generated_Source\PSoC4/key_touch_Sensing.c ****         * Function Name: key_touch_SsSetEqualSlotClock
1660:Generated_Source\PSoC4/key_touch_Sensing.c ****         ****************************************************************************//**
1661:Generated_Source\PSoC4/key_touch_Sensing.c ****         *
1662:Generated_Source\PSoC4/key_touch_Sensing.c ****         * \brief
1663:Generated_Source\PSoC4/key_touch_Sensing.c ****         *  This function sets sense clocks to be equal on both CSD blocks.
1664:Generated_Source\PSoC4/key_touch_Sensing.c ****         *
1665:Generated_Source\PSoC4/key_touch_Sensing.c ****         * \details
1666:Generated_Source\PSoC4/key_touch_Sensing.c ****         *  This function sets clock dividers to equal
1667:Generated_Source\PSoC4/key_touch_Sensing.c ****         *  to widget divider that has higher value.
1668:Generated_Source\PSoC4/key_touch_Sensing.c ****         *
1669:Generated_Source\PSoC4/key_touch_Sensing.c ****         *
1670:Generated_Source\PSoC4/key_touch_Sensing.c ****         *******************************************************************************/
1671:Generated_Source\PSoC4/key_touch_Sensing.c ****         static void key_touch_SsSetEqualSlotClock(void)
1672:Generated_Source\PSoC4/key_touch_Sensing.c ****         {
1673:Generated_Source\PSoC4/key_touch_Sensing.c ****             key_touch_RAM_WD_BASE_STRUCT *ptrCSD0Wdgt = 0u;
1674:Generated_Source\PSoC4/key_touch_Sensing.c ****             key_touch_RAM_WD_BASE_STRUCT *ptrCSD1Wdgt = 0u;
1675:Generated_Source\PSoC4/key_touch_Sensing.c ****             uint32 widgetIndex;
1676:Generated_Source\PSoC4/key_touch_Sensing.c ****             uint32 emptySlot;
1677:Generated_Source\PSoC4/key_touch_Sensing.c **** 
1678:Generated_Source\PSoC4/key_touch_Sensing.c ****             /* Make sure that sense clocks are equal on both CSD blocks */
ARM GAS  C:\Users\Administrator\AppData\Local\Temp\ccPYRpEO.s 			page 43


1679:Generated_Source\PSoC4/key_touch_Sensing.c ****             for (widgetIndex = 0u; widgetIndex < key_touch_TOTAL_WIDGETS; widgetIndex++)
1680:Generated_Source\PSoC4/key_touch_Sensing.c ****             {
1681:Generated_Source\PSoC4/key_touch_Sensing.c ****                 emptySlot = 0u;
1682:Generated_Source\PSoC4/key_touch_Sensing.c ****                 for (key_touch_slotIndex = 0u; key_touch_slotIndex < key_touch_TOTAL_SLOTS; key_tou
1683:Generated_Source\PSoC4/key_touch_Sensing.c ****                 {
1684:Generated_Source\PSoC4/key_touch_Sensing.c ****                     key_touch_widgetIndex0 = key_touch_scanSlots[key_touch_slotIndex].csd0WidgetId;
1685:Generated_Source\PSoC4/key_touch_Sensing.c ****                     key_touch_sensorIndex0 = key_touch_scanSlots[key_touch_slotIndex].csd0SensorId;
1686:Generated_Source\PSoC4/key_touch_Sensing.c **** 
1687:Generated_Source\PSoC4/key_touch_Sensing.c ****                     key_touch_widgetIndex1 = key_touch_scanSlots[key_touch_slotIndex].csd1WidgetId;
1688:Generated_Source\PSoC4/key_touch_Sensing.c ****                     key_touch_sensorIndex1 = key_touch_scanSlots[key_touch_slotIndex].csd1SensorId;
1689:Generated_Source\PSoC4/key_touch_Sensing.c **** 
1690:Generated_Source\PSoC4/key_touch_Sensing.c ****                     if (key_touch_EMPTY_SLOT == key_touch_widgetIndex0)
1691:Generated_Source\PSoC4/key_touch_Sensing.c ****                     {
1692:Generated_Source\PSoC4/key_touch_Sensing.c ****                         emptySlot++;
1693:Generated_Source\PSoC4/key_touch_Sensing.c ****                     }
1694:Generated_Source\PSoC4/key_touch_Sensing.c **** 
1695:Generated_Source\PSoC4/key_touch_Sensing.c ****                     if (key_touch_EMPTY_SLOT == key_touch_widgetIndex1)
1696:Generated_Source\PSoC4/key_touch_Sensing.c ****                     {
1697:Generated_Source\PSoC4/key_touch_Sensing.c ****                         emptySlot++;
1698:Generated_Source\PSoC4/key_touch_Sensing.c ****                     }
1699:Generated_Source\PSoC4/key_touch_Sensing.c **** 
1700:Generated_Source\PSoC4/key_touch_Sensing.c ****                     if (0u == emptySlot)
1701:Generated_Source\PSoC4/key_touch_Sensing.c ****                     {
1702:Generated_Source\PSoC4/key_touch_Sensing.c ****                         ptrCSD0Wdgt = (key_touch_RAM_WD_BASE_STRUCT *)
1703:Generated_Source\PSoC4/key_touch_Sensing.c ****                                        key_touch_dsFlash.wdgtArray[key_touch_widgetIndex0].ptr2Wdgt
1704:Generated_Source\PSoC4/key_touch_Sensing.c ****                         ptrCSD1Wdgt = (key_touch_RAM_WD_BASE_STRUCT *)
1705:Generated_Source\PSoC4/key_touch_Sensing.c ****                                        key_touch_dsFlash.wdgtArray[key_touch_widgetIndex1].ptr2Wdgt
1706:Generated_Source\PSoC4/key_touch_Sensing.c **** 
1707:Generated_Source\PSoC4/key_touch_Sensing.c ****                         #if (key_touch_CSD_MATRIX_WIDGET_EN | key_touch_CSD_TOUCHPAD_WIDGET_EN)
1708:Generated_Source\PSoC4/key_touch_Sensing.c ****                             /* Check if current slot for CSD0 block has a row */
1709:Generated_Source\PSoC4/key_touch_Sensing.c ****                             if (key_touch_dsFlash.wdgtArray[key_touch_widgetIndex0].numCols <= key_
1710:Generated_Source\PSoC4/key_touch_Sensing.c ****                             {
1711:Generated_Source\PSoC4/key_touch_Sensing.c ****                                 /* Check if current slot for CSD1 block has a row */
1712:Generated_Source\PSoC4/key_touch_Sensing.c ****                                 if (key_touch_dsFlash.wdgtArray[key_touch_widgetIndex1].numCols <= 
1713:Generated_Source\PSoC4/key_touch_Sensing.c ****                                 {
1714:Generated_Source\PSoC4/key_touch_Sensing.c ****                                     /* Both slots have the rows. Compare rowSnsClk and reassign the
1715:Generated_Source\PSoC4/key_touch_Sensing.c ****                                     if (ptrCSD0Wdgt->rowSnsClk < ptrCSD1Wdgt->rowSnsClk)
1716:Generated_Source\PSoC4/key_touch_Sensing.c ****                                     {
1717:Generated_Source\PSoC4/key_touch_Sensing.c ****                                         ptrCSD0Wdgt->rowSnsClk = ptrCSD1Wdgt->rowSnsClk;
1718:Generated_Source\PSoC4/key_touch_Sensing.c ****                                     }
1719:Generated_Source\PSoC4/key_touch_Sensing.c ****                                     else
1720:Generated_Source\PSoC4/key_touch_Sensing.c ****                                     {
1721:Generated_Source\PSoC4/key_touch_Sensing.c ****                                         ptrCSD1Wdgt->rowSnsClk = ptrCSD0Wdgt->rowSnsClk;
1722:Generated_Source\PSoC4/key_touch_Sensing.c ****                                     }
1723:Generated_Source\PSoC4/key_touch_Sensing.c ****                                 }
1724:Generated_Source\PSoC4/key_touch_Sensing.c ****                                 else
1725:Generated_Source\PSoC4/key_touch_Sensing.c ****                                 {
1726:Generated_Source\PSoC4/key_touch_Sensing.c ****                                     /* CSD0 block has the row and CSD1 block has the column. Compar
1727:Generated_Source\PSoC4/key_touch_Sensing.c ****                                     if (ptrCSD0Wdgt->rowSnsClk < ptrCSD1Wdgt->snsClk)
1728:Generated_Source\PSoC4/key_touch_Sensing.c ****                                     {
1729:Generated_Source\PSoC4/key_touch_Sensing.c ****                                         ptrCSD0Wdgt->rowSnsClk = ptrCSD1Wdgt->snsClk;
1730:Generated_Source\PSoC4/key_touch_Sensing.c ****                                     }
1731:Generated_Source\PSoC4/key_touch_Sensing.c ****                                     else
1732:Generated_Source\PSoC4/key_touch_Sensing.c ****                                     {
1733:Generated_Source\PSoC4/key_touch_Sensing.c ****                                         ptrCSD1Wdgt->snsClk = ptrCSD0Wdgt->rowSnsClk;
1734:Generated_Source\PSoC4/key_touch_Sensing.c ****                                     }
1735:Generated_Source\PSoC4/key_touch_Sensing.c ****                                 }
ARM GAS  C:\Users\Administrator\AppData\Local\Temp\ccPYRpEO.s 			page 44


1736:Generated_Source\PSoC4/key_touch_Sensing.c ****                             }
1737:Generated_Source\PSoC4/key_touch_Sensing.c ****                             else
1738:Generated_Source\PSoC4/key_touch_Sensing.c ****                             {
1739:Generated_Source\PSoC4/key_touch_Sensing.c ****                                 /* Check if current slot for CSD1 block has a row */
1740:Generated_Source\PSoC4/key_touch_Sensing.c ****                                 if (key_touch_dsFlash.wdgtArray[key_touch_widgetIndex1].numCols <= 
1741:Generated_Source\PSoC4/key_touch_Sensing.c ****                                 {
1742:Generated_Source\PSoC4/key_touch_Sensing.c ****                                     /* CSD0 block has the column and CSD1 block has the row. Compar
1743:Generated_Source\PSoC4/key_touch_Sensing.c ****                                     if (ptrCSD0Wdgt->snsClk < ptrCSD1Wdgt->rowSnsClk)
1744:Generated_Source\PSoC4/key_touch_Sensing.c ****                                     {
1745:Generated_Source\PSoC4/key_touch_Sensing.c ****                                         ptrCSD0Wdgt->snsClk = ptrCSD1Wdgt->rowSnsClk;
1746:Generated_Source\PSoC4/key_touch_Sensing.c ****                                     }
1747:Generated_Source\PSoC4/key_touch_Sensing.c ****                                     else
1748:Generated_Source\PSoC4/key_touch_Sensing.c ****                                     {
1749:Generated_Source\PSoC4/key_touch_Sensing.c ****                                         ptrCSD1Wdgt->rowSnsClk = ptrCSD0Wdgt->snsClk;
1750:Generated_Source\PSoC4/key_touch_Sensing.c ****                                     }
1751:Generated_Source\PSoC4/key_touch_Sensing.c ****                                 }
1752:Generated_Source\PSoC4/key_touch_Sensing.c ****                                 else
1753:Generated_Source\PSoC4/key_touch_Sensing.c ****                                 {
1754:Generated_Source\PSoC4/key_touch_Sensing.c ****                                     /* Both slots have the columns. Compare snsClk and reassign the
1755:Generated_Source\PSoC4/key_touch_Sensing.c ****                                     if (ptrCSD0Wdgt->snsClk < ptrCSD1Wdgt->snsClk)
1756:Generated_Source\PSoC4/key_touch_Sensing.c ****                                     {
1757:Generated_Source\PSoC4/key_touch_Sensing.c ****                                         ptrCSD0Wdgt->snsClk = ptrCSD1Wdgt->snsClk;
1758:Generated_Source\PSoC4/key_touch_Sensing.c ****                                     }
1759:Generated_Source\PSoC4/key_touch_Sensing.c ****                                     else
1760:Generated_Source\PSoC4/key_touch_Sensing.c ****                                     {
1761:Generated_Source\PSoC4/key_touch_Sensing.c ****                                         ptrCSD1Wdgt->snsClk = ptrCSD0Wdgt->snsClk;
1762:Generated_Source\PSoC4/key_touch_Sensing.c ****                                     }
1763:Generated_Source\PSoC4/key_touch_Sensing.c ****                                 }
1764:Generated_Source\PSoC4/key_touch_Sensing.c ****                             }
1765:Generated_Source\PSoC4/key_touch_Sensing.c ****                         #else
1766:Generated_Source\PSoC4/key_touch_Sensing.c ****                             /* Compare snsClk and reassign the higher divider to widget with the lo
1767:Generated_Source\PSoC4/key_touch_Sensing.c ****                             if (ptrCSD0Wdgt->snsClk < ptrCSD1Wdgt->snsClk)
1768:Generated_Source\PSoC4/key_touch_Sensing.c ****                             {
1769:Generated_Source\PSoC4/key_touch_Sensing.c ****                                 ptrCSD0Wdgt->snsClk = ptrCSD1Wdgt->snsClk;
1770:Generated_Source\PSoC4/key_touch_Sensing.c ****                             }
1771:Generated_Source\PSoC4/key_touch_Sensing.c ****                             else
1772:Generated_Source\PSoC4/key_touch_Sensing.c ****                             {
1773:Generated_Source\PSoC4/key_touch_Sensing.c ****                                 ptrCSD1Wdgt->snsClk = ptrCSD0Wdgt->snsClk;
1774:Generated_Source\PSoC4/key_touch_Sensing.c ****                             }
1775:Generated_Source\PSoC4/key_touch_Sensing.c ****                         #endif /* (key_touch_CSD_MATRIX_WIDGET_EN | key_touch_CSD_TOUCHPAD_WIDGET_E
1776:Generated_Source\PSoC4/key_touch_Sensing.c ****                     }
1777:Generated_Source\PSoC4/key_touch_Sensing.c ****                 }
1778:Generated_Source\PSoC4/key_touch_Sensing.c ****             }
1779:Generated_Source\PSoC4/key_touch_Sensing.c ****         }
1780:Generated_Source\PSoC4/key_touch_Sensing.c **** 
1781:Generated_Source\PSoC4/key_touch_Sensing.c **** 
1782:Generated_Source\PSoC4/key_touch_Sensing.c ****         /*******************************************************************************
1783:Generated_Source\PSoC4/key_touch_Sensing.c ****         * Function Name: key_touch_SsSetCSD0DirectClockMode
1784:Generated_Source\PSoC4/key_touch_Sensing.c ****         ****************************************************************************//**
1785:Generated_Source\PSoC4/key_touch_Sensing.c ****         *
1786:Generated_Source\PSoC4/key_touch_Sensing.c ****         * \brief
1787:Generated_Source\PSoC4/key_touch_Sensing.c ****         *  Sets Direct Clock Mode.
1788:Generated_Source\PSoC4/key_touch_Sensing.c ****         *
1789:Generated_Source\PSoC4/key_touch_Sensing.c ****         * \details
1790:Generated_Source\PSoC4/key_touch_Sensing.c ****         *  For CSDv1: Resets PRS bit in key_touch_configCsd variable;
1791:Generated_Source\PSoC4/key_touch_Sensing.c ****         *
1792:Generated_Source\PSoC4/key_touch_Sensing.c ****         *******************************************************************************/
ARM GAS  C:\Users\Administrator\AppData\Local\Temp\ccPYRpEO.s 			page 45


1793:Generated_Source\PSoC4/key_touch_Sensing.c ****         static void key_touch_SsSetCSD0DirectClockMode(void)
1794:Generated_Source\PSoC4/key_touch_Sensing.c ****         {
1795:Generated_Source\PSoC4/key_touch_Sensing.c ****             #if (key_touch_DISABLE == key_touch_CSDV2)
1796:Generated_Source\PSoC4/key_touch_Sensing.c ****                 key_touch_configCsd0 = key_touch_configCsd0 &(uint32)~(key_touch_CONFIG_PRS_SELECT_
1797:Generated_Source\PSoC4/key_touch_Sensing.c ****             #endif /* (key_touch_ENABLE == key_touch_CSDV2) */
1798:Generated_Source\PSoC4/key_touch_Sensing.c ****         }
1799:Generated_Source\PSoC4/key_touch_Sensing.c **** 
1800:Generated_Source\PSoC4/key_touch_Sensing.c **** 
1801:Generated_Source\PSoC4/key_touch_Sensing.c ****         /*******************************************************************************
1802:Generated_Source\PSoC4/key_touch_Sensing.c ****         * Function Name: key_touch_SsSetCSD1DirectClockMode
1803:Generated_Source\PSoC4/key_touch_Sensing.c ****         ****************************************************************************//**
1804:Generated_Source\PSoC4/key_touch_Sensing.c ****         *
1805:Generated_Source\PSoC4/key_touch_Sensing.c ****         * \brief
1806:Generated_Source\PSoC4/key_touch_Sensing.c ****         *  Sets Direct Clock Mode.
1807:Generated_Source\PSoC4/key_touch_Sensing.c ****         *
1808:Generated_Source\PSoC4/key_touch_Sensing.c ****         * \details
1809:Generated_Source\PSoC4/key_touch_Sensing.c ****         *  For CSDv1: Resets PRS bit in key_touch_configCsd variable;
1810:Generated_Source\PSoC4/key_touch_Sensing.c ****         *
1811:Generated_Source\PSoC4/key_touch_Sensing.c ****         *******************************************************************************/
1812:Generated_Source\PSoC4/key_touch_Sensing.c ****         static void key_touch_SsSetCSD1DirectClockMode(void)
1813:Generated_Source\PSoC4/key_touch_Sensing.c ****         {
1814:Generated_Source\PSoC4/key_touch_Sensing.c ****             #if (key_touch_DISABLE == key_touch_CSDV2)
1815:Generated_Source\PSoC4/key_touch_Sensing.c ****                 key_touch_configCsd1 = key_touch_configCsd1 &(uint32)~(key_touch_CONFIG_PRS_SELECT_
1816:Generated_Source\PSoC4/key_touch_Sensing.c ****             #endif /* (key_touch_ENABLE == key_touch_CSDV2) */
1817:Generated_Source\PSoC4/key_touch_Sensing.c ****         }
1818:Generated_Source\PSoC4/key_touch_Sensing.c ****     #else
1819:Generated_Source\PSoC4/key_touch_Sensing.c **** 
1820:Generated_Source\PSoC4/key_touch_Sensing.c **** 
1821:Generated_Source\PSoC4/key_touch_Sensing.c ****         /*******************************************************************************
1822:Generated_Source\PSoC4/key_touch_Sensing.c ****         * Function Name: key_touch_SsSetDirectClockMode
1823:Generated_Source\PSoC4/key_touch_Sensing.c ****         ****************************************************************************//**
1824:Generated_Source\PSoC4/key_touch_Sensing.c ****         *
1825:Generated_Source\PSoC4/key_touch_Sensing.c ****         * \brief
1826:Generated_Source\PSoC4/key_touch_Sensing.c ****         *  Sets Direct Clock Mode.
1827:Generated_Source\PSoC4/key_touch_Sensing.c ****         *
1828:Generated_Source\PSoC4/key_touch_Sensing.c ****         * \details
1829:Generated_Source\PSoC4/key_touch_Sensing.c ****         *  For CSDv1: Resets PRS bit in key_touch_configCsd variable;
1830:Generated_Source\PSoC4/key_touch_Sensing.c ****         *  For CSDv2: Resets key_touch_SENSE_PERIOD_SEL_LFSR_MSB_MASK and
1831:Generated_Source\PSoC4/key_touch_Sensing.c ****         *  key_touch_SENSE_PERIOD_SEL_LFSR_MSB_MASK bits in
1832:Generated_Source\PSoC4/key_touch_Sensing.c ****         *  key_touch_SENSE_PERIOD register.
1833:Generated_Source\PSoC4/key_touch_Sensing.c ****         *
1834:Generated_Source\PSoC4/key_touch_Sensing.c ****         *******************************************************************************/
1835:Generated_Source\PSoC4/key_touch_Sensing.c ****         static void key_touch_SsSetDirectClockMode(void)
1836:Generated_Source\PSoC4/key_touch_Sensing.c ****         {
1837:Generated_Source\PSoC4/key_touch_Sensing.c ****             #if (key_touch_ENABLE == key_touch_CSDV2)
1838:Generated_Source\PSoC4/key_touch_Sensing.c ****                 CY_SET_REG32(key_touch_SENSE_PERIOD_PTR, CY_GET_REG32(key_touch_SENSE_PERIOD_PTR) &
1839:Generated_Source\PSoC4/key_touch_Sensing.c ****                                                                      (uint32)~(key_touch_SENSE_PERI
1840:Generated_Source\PSoC4/key_touch_Sensing.c ****                                                                      key_touch_SENSE_PERIOD_LFSR_SI
1841:Generated_Source\PSoC4/key_touch_Sensing.c ****             #else
1842:Generated_Source\PSoC4/key_touch_Sensing.c ****                 key_touch_configCsd = key_touch_configCsd &(uint32)~(key_touch_CONFIG_PRS_SELECT_MA
1843:Generated_Source\PSoC4/key_touch_Sensing.c ****             #endif /* (key_touch_ENABLE == key_touch_CSDV2) */
1844:Generated_Source\PSoC4/key_touch_Sensing.c ****         }
1845:Generated_Source\PSoC4/key_touch_Sensing.c ****     #endif /* (key_touch_ENABLE == key_touch_CSD2X_EN) */
1846:Generated_Source\PSoC4/key_touch_Sensing.c **** 
1847:Generated_Source\PSoC4/key_touch_Sensing.c **** 
1848:Generated_Source\PSoC4/key_touch_Sensing.c ****     /*******************************************************************************
1849:Generated_Source\PSoC4/key_touch_Sensing.c ****     * Function Name: key_touch_SsAutoTune
ARM GAS  C:\Users\Administrator\AppData\Local\Temp\ccPYRpEO.s 			page 46


1850:Generated_Source\PSoC4/key_touch_Sensing.c ****     ****************************************************************************//**
1851:Generated_Source\PSoC4/key_touch_Sensing.c ****     *
1852:Generated_Source\PSoC4/key_touch_Sensing.c ****     * \brief
1853:Generated_Source\PSoC4/key_touch_Sensing.c ****     *  This API performs the parameters auto-tuning for the optimal key_touch operation.
1854:Generated_Source\PSoC4/key_touch_Sensing.c ****     *
1855:Generated_Source\PSoC4/key_touch_Sensing.c ****     * \details
1856:Generated_Source\PSoC4/key_touch_Sensing.c ****     *  This API performs the following:
1857:Generated_Source\PSoC4/key_touch_Sensing.c ****     *  - Calibrates Modulator and Compensation IDACs.
1858:Generated_Source\PSoC4/key_touch_Sensing.c ****     *  - Tunes the Sense Clock optimal value to get a Sense Clock period greater than
1859:Generated_Source\PSoC4/key_touch_Sensing.c ****     *     2*5*R*Cp.
1860:Generated_Source\PSoC4/key_touch_Sensing.c ****     *  - Calculates the resolution for the optimal finger capacitance.
1861:Generated_Source\PSoC4/key_touch_Sensing.c ****     *
1862:Generated_Source\PSoC4/key_touch_Sensing.c ****     * \return
1863:Generated_Source\PSoC4/key_touch_Sensing.c ****     *   Returns the status of operation:
1864:Generated_Source\PSoC4/key_touch_Sensing.c ****     *   - Zero     - All the widgets are auto-tuned successfully.
1865:Generated_Source\PSoC4/key_touch_Sensing.c ****     *   - Non-zero - Auto-tuning failed for any widget.
1866:Generated_Source\PSoC4/key_touch_Sensing.c ****     *
1867:Generated_Source\PSoC4/key_touch_Sensing.c ****     *******************************************************************************/
1868:Generated_Source\PSoC4/key_touch_Sensing.c ****     cystatus key_touch_SsAutoTune(void)
1869:Generated_Source\PSoC4/key_touch_Sensing.c ****     {
1870:Generated_Source\PSoC4/key_touch_Sensing.c ****         cystatus autoTuneStatus = CYRET_SUCCESS;
1871:Generated_Source\PSoC4/key_touch_Sensing.c ****         uint32 wdgtIndex;
1872:Generated_Source\PSoC4/key_touch_Sensing.c ****         uint32 cp = 0uL;
1873:Generated_Source\PSoC4/key_touch_Sensing.c ****         #if (key_touch_CSD_MATRIX_WIDGET_EN | key_touch_CSD_TOUCHPAD_WIDGET_EN)
1874:Generated_Source\PSoC4/key_touch_Sensing.c ****             uint32 cpRow = 0uL;
1875:Generated_Source\PSoC4/key_touch_Sensing.c ****         #endif /* (key_touch_CSD_MATRIX_WIDGET_EN | key_touch_CSD_TOUCHPAD_WIDGET_EN) */
1876:Generated_Source\PSoC4/key_touch_Sensing.c ****         key_touch_RAM_WD_BASE_STRUCT *ptrWdgt;
1877:Generated_Source\PSoC4/key_touch_Sensing.c ****         AUTO_TUNE_CONFIG_TYPE autoTuneConfig;
1878:Generated_Source\PSoC4/key_touch_Sensing.c ****         #if (key_touch_ENABLE == key_touch_CSD2X_EN)
1879:Generated_Source\PSoC4/key_touch_Sensing.c ****             uint32 csdBlockID;
1880:Generated_Source\PSoC4/key_touch_Sensing.c ****         #endif /* (key_touch_ENABLE == key_touch_CSD2X_EN) */
1881:Generated_Source\PSoC4/key_touch_Sensing.c **** 
1882:Generated_Source\PSoC4/key_touch_Sensing.c ****         /* Configure common config variables */
1883:Generated_Source\PSoC4/key_touch_Sensing.c ****         autoTuneConfig.snsClkConstantR = key_touch_CSD_SNSCLK_R_CONST;
1884:Generated_Source\PSoC4/key_touch_Sensing.c ****         autoTuneConfig.vRef = key_touch_CSD_VREF_MV;
1885:Generated_Source\PSoC4/key_touch_Sensing.c ****         #if (key_touch_DISABLE == key_touch_CSD2X_EN)
1886:Generated_Source\PSoC4/key_touch_Sensing.c ****             autoTuneConfig.iDacGain = key_touch_CSD_IDAC_GAIN_VALUE_NA * key_touch_CSD_DUAL_IDAC_FA
1887:Generated_Source\PSoC4/key_touch_Sensing.c ****         #endif /* (key_touch_DISABLE == key_touch_CSD2X_EN) */
1888:Generated_Source\PSoC4/key_touch_Sensing.c ****         autoTuneConfig.calTarget = key_touch_CSD_AUTOTUNE_CAL_LEVEL;
1889:Generated_Source\PSoC4/key_touch_Sensing.c **** 
1890:Generated_Source\PSoC4/key_touch_Sensing.c ****         /* Calculate snsClk Input Clock in KHz */
1891:Generated_Source\PSoC4/key_touch_Sensing.c ****         #if (key_touch_ENABLE == key_touch_CSDV2)
1892:Generated_Source\PSoC4/key_touch_Sensing.c ****             /*  Dividers are chained (CSDV2). Flip flop is not available */
1893:Generated_Source\PSoC4/key_touch_Sensing.c ****             autoTuneConfig.snsClkInputClock = (CYDEV_BCLK__HFCLK__KHZ / key_touch_dsRam.modCsdClk);
1894:Generated_Source\PSoC4/key_touch_Sensing.c ****         #elif ((key_touch_ENABLE == key_touch_IS_M0S8PERI_BLOCK) && (key_touch_DISABLE == CY_PSOC4_
1895:Generated_Source\PSoC4/key_touch_Sensing.c ****             /*  Dividers are not chained */
1896:Generated_Source\PSoC4/key_touch_Sensing.c ****             autoTuneConfig.snsClkInputClock = CYDEV_BCLK__HFCLK__KHZ >> key_touch_FLIP_FLOP_DIV;
1897:Generated_Source\PSoC4/key_touch_Sensing.c ****         #elif (key_touch_ENABLE == key_touch_IS_M0S8PERI_BLOCK)
1898:Generated_Source\PSoC4/key_touch_Sensing.c ****             /*  Dividers are not chained (PSoC 4000) */
1899:Generated_Source\PSoC4/key_touch_Sensing.c ****             autoTuneConfig.snsClkInputClock = CYDEV_BCLK__HFCLK__KHZ >> key_touch_FLIP_FLOP_DIV;
1900:Generated_Source\PSoC4/key_touch_Sensing.c ****         #else
1901:Generated_Source\PSoC4/key_touch_Sensing.c ****             /*  Dividers are chained (PSoC 4100, PSoC 4200) */
1902:Generated_Source\PSoC4/key_touch_Sensing.c ****             autoTuneConfig.snsClkInputClock = (CYDEV_BCLK__HFCLK__KHZ / key_touch_dsRam.modCsdClk) 
1903:Generated_Source\PSoC4/key_touch_Sensing.c ****         #endif /* (key_touch_ENABLE == key_touch_CSDV2) */
1904:Generated_Source\PSoC4/key_touch_Sensing.c **** 
1905:Generated_Source\PSoC4/key_touch_Sensing.c ****         /* If both CSD and CSX are enabled, calibrate widget using sensing method */
1906:Generated_Source\PSoC4/key_touch_Sensing.c ****         #if (key_touch_ENABLE == key_touch_CSD_CSX_EN)
ARM GAS  C:\Users\Administrator\AppData\Local\Temp\ccPYRpEO.s 			page 47


1907:Generated_Source\PSoC4/key_touch_Sensing.c ****             /* Initialize CSD mode */
1908:Generated_Source\PSoC4/key_touch_Sensing.c ****             key_touch_SsCSDInitialize();
1909:Generated_Source\PSoC4/key_touch_Sensing.c ****         #endif /* (key_touch_ENABLE == key_touch_CSD_CSX_EN) */
1910:Generated_Source\PSoC4/key_touch_Sensing.c **** 
1911:Generated_Source\PSoC4/key_touch_Sensing.c ****         /* Set flag to calibrate in PWM mode only */
1912:Generated_Source\PSoC4/key_touch_Sensing.c ****         key_touch_prescalersTuningDone = key_touch_DISABLE;
1913:Generated_Source\PSoC4/key_touch_Sensing.c **** 
1914:Generated_Source\PSoC4/key_touch_Sensing.c ****         /* Switch charge clock source to direct clock mode */
1915:Generated_Source\PSoC4/key_touch_Sensing.c ****         #if (key_touch_ENABLE == key_touch_CSD2X_EN)
1916:Generated_Source\PSoC4/key_touch_Sensing.c ****             key_touch_SsSetCSD0DirectClockMode();
1917:Generated_Source\PSoC4/key_touch_Sensing.c ****             key_touch_SsSetCSD1DirectClockMode();
1918:Generated_Source\PSoC4/key_touch_Sensing.c ****         #else
1919:Generated_Source\PSoC4/key_touch_Sensing.c ****             key_touch_SsSetDirectClockMode();
1920:Generated_Source\PSoC4/key_touch_Sensing.c ****         #endif /* (key_touch_ENABLE == key_touch_CSD2X_EN) */
1921:Generated_Source\PSoC4/key_touch_Sensing.c **** 
1922:Generated_Source\PSoC4/key_touch_Sensing.c **** 
1923:Generated_Source\PSoC4/key_touch_Sensing.c ****         /* Tune sense clock for all widgets */
1924:Generated_Source\PSoC4/key_touch_Sensing.c ****         for (wdgtIndex = 0u; wdgtIndex < key_touch_TOTAL_WIDGETS; wdgtIndex++)
1925:Generated_Source\PSoC4/key_touch_Sensing.c ****         {
1926:Generated_Source\PSoC4/key_touch_Sensing.c ****             if (key_touch_SENSE_METHOD_CSD_E ==
1927:Generated_Source\PSoC4/key_touch_Sensing.c ****                 key_touch_GET_SENSE_METHOD(&key_touch_dsFlash.wdgtArray[wdgtIndex]))
1928:Generated_Source\PSoC4/key_touch_Sensing.c ****             {
1929:Generated_Source\PSoC4/key_touch_Sensing.c ****                 ptrWdgt = (key_touch_RAM_WD_BASE_STRUCT *)
1930:Generated_Source\PSoC4/key_touch_Sensing.c ****                           key_touch_dsFlash.wdgtArray[wdgtIndex].ptr2WdgtRam;
1931:Generated_Source\PSoC4/key_touch_Sensing.c **** 
1932:Generated_Source\PSoC4/key_touch_Sensing.c ****                 #if (key_touch_ENABLE == key_touch_CSD2X_EN)
1933:Generated_Source\PSoC4/key_touch_Sensing.c ****                     csdBlockID = key_touch_dsFlash.wdgtArray[wdgtIndex].csdblk;
1934:Generated_Source\PSoC4/key_touch_Sensing.c **** 
1935:Generated_Source\PSoC4/key_touch_Sensing.c ****                     if (key_touch_CSD0_BLOCK_ID == csdBlockID)
1936:Generated_Source\PSoC4/key_touch_Sensing.c ****                     {
1937:Generated_Source\PSoC4/key_touch_Sensing.c ****                         autoTuneConfig.iDacGain = key_touch_CSD0_IDAC_GAIN_VALUE_NA * key_touch_CSD
1938:Generated_Source\PSoC4/key_touch_Sensing.c ****                     }
1939:Generated_Source\PSoC4/key_touch_Sensing.c ****                     else
1940:Generated_Source\PSoC4/key_touch_Sensing.c ****                     {
1941:Generated_Source\PSoC4/key_touch_Sensing.c ****                         autoTuneConfig.iDacGain = key_touch_CSD1_IDAC_GAIN_VALUE_NA * key_touch_CSD
1942:Generated_Source\PSoC4/key_touch_Sensing.c ****                     }
1943:Generated_Source\PSoC4/key_touch_Sensing.c ****                 #endif /* (key_touch_ENABLE == key_touch_CSD2X_EN) */
1944:Generated_Source\PSoC4/key_touch_Sensing.c **** 
1945:Generated_Source\PSoC4/key_touch_Sensing.c ****                 /* Set calibration resolution to 12 bits */
1946:Generated_Source\PSoC4/key_touch_Sensing.c ****                 ptrWdgt->resolution = key_touch_CALIBRATION_RESOLUTION;
1947:Generated_Source\PSoC4/key_touch_Sensing.c **** 
1948:Generated_Source\PSoC4/key_touch_Sensing.c ****                 /* Set Sense clock frequency to 1.5 MHz */
1949:Generated_Source\PSoC4/key_touch_Sensing.c ****                 #if (key_touch_ENABLE == key_touch_CSD_COMMON_SNS_CLK_EN)
1950:Generated_Source\PSoC4/key_touch_Sensing.c ****                     key_touch_dsRam.snsCsdClk = (uint8)((uint32)autoTuneConfig.snsClkInputClock /
1951:Generated_Source\PSoC4/key_touch_Sensing.c ****                                                        key_touch_CALIBRATION_FREQ_KHZ);
1952:Generated_Source\PSoC4/key_touch_Sensing.c ****                 #elif (key_touch_CSD_MATRIX_WIDGET_EN | key_touch_CSD_TOUCHPAD_WIDGET_EN)
1953:Generated_Source\PSoC4/key_touch_Sensing.c ****                     if ((key_touch_WD_TOUCHPAD_E == (key_touch_WD_TYPE_ENUM)key_touch_dsFlash.wdgtA
1954:Generated_Source\PSoC4/key_touch_Sensing.c ****                         (key_touch_WD_MATRIX_BUTTON_E == (key_touch_WD_TYPE_ENUM)key_touch_dsFlash.
1955:Generated_Source\PSoC4/key_touch_Sensing.c ****                     {
1956:Generated_Source\PSoC4/key_touch_Sensing.c ****                         ptrWdgt->rowSnsClk = (uint8)((uint32)autoTuneConfig.snsClkInputClock /
1957:Generated_Source\PSoC4/key_touch_Sensing.c ****                                              key_touch_CALIBRATION_FREQ_KHZ);
1958:Generated_Source\PSoC4/key_touch_Sensing.c ****                     }
1959:Generated_Source\PSoC4/key_touch_Sensing.c ****                     ptrWdgt->snsClk = (uint8)((uint32)autoTuneConfig.snsClkInputClock /
1960:Generated_Source\PSoC4/key_touch_Sensing.c ****                                       key_touch_CALIBRATION_FREQ_KHZ);
1961:Generated_Source\PSoC4/key_touch_Sensing.c ****                 #else
1962:Generated_Source\PSoC4/key_touch_Sensing.c ****                     ptrWdgt->snsClk = (uint8)((uint32)autoTuneConfig.snsClkInputClock /
1963:Generated_Source\PSoC4/key_touch_Sensing.c ****                                       key_touch_CALIBRATION_FREQ_KHZ);
ARM GAS  C:\Users\Administrator\AppData\Local\Temp\ccPYRpEO.s 			page 48


1964:Generated_Source\PSoC4/key_touch_Sensing.c ****                 #endif /*  (key_touch_ENABLE == key_touch_CSD_COMMON_SNS_CLK_EN) */
1965:Generated_Source\PSoC4/key_touch_Sensing.c **** 
1966:Generated_Source\PSoC4/key_touch_Sensing.c ****                 /* Calibrate CSD widget to 85% */
1967:Generated_Source\PSoC4/key_touch_Sensing.c ****                 #if (key_touch_ENABLE == key_touch_CSD2X_EN)
1968:Generated_Source\PSoC4/key_touch_Sensing.c ****                     (void)key_touch_CSD2XCalibrateWidget(wdgtIndex, key_touch_CSD_AUTOTUNE_CAL_LEVE
1969:Generated_Source\PSoC4/key_touch_Sensing.c ****                 #else
1970:Generated_Source\PSoC4/key_touch_Sensing.c ****                     (void)key_touch_CSDCalibrateWidget(wdgtIndex, key_touch_CSD_AUTOTUNE_CAL_LEVEL)
1971:Generated_Source\PSoC4/key_touch_Sensing.c ****                 #endif /* (key_touch_ENABLE == key_touch_CSD2X_EN) */
1972:Generated_Source\PSoC4/key_touch_Sensing.c **** 
1973:Generated_Source\PSoC4/key_touch_Sensing.c ****                 #if (key_touch_CSD_MATRIX_WIDGET_EN | key_touch_CSD_TOUCHPAD_WIDGET_EN)
1974:Generated_Source\PSoC4/key_touch_Sensing.c ****                     if ((key_touch_WD_TOUCHPAD_E == (key_touch_WD_TYPE_ENUM)key_touch_dsFlash.wdgtA
1975:Generated_Source\PSoC4/key_touch_Sensing.c ****                         (key_touch_WD_MATRIX_BUTTON_E == (key_touch_WD_TYPE_ENUM)key_touch_dsFlash.
1976:Generated_Source\PSoC4/key_touch_Sensing.c ****                     {
1977:Generated_Source\PSoC4/key_touch_Sensing.c ****                         /* Get pointer to Modulator IDAC for columns */
1978:Generated_Source\PSoC4/key_touch_Sensing.c ****                         autoTuneConfig.ptrModIDAC = &ptrWdgt->rowIdacMod[0u];
1979:Generated_Source\PSoC4/key_touch_Sensing.c **** 
1980:Generated_Source\PSoC4/key_touch_Sensing.c ****                         /* Get pointer to Sense Clock Divider for columns */
1981:Generated_Source\PSoC4/key_touch_Sensing.c ****                         autoTuneConfig.ptrSenseClk = &ptrWdgt->rowSnsClk;
1982:Generated_Source\PSoC4/key_touch_Sensing.c **** 
1983:Generated_Source\PSoC4/key_touch_Sensing.c ****                         /* Find correct sense clock value */
1984:Generated_Source\PSoC4/key_touch_Sensing.c ****                         cpRow = SmartSense_TunePrescalers(&autoTuneConfig);
1985:Generated_Source\PSoC4/key_touch_Sensing.c **** 
1986:Generated_Source\PSoC4/key_touch_Sensing.c ****                         if ((key_touch_CP_MAX + key_touch_CP_ERROR) <= cpRow)
1987:Generated_Source\PSoC4/key_touch_Sensing.c ****                         {
1988:Generated_Source\PSoC4/key_touch_Sensing.c ****                             autoTuneStatus = CYRET_BAD_DATA;
1989:Generated_Source\PSoC4/key_touch_Sensing.c ****                         }
1990:Generated_Source\PSoC4/key_touch_Sensing.c **** 
1991:Generated_Source\PSoC4/key_touch_Sensing.c ****                         #if (key_touch_ENABLE == key_touch_CSDV2)
1992:Generated_Source\PSoC4/key_touch_Sensing.c ****                             /* Make sure that ModClk >= 4 * rowSnsClk for ModClk <= 12 MHz and rowS
1993:Generated_Source\PSoC4/key_touch_Sensing.c ****                             if (autoTuneConfig.snsClkInputClock <= key_touch_MOD_CSD_CLK_24000KHZ)
1994:Generated_Source\PSoC4/key_touch_Sensing.c ****                             {
1995:Generated_Source\PSoC4/key_touch_Sensing.c ****                                 if (ptrWdgt->rowSnsClk < key_touch_FACTOR_FILTER_DELAY_12MHZ)
1996:Generated_Source\PSoC4/key_touch_Sensing.c ****                                 {
1997:Generated_Source\PSoC4/key_touch_Sensing.c ****                                     ptrWdgt->rowSnsClk = key_touch_FACTOR_FILTER_DELAY_12MHZ;
1998:Generated_Source\PSoC4/key_touch_Sensing.c ****                                 }
1999:Generated_Source\PSoC4/key_touch_Sensing.c ****                             }
2000:Generated_Source\PSoC4/key_touch_Sensing.c ****                             else if (autoTuneConfig.snsClkInputClock <= key_touch_MOD_CSD_CLK_48000
2001:Generated_Source\PSoC4/key_touch_Sensing.c ****                             {
2002:Generated_Source\PSoC4/key_touch_Sensing.c ****                                 if (ptrWdgt->rowSnsClk < key_touch_FACTOR_MOD_SNS)
2003:Generated_Source\PSoC4/key_touch_Sensing.c ****                                 {
2004:Generated_Source\PSoC4/key_touch_Sensing.c ****                                     ptrWdgt->rowSnsClk = key_touch_FACTOR_MOD_SNS;
2005:Generated_Source\PSoC4/key_touch_Sensing.c ****                                 }
2006:Generated_Source\PSoC4/key_touch_Sensing.c ****                             }
2007:Generated_Source\PSoC4/key_touch_Sensing.c ****                             else
2008:Generated_Source\PSoC4/key_touch_Sensing.c ****                             {
2009:Generated_Source\PSoC4/key_touch_Sensing.c ****                                 /* rowSnsClk is valid*/
2010:Generated_Source\PSoC4/key_touch_Sensing.c ****                             }
2011:Generated_Source\PSoC4/key_touch_Sensing.c ****                         #else
2012:Generated_Source\PSoC4/key_touch_Sensing.c ****                             #if (key_touch_ENABLE == key_touch_IS_M0S8PERI_BLOCK)
2013:Generated_Source\PSoC4/key_touch_Sensing.c ****                                 /* Make sure that ModClk >= 2 * rowSnsClk */
2014:Generated_Source\PSoC4/key_touch_Sensing.c ****                                 if (key_touch_dsRam.modCsdClk >= ((uint8)(ptrWdgt->rowSnsClk << key
2015:Generated_Source\PSoC4/key_touch_Sensing.c ****                                 {
2016:Generated_Source\PSoC4/key_touch_Sensing.c ****                                      ptrWdgt->rowSnsClk = key_touch_dsRam.modCsdClk;
2017:Generated_Source\PSoC4/key_touch_Sensing.c ****                                 }
2018:Generated_Source\PSoC4/key_touch_Sensing.c ****                             #else
2019:Generated_Source\PSoC4/key_touch_Sensing.c ****                                 /* Sense clock never equals to Modulator clock for chained dividers
2020:Generated_Source\PSoC4/key_touch_Sensing.c ****                             #endif /* (key_touch_ENABLE == key_touch_CSDV2) */
ARM GAS  C:\Users\Administrator\AppData\Local\Temp\ccPYRpEO.s 			page 49


2021:Generated_Source\PSoC4/key_touch_Sensing.c ****                         #endif /* (key_touch_ENABLE == key_touch_CSDV2) */
2022:Generated_Source\PSoC4/key_touch_Sensing.c ****                     }
2023:Generated_Source\PSoC4/key_touch_Sensing.c ****                 #endif /* (key_touch_CSD_MATRIX_WIDGET_EN | key_touch_CSD_TOUCHPAD_WIDGET_EN) */
2024:Generated_Source\PSoC4/key_touch_Sensing.c **** 
2025:Generated_Source\PSoC4/key_touch_Sensing.c ****                 /* Get pointer to Modulator IDAC  for rows */
2026:Generated_Source\PSoC4/key_touch_Sensing.c ****                 autoTuneConfig.ptrModIDAC = &ptrWdgt->idacMod[0u];
2027:Generated_Source\PSoC4/key_touch_Sensing.c **** 
2028:Generated_Source\PSoC4/key_touch_Sensing.c ****                 /* Get pointer to Sense Clock Divider for columns */
2029:Generated_Source\PSoC4/key_touch_Sensing.c ****                 autoTuneConfig.ptrSenseClk = &ptrWdgt->snsClk;
2030:Generated_Source\PSoC4/key_touch_Sensing.c **** 
2031:Generated_Source\PSoC4/key_touch_Sensing.c ****                 /* Find correct sense clock value */
2032:Generated_Source\PSoC4/key_touch_Sensing.c ****                 cp = SmartSense_TunePrescalers(&autoTuneConfig);
2033:Generated_Source\PSoC4/key_touch_Sensing.c **** 
2034:Generated_Source\PSoC4/key_touch_Sensing.c ****                 if ((key_touch_CP_MAX + key_touch_CP_ERROR) <= cp)
2035:Generated_Source\PSoC4/key_touch_Sensing.c ****                 {
2036:Generated_Source\PSoC4/key_touch_Sensing.c ****                     autoTuneStatus = CYRET_BAD_DATA;
2037:Generated_Source\PSoC4/key_touch_Sensing.c ****                 }
2038:Generated_Source\PSoC4/key_touch_Sensing.c **** 
2039:Generated_Source\PSoC4/key_touch_Sensing.c ****                 #if (key_touch_ENABLE == key_touch_CSDV2)
2040:Generated_Source\PSoC4/key_touch_Sensing.c ****                     /* Make sure that ModClk >= 4 * SnsClk for ModClk <= 12 MHz and SnsClk <= 6MHz 
2041:Generated_Source\PSoC4/key_touch_Sensing.c ****                     if (autoTuneConfig.snsClkInputClock <= key_touch_MOD_CSD_CLK_24000KHZ)
2042:Generated_Source\PSoC4/key_touch_Sensing.c ****                     {
2043:Generated_Source\PSoC4/key_touch_Sensing.c ****                         if (ptrWdgt->snsClk < key_touch_FACTOR_FILTER_DELAY_12MHZ)
2044:Generated_Source\PSoC4/key_touch_Sensing.c ****                         {
2045:Generated_Source\PSoC4/key_touch_Sensing.c ****                             ptrWdgt->snsClk = key_touch_FACTOR_FILTER_DELAY_12MHZ;
2046:Generated_Source\PSoC4/key_touch_Sensing.c ****                         }
2047:Generated_Source\PSoC4/key_touch_Sensing.c ****                     }
2048:Generated_Source\PSoC4/key_touch_Sensing.c ****                     else if (autoTuneConfig.snsClkInputClock <= key_touch_MOD_CSD_CLK_48000KHZ)
2049:Generated_Source\PSoC4/key_touch_Sensing.c ****                     {
2050:Generated_Source\PSoC4/key_touch_Sensing.c ****                         if (ptrWdgt->snsClk < key_touch_FACTOR_MOD_SNS)
2051:Generated_Source\PSoC4/key_touch_Sensing.c ****                         {
2052:Generated_Source\PSoC4/key_touch_Sensing.c ****                             ptrWdgt->snsClk = key_touch_FACTOR_MOD_SNS;
2053:Generated_Source\PSoC4/key_touch_Sensing.c ****                         }
2054:Generated_Source\PSoC4/key_touch_Sensing.c ****                     }
2055:Generated_Source\PSoC4/key_touch_Sensing.c ****                     else
2056:Generated_Source\PSoC4/key_touch_Sensing.c ****                     {
2057:Generated_Source\PSoC4/key_touch_Sensing.c ****                         /* SnsClk is valid*/
2058:Generated_Source\PSoC4/key_touch_Sensing.c ****                     }
2059:Generated_Source\PSoC4/key_touch_Sensing.c ****                 #else
2060:Generated_Source\PSoC4/key_touch_Sensing.c ****                     #if (key_touch_ENABLE == key_touch_IS_M0S8PERI_BLOCK)
2061:Generated_Source\PSoC4/key_touch_Sensing.c ****                         /* Make sure that ModClk >= 2 * snsClk */
2062:Generated_Source\PSoC4/key_touch_Sensing.c ****                         if (key_touch_dsRam.modCsdClk >= ((uint8)(ptrWdgt->snsClk << key_touch_FLIP
2063:Generated_Source\PSoC4/key_touch_Sensing.c ****                         {
2064:Generated_Source\PSoC4/key_touch_Sensing.c ****                              ptrWdgt->snsClk = key_touch_dsRam.modCsdClk;
2065:Generated_Source\PSoC4/key_touch_Sensing.c ****                         }
2066:Generated_Source\PSoC4/key_touch_Sensing.c ****                     #else
2067:Generated_Source\PSoC4/key_touch_Sensing.c ****                         /* Sense clock never equals to Modulator clock for chained dividers because
2068:Generated_Source\PSoC4/key_touch_Sensing.c ****                     #endif /* (key_touch_ENABLE == key_touch_CSDV2) */
2069:Generated_Source\PSoC4/key_touch_Sensing.c ****                 #endif /* (key_touch_ENABLE == key_touch_CSDV2) */
2070:Generated_Source\PSoC4/key_touch_Sensing.c ****             }
2071:Generated_Source\PSoC4/key_touch_Sensing.c ****         }
2072:Generated_Source\PSoC4/key_touch_Sensing.c **** 
2073:Generated_Source\PSoC4/key_touch_Sensing.c ****         #if (key_touch_ENABLE == key_touch_CSD2X_EN)
2074:Generated_Source\PSoC4/key_touch_Sensing.c ****             key_touch_SsSetEqualSlotClock();
2075:Generated_Source\PSoC4/key_touch_Sensing.c ****         #endif /* (key_touch_ENABLE == key_touch_CSD2X_EN) */
2076:Generated_Source\PSoC4/key_touch_Sensing.c **** 
2077:Generated_Source\PSoC4/key_touch_Sensing.c ****         /* Set flag to indicate that calibration in PWM mode has been performed */
ARM GAS  C:\Users\Administrator\AppData\Local\Temp\ccPYRpEO.s 			page 50


2078:Generated_Source\PSoC4/key_touch_Sensing.c ****         key_touch_prescalersTuningDone = 1u;
2079:Generated_Source\PSoC4/key_touch_Sensing.c **** 
2080:Generated_Source\PSoC4/key_touch_Sensing.c ****         /* Multiply Clk divider to 2 for PRS mode to take into account average PRS frequency */
2081:Generated_Source\PSoC4/key_touch_Sensing.c ****         autoTuneConfig.prsFactor = key_touch_PRS_FACTOR_DIV;
2082:Generated_Source\PSoC4/key_touch_Sensing.c **** 
2083:Generated_Source\PSoC4/key_touch_Sensing.c ****         /* Tune sensitivity and resolution for all widgets */
2084:Generated_Source\PSoC4/key_touch_Sensing.c ****         for (wdgtIndex = 0u; wdgtIndex < key_touch_TOTAL_WIDGETS; wdgtIndex++)
2085:Generated_Source\PSoC4/key_touch_Sensing.c ****         {
2086:Generated_Source\PSoC4/key_touch_Sensing.c ****             if (key_touch_SENSE_METHOD_CSD_E ==
2087:Generated_Source\PSoC4/key_touch_Sensing.c ****                 key_touch_GET_SENSE_METHOD(&key_touch_dsFlash.wdgtArray[wdgtIndex]))
2088:Generated_Source\PSoC4/key_touch_Sensing.c ****             {
2089:Generated_Source\PSoC4/key_touch_Sensing.c ****                 ptrWdgt = (key_touch_RAM_WD_BASE_STRUCT *)
2090:Generated_Source\PSoC4/key_touch_Sensing.c ****                           key_touch_dsFlash.wdgtArray[wdgtIndex].ptr2WdgtRam;
2091:Generated_Source\PSoC4/key_touch_Sensing.c **** 
2092:Generated_Source\PSoC4/key_touch_Sensing.c ****                 /* Get pointer to Modulator IDAC for rows */
2093:Generated_Source\PSoC4/key_touch_Sensing.c ****                 autoTuneConfig.ptrModIDAC = &ptrWdgt->idacMod[0u];
2094:Generated_Source\PSoC4/key_touch_Sensing.c **** 
2095:Generated_Source\PSoC4/key_touch_Sensing.c ****                 /* Get pointer to maximum Sense Clock Divider (column or row) */
2096:Generated_Source\PSoC4/key_touch_Sensing.c ****                 autoTuneConfig.ptrSenseClk = &ptrWdgt->snsClk;
2097:Generated_Source\PSoC4/key_touch_Sensing.c **** 
2098:Generated_Source\PSoC4/key_touch_Sensing.c ****                 /* Set parasitic capacitance for columns */
2099:Generated_Source\PSoC4/key_touch_Sensing.c ****                 autoTuneConfig.sensorCap = cp;
2100:Generated_Source\PSoC4/key_touch_Sensing.c **** 
2101:Generated_Source\PSoC4/key_touch_Sensing.c ****                 #if (key_touch_CSD_MATRIX_WIDGET_EN | key_touch_CSD_TOUCHPAD_WIDGET_EN)
2102:Generated_Source\PSoC4/key_touch_Sensing.c ****                     if ((key_touch_WD_TOUCHPAD_E == (key_touch_WD_TYPE_ENUM)key_touch_dsFlash.wdgtA
2103:Generated_Source\PSoC4/key_touch_Sensing.c ****                         (key_touch_WD_MATRIX_BUTTON_E == (key_touch_WD_TYPE_ENUM)key_touch_dsFlash.
2104:Generated_Source\PSoC4/key_touch_Sensing.c **** 
2105:Generated_Source\PSoC4/key_touch_Sensing.c ****                     {
2106:Generated_Source\PSoC4/key_touch_Sensing.c ****                         /* Set the minimum sense clock frequency to calculate the resolution */
2107:Generated_Source\PSoC4/key_touch_Sensing.c ****                         if (ptrWdgt->snsClk < ptrWdgt->rowSnsClk)
2108:Generated_Source\PSoC4/key_touch_Sensing.c ****                         {
2109:Generated_Source\PSoC4/key_touch_Sensing.c ****                             /* Rewrite pointer to Sense Clock Divider for rows */
2110:Generated_Source\PSoC4/key_touch_Sensing.c ****                             autoTuneConfig.ptrSenseClk = &ptrWdgt->rowSnsClk;
2111:Generated_Source\PSoC4/key_touch_Sensing.c **** 
2112:Generated_Source\PSoC4/key_touch_Sensing.c ****                             /* Set parasitic capacitance for rows */
2113:Generated_Source\PSoC4/key_touch_Sensing.c ****                             autoTuneConfig.sensorCap = cpRow;
2114:Generated_Source\PSoC4/key_touch_Sensing.c ****                         }
2115:Generated_Source\PSoC4/key_touch_Sensing.c ****                     }
2116:Generated_Source\PSoC4/key_touch_Sensing.c ****                 #endif /* (key_touch_CSD_MATRIX_WIDGET_EN | key_touch_CSD_TOUCHPAD_WIDGET_EN) */
2117:Generated_Source\PSoC4/key_touch_Sensing.c **** 
2118:Generated_Source\PSoC4/key_touch_Sensing.c ****                 /* Get finger capacitance */
2119:Generated_Source\PSoC4/key_touch_Sensing.c ****                 autoTuneConfig.fingerCap = ptrWdgt->fingerCap;
2120:Generated_Source\PSoC4/key_touch_Sensing.c **** 
2121:Generated_Source\PSoC4/key_touch_Sensing.c ****                 /* Init pointer to sigPFC */
2122:Generated_Source\PSoC4/key_touch_Sensing.c ****                 autoTuneConfig.sigPFC = &ptrWdgt->sigPFC;
2123:Generated_Source\PSoC4/key_touch_Sensing.c **** 
2124:Generated_Source\PSoC4/key_touch_Sensing.c ****                 #if (key_touch_CLK_SOURCE_PRSAUTO == key_touch_CSD_SNS_CLK_SOURCE)
2125:Generated_Source\PSoC4/key_touch_Sensing.c ****                     key_touch_SsSetWidgetSenseClkSrc(wdgtIndex, ptrWdgt);
2126:Generated_Source\PSoC4/key_touch_Sensing.c ****                 #endif /* (key_touch_CLK_SOURCE_PRSAUTO == key_touch_CSD_SNS_CLK_SOURCE) */
2127:Generated_Source\PSoC4/key_touch_Sensing.c **** 
2128:Generated_Source\PSoC4/key_touch_Sensing.c ****                 /* Calibrate CSD widget to 85% */
2129:Generated_Source\PSoC4/key_touch_Sensing.c ****                 #if (key_touch_ENABLE == key_touch_CSD2X_EN)
2130:Generated_Source\PSoC4/key_touch_Sensing.c ****                     autoTuneStatus |=key_touch_CSD2XCalibrateWidget(wdgtIndex, key_touch_CSD_AUTOTU
2131:Generated_Source\PSoC4/key_touch_Sensing.c ****                 #else
2132:Generated_Source\PSoC4/key_touch_Sensing.c ****                     autoTuneStatus |= key_touch_CSDCalibrateWidget(wdgtIndex, key_touch_CSD_AUTOTUN
2133:Generated_Source\PSoC4/key_touch_Sensing.c ****                 #endif /* (key_touch_ENABLE == key_touch_CSD2X_EN) */
2134:Generated_Source\PSoC4/key_touch_Sensing.c **** 
ARM GAS  C:\Users\Administrator\AppData\Local\Temp\ccPYRpEO.s 			page 51


2135:Generated_Source\PSoC4/key_touch_Sensing.c ****                 /* Find resolution */
2136:Generated_Source\PSoC4/key_touch_Sensing.c ****                 ptrWdgt->resolution = SmartSense_TuneSensitivity(&autoTuneConfig);
2137:Generated_Source\PSoC4/key_touch_Sensing.c **** 
2138:Generated_Source\PSoC4/key_touch_Sensing.c ****                 #if (key_touch_CLK_SOURCE_PRSAUTO == key_touch_CSD_SNS_CLK_SOURCE)
2139:Generated_Source\PSoC4/key_touch_Sensing.c ****                     key_touch_SsSetWidgetSenseClkSrc(wdgtIndex, ptrWdgt);
2140:Generated_Source\PSoC4/key_touch_Sensing.c **** 
2141:Generated_Source\PSoC4/key_touch_Sensing.c ****                     #if (key_touch_CSD_MATRIX_WIDGET_EN | key_touch_CSD_TOUCHPAD_WIDGET_EN)
2142:Generated_Source\PSoC4/key_touch_Sensing.c ****                         if (((uint8)key_touch_CLK_SOURCE_DIRECT == ptrWdgt->snsClkSource) ||
2143:Generated_Source\PSoC4/key_touch_Sensing.c ****                             ((uint8)key_touch_CLK_SOURCE_DIRECT == ptrWdgt->rowSnsClkSource))
2144:Generated_Source\PSoC4/key_touch_Sensing.c ****                         {
2145:Generated_Source\PSoC4/key_touch_Sensing.c ****                             /* Recalibrate CSD widget to 85% because source is changed to direct */
2146:Generated_Source\PSoC4/key_touch_Sensing.c ****                             #if (key_touch_ENABLE == key_touch_CSD2X_EN)
2147:Generated_Source\PSoC4/key_touch_Sensing.c ****                                 autoTuneStatus |= key_touch_CSD2XCalibrateWidget(wdgtIndex, key_tou
2148:Generated_Source\PSoC4/key_touch_Sensing.c ****                             #else
2149:Generated_Source\PSoC4/key_touch_Sensing.c ****                                 autoTuneStatus |= key_touch_CSDCalibrateWidget(wdgtIndex, key_touch
2150:Generated_Source\PSoC4/key_touch_Sensing.c ****                             #endif /* (key_touch_ENABLE == key_touch_CSD2X_EN) */
2151:Generated_Source\PSoC4/key_touch_Sensing.c ****                         }
2152:Generated_Source\PSoC4/key_touch_Sensing.c ****                     #else
2153:Generated_Source\PSoC4/key_touch_Sensing.c ****                         if ((uint8)key_touch_CLK_SOURCE_DIRECT == ptrWdgt->snsClkSource)
2154:Generated_Source\PSoC4/key_touch_Sensing.c ****                         {
2155:Generated_Source\PSoC4/key_touch_Sensing.c ****                             /* Recalibrate CSD widget to 85% because source is changed to direct */
2156:Generated_Source\PSoC4/key_touch_Sensing.c ****                             #if (key_touch_ENABLE == key_touch_CSD2X_EN)
2157:Generated_Source\PSoC4/key_touch_Sensing.c ****                                 autoTuneStatus |= key_touch_CSD2XCalibrateWidget(wdgtIndex, key_tou
2158:Generated_Source\PSoC4/key_touch_Sensing.c ****                             #else
2159:Generated_Source\PSoC4/key_touch_Sensing.c ****                                 autoTuneStatus |= key_touch_CSDCalibrateWidget(wdgtIndex, key_touch
2160:Generated_Source\PSoC4/key_touch_Sensing.c ****                             #endif /* (key_touch_ENABLE == key_touch_CSD2X_EN) */
2161:Generated_Source\PSoC4/key_touch_Sensing.c ****                         }
2162:Generated_Source\PSoC4/key_touch_Sensing.c ****                     #endif /* (key_touch_CSD_MATRIX_WIDGET_EN | key_touch_CSD_TOUCHPAD_WIDGET_EN) *
2163:Generated_Source\PSoC4/key_touch_Sensing.c ****                 #endif /* (key_touch_CLK_SOURCE_PRSAUTO == key_touch_CSD_SNS_CLK_SOURCE) */
2164:Generated_Source\PSoC4/key_touch_Sensing.c ****                 
2165:Generated_Source\PSoC4/key_touch_Sensing.c ****                 #if (key_touch_ENABLE == key_touch_TST_WDGT_CRC_EN)
2166:Generated_Source\PSoC4/key_touch_Sensing.c ****                     key_touch_DsUpdateWidgetCrc(wdgtIndex);
2167:Generated_Source\PSoC4/key_touch_Sensing.c ****                 #endif /* (key_touch_ENABLE == key_touch_TST_WDGT_CRC_EN) */
2168:Generated_Source\PSoC4/key_touch_Sensing.c ****             }
2169:Generated_Source\PSoC4/key_touch_Sensing.c ****         }
2170:Generated_Source\PSoC4/key_touch_Sensing.c **** 
2171:Generated_Source\PSoC4/key_touch_Sensing.c ****         return autoTuneStatus;
2172:Generated_Source\PSoC4/key_touch_Sensing.c ****     }
2173:Generated_Source\PSoC4/key_touch_Sensing.c **** #endif /* (key_touch_CSD_SS_DIS != key_touch_CSD_AUTOTUNE)) */
2174:Generated_Source\PSoC4/key_touch_Sensing.c **** 
2175:Generated_Source\PSoC4/key_touch_Sensing.c **** 
2176:Generated_Source\PSoC4/key_touch_Sensing.c **** #if (key_touch_DISABLE == key_touch_CSDV2)
2177:Generated_Source\PSoC4/key_touch_Sensing.c ****     #if ((key_touch_ENABLE == key_touch_CSX_EN) || \
2178:Generated_Source\PSoC4/key_touch_Sensing.c ****          (key_touch_IDAC_SINKING == key_touch_CSD_IDAC_CONFIG))
2179:Generated_Source\PSoC4/key_touch_Sensing.c ****         /*******************************************************************************
2180:Generated_Source\PSoC4/key_touch_Sensing.c ****         * Function Name: key_touch_SsTrimIdacsSinking
2181:Generated_Source\PSoC4/key_touch_Sensing.c ****         ****************************************************************************//**
2182:Generated_Source\PSoC4/key_touch_Sensing.c ****         *
2183:Generated_Source\PSoC4/key_touch_Sensing.c ****         * \brief
2184:Generated_Source\PSoC4/key_touch_Sensing.c ****         *  This function loads trim values from SFLASH rows to calibrate
2185:Generated_Source\PSoC4/key_touch_Sensing.c ****         *  IDAC1 and IDAC2 for Sinking CSD Mode
2186:Generated_Source\PSoC4/key_touch_Sensing.c ****         *
2187:Generated_Source\PSoC4/key_touch_Sensing.c ****         * \details
2188:Generated_Source\PSoC4/key_touch_Sensing.c ****         *  Function reads trim value from SFLASH and loads it into IDAC trim register.
2189:Generated_Source\PSoC4/key_touch_Sensing.c ****         *  If Compensation IDAC is disabled the function loads trim values for IDAC1 only.
2190:Generated_Source\PSoC4/key_touch_Sensing.c ****         *
2191:Generated_Source\PSoC4/key_touch_Sensing.c ****         *******************************************************************************/
ARM GAS  C:\Users\Administrator\AppData\Local\Temp\ccPYRpEO.s 			page 52


2192:Generated_Source\PSoC4/key_touch_Sensing.c ****         static void key_touch_SsTrimIdacsSinking(void)
2193:Generated_Source\PSoC4/key_touch_Sensing.c ****         {
2194:Generated_Source\PSoC4/key_touch_Sensing.c ****             uint32 trimValue;
2195:Generated_Source\PSoC4/key_touch_Sensing.c **** 
2196:Generated_Source\PSoC4/key_touch_Sensing.c ****             #if (key_touch_ENABLE == key_touch_CSD2X_EN)
2197:Generated_Source\PSoC4/key_touch_Sensing.c **** 
2198:Generated_Source\PSoC4/key_touch_Sensing.c ****                 /* iDAC0 Sinking Mode */
2199:Generated_Source\PSoC4/key_touch_Sensing.c ****                 trimValue = CY_GET_REG32(key_touch_CSD0_TRIM2_PTR) & ~key_touch_IDAC_TRIM2_MOD_SNK_
2200:Generated_Source\PSoC4/key_touch_Sensing.c ****                 trimValue |= ((uint32)CY_GET_REG8(key_touch_CSD0_SFLASH_TRIM2_PTR) &
2201:Generated_Source\PSoC4/key_touch_Sensing.c ****                                                           key_touch_SFLASH_TRIM_IDAC_MOD_MASK) ;
2202:Generated_Source\PSoC4/key_touch_Sensing.c **** 
2203:Generated_Source\PSoC4/key_touch_Sensing.c ****                 #if (key_touch_ENABLE == key_touch_CSD_IDAC_COMP_EN)
2204:Generated_Source\PSoC4/key_touch_Sensing.c ****                     /* iDAC1 Sinking Mode */
2205:Generated_Source\PSoC4/key_touch_Sensing.c ****                     trimValue &= ~key_touch_IDAC_TRIM2_COMP_SNK_MASK;
2206:Generated_Source\PSoC4/key_touch_Sensing.c ****                     trimValue |= ((uint32)CY_GET_REG8(key_touch_CSD0_SFLASH_TRIM2_PTR) &
2207:Generated_Source\PSoC4/key_touch_Sensing.c ****                                                               key_touch_SFLASH_TRIM_IDAC_COMP_MASK)
2208:Generated_Source\PSoC4/key_touch_Sensing.c ****                 #endif /* (key_touch_ENABLE == key_touch_CSD_IDAC_COMP_EN) */
2209:Generated_Source\PSoC4/key_touch_Sensing.c **** 
2210:Generated_Source\PSoC4/key_touch_Sensing.c ****                 /* Update IDAC trim bits for gain control in current sink mode */
2211:Generated_Source\PSoC4/key_touch_Sensing.c ****                 CY_SET_REG32(key_touch_CSD0_TRIM2_PTR, trimValue);
2212:Generated_Source\PSoC4/key_touch_Sensing.c **** 
2213:Generated_Source\PSoC4/key_touch_Sensing.c ****                 /* iDAC2 Sinking Mode */
2214:Generated_Source\PSoC4/key_touch_Sensing.c ****                 trimValue = CY_GET_REG32(key_touch_CSD1_TRIM2_PTR) & ~key_touch_IDAC_TRIM2_MOD_SNK_
2215:Generated_Source\PSoC4/key_touch_Sensing.c ****                 trimValue |= ((uint32)CY_GET_REG8(key_touch_CSD1_SFLASH_TRIM2_PTR) &
2216:Generated_Source\PSoC4/key_touch_Sensing.c ****                                                           key_touch_SFLASH_TRIM_IDAC_MOD_MASK) ;
2217:Generated_Source\PSoC4/key_touch_Sensing.c **** 
2218:Generated_Source\PSoC4/key_touch_Sensing.c ****                 #if (key_touch_ENABLE == key_touch_CSD_IDAC_COMP_EN)
2219:Generated_Source\PSoC4/key_touch_Sensing.c ****                     /* iDAC3 Sinking Mode */
2220:Generated_Source\PSoC4/key_touch_Sensing.c ****                     trimValue &= ~key_touch_IDAC_TRIM2_COMP_SNK_MASK;
2221:Generated_Source\PSoC4/key_touch_Sensing.c ****                     trimValue |= ((uint32)CY_GET_REG8(key_touch_CSD1_SFLASH_TRIM2_PTR) &
2222:Generated_Source\PSoC4/key_touch_Sensing.c ****                                                               key_touch_SFLASH_TRIM_IDAC_COMP_MASK)
2223:Generated_Source\PSoC4/key_touch_Sensing.c ****                 #endif /* (key_touch_ENABLE == key_touch_CSD_IDAC_COMP_EN) */
2224:Generated_Source\PSoC4/key_touch_Sensing.c **** 
2225:Generated_Source\PSoC4/key_touch_Sensing.c ****                 /* Update IDAC trim bits for gain control in current sink mode */
2226:Generated_Source\PSoC4/key_touch_Sensing.c ****                 CY_SET_REG32(key_touch_CSD1_TRIM2_PTR, trimValue);
2227:Generated_Source\PSoC4/key_touch_Sensing.c **** 
2228:Generated_Source\PSoC4/key_touch_Sensing.c ****             #else
2229:Generated_Source\PSoC4/key_touch_Sensing.c **** 
2230:Generated_Source\PSoC4/key_touch_Sensing.c ****                 /* Mod iDAC Sinking Mode */
2231:Generated_Source\PSoC4/key_touch_Sensing.c ****                 trimValue = CY_GET_REG32(key_touch_TRIM2_PTR) & ~key_touch_IDAC_TRIM2_MOD_SNK_MASK;
2232:Generated_Source\PSoC4/key_touch_Sensing.c ****                 trimValue |= ((uint32)CY_GET_REG8(key_touch_SFLASH_TRIM2_PTR) &
2233:Generated_Source\PSoC4/key_touch_Sensing.c ****                                                           key_touch_SFLASH_TRIM_IDAC_MOD_MASK) ;
2234:Generated_Source\PSoC4/key_touch_Sensing.c **** 
2235:Generated_Source\PSoC4/key_touch_Sensing.c ****                 #if (key_touch_ENABLE == key_touch_CSD_IDAC_COMP_EN)
2236:Generated_Source\PSoC4/key_touch_Sensing.c ****                     /* Comp iDAC Sinking Mode */
2237:Generated_Source\PSoC4/key_touch_Sensing.c ****                     trimValue &= ~key_touch_IDAC_TRIM2_COMP_SNK_MASK;
2238:Generated_Source\PSoC4/key_touch_Sensing.c ****                     trimValue |= ((uint32)CY_GET_REG8(key_touch_SFLASH_TRIM2_PTR) &
2239:Generated_Source\PSoC4/key_touch_Sensing.c ****                                                               key_touch_SFLASH_TRIM_IDAC_COMP_MASK)
2240:Generated_Source\PSoC4/key_touch_Sensing.c ****                 #endif /* (key_touch_ENABLE == key_touch_CSD_IDAC_COMP_EN) */
2241:Generated_Source\PSoC4/key_touch_Sensing.c **** 
2242:Generated_Source\PSoC4/key_touch_Sensing.c ****                 /* Update IDAC trim bits for gain control in current sink mode */
2243:Generated_Source\PSoC4/key_touch_Sensing.c ****                 CY_SET_REG32(key_touch_TRIM2_PTR, trimValue);
2244:Generated_Source\PSoC4/key_touch_Sensing.c **** 
2245:Generated_Source\PSoC4/key_touch_Sensing.c ****             #endif /* (key_touch_ENABLE == key_touch_CSD2X_EN)) */
2246:Generated_Source\PSoC4/key_touch_Sensing.c ****         }
2247:Generated_Source\PSoC4/key_touch_Sensing.c ****     #endif /* ((key_touch_ENABLE == key_touch_CSX_EN) || \
2248:Generated_Source\PSoC4/key_touch_Sensing.c ****                (key_touch_IDAC_SINKING == key_touch_CSD_IDAC_CONFIG)) */
ARM GAS  C:\Users\Administrator\AppData\Local\Temp\ccPYRpEO.s 			page 53


2249:Generated_Source\PSoC4/key_touch_Sensing.c **** 
2250:Generated_Source\PSoC4/key_touch_Sensing.c **** 
2251:Generated_Source\PSoC4/key_touch_Sensing.c ****     #if ((key_touch_ENABLE == key_touch_CSX_EN) || \
2252:Generated_Source\PSoC4/key_touch_Sensing.c ****          (key_touch_IDAC_SOURCING == key_touch_CSD_IDAC_CONFIG))
2253:Generated_Source\PSoC4/key_touch_Sensing.c ****         /*******************************************************************************
2254:Generated_Source\PSoC4/key_touch_Sensing.c ****         * Function Name: key_touch_SsTrimIdacsSourcing
2255:Generated_Source\PSoC4/key_touch_Sensing.c ****         ****************************************************************************//**
2256:Generated_Source\PSoC4/key_touch_Sensing.c ****         *
2257:Generated_Source\PSoC4/key_touch_Sensing.c ****         * \brief
2258:Generated_Source\PSoC4/key_touch_Sensing.c ****         *  This function loads trim values from SFLASH rows to calibrate
2259:Generated_Source\PSoC4/key_touch_Sensing.c ****         *  IDAC1 and IDAC2 for Sourcing CSD Mode
2260:Generated_Source\PSoC4/key_touch_Sensing.c ****         *
2261:Generated_Source\PSoC4/key_touch_Sensing.c ****         * \details
2262:Generated_Source\PSoC4/key_touch_Sensing.c ****         *  Function reads trim value from SFLASH and loads it into IDAC trim register.
2263:Generated_Source\PSoC4/key_touch_Sensing.c ****         *  If Compensation IDAC is disabled the function loads trim values for IDAC1 only.
2264:Generated_Source\PSoC4/key_touch_Sensing.c ****         *
2265:Generated_Source\PSoC4/key_touch_Sensing.c ****         *******************************************************************************/
2266:Generated_Source\PSoC4/key_touch_Sensing.c ****         static void key_touch_SsTrimIdacsSourcing(void)
2267:Generated_Source\PSoC4/key_touch_Sensing.c ****         {
2268:Generated_Source\PSoC4/key_touch_Sensing.c ****             uint32 trimValue;
2269:Generated_Source\PSoC4/key_touch_Sensing.c **** 
2270:Generated_Source\PSoC4/key_touch_Sensing.c ****             #if (key_touch_ENABLE == key_touch_CSD2X_EN)
2271:Generated_Source\PSoC4/key_touch_Sensing.c **** 
2272:Generated_Source\PSoC4/key_touch_Sensing.c ****                 /* iDAC0 Sourcing Mode */
2273:Generated_Source\PSoC4/key_touch_Sensing.c ****                 trimValue = CY_GET_REG32(key_touch_CSD0_TRIM1_PTR) & ~key_touch_IDAC_TRIM1_MOD_SRC_
2274:Generated_Source\PSoC4/key_touch_Sensing.c ****                 trimValue |= ((uint32)CY_GET_REG8(key_touch_CSD0_SFLASH_TRIM1_PTR) &
2275:Generated_Source\PSoC4/key_touch_Sensing.c ****                                                           key_touch_SFLASH_TRIM_IDAC_MOD_MASK);
2276:Generated_Source\PSoC4/key_touch_Sensing.c **** 
2277:Generated_Source\PSoC4/key_touch_Sensing.c ****                 #if (key_touch_ENABLE == key_touch_CSD_IDAC_COMP_EN)
2278:Generated_Source\PSoC4/key_touch_Sensing.c ****                      /* iDAC1 Sourcing Mode */
2279:Generated_Source\PSoC4/key_touch_Sensing.c ****                     trimValue &= ~key_touch_IDAC_TRIM1_COMP_SRC_MASK;
2280:Generated_Source\PSoC4/key_touch_Sensing.c ****                     trimValue |= ((uint32)CY_GET_REG8(key_touch_CSD0_SFLASH_TRIM1_PTR) &
2281:Generated_Source\PSoC4/key_touch_Sensing.c ****                                                               key_touch_SFLASH_TRIM_IDAC_COMP_MASK)
2282:Generated_Source\PSoC4/key_touch_Sensing.c ****                 #endif /* (key_touch_ENABLE == key_touch_CSD_IDAC_COMP_EN) */
2283:Generated_Source\PSoC4/key_touch_Sensing.c **** 
2284:Generated_Source\PSoC4/key_touch_Sensing.c ****                 /* Update IDAC trim bits for gain control in current source mode */
2285:Generated_Source\PSoC4/key_touch_Sensing.c ****                 CY_SET_REG32(key_touch_CSD0_TRIM1_PTR, trimValue);
2286:Generated_Source\PSoC4/key_touch_Sensing.c **** 
2287:Generated_Source\PSoC4/key_touch_Sensing.c ****                 /* iDAC2 Sourcing Mode */
2288:Generated_Source\PSoC4/key_touch_Sensing.c ****                 trimValue = CY_GET_REG32(key_touch_CSD1_TRIM1_PTR) & ~key_touch_IDAC_TRIM1_MOD_SRC_
2289:Generated_Source\PSoC4/key_touch_Sensing.c ****                 trimValue |= ((uint32)CY_GET_REG8(key_touch_CSD1_SFLASH_TRIM1_PTR) &
2290:Generated_Source\PSoC4/key_touch_Sensing.c ****                                                           key_touch_SFLASH_TRIM_IDAC_MOD_MASK);
2291:Generated_Source\PSoC4/key_touch_Sensing.c **** 
2292:Generated_Source\PSoC4/key_touch_Sensing.c ****                 #if (key_touch_ENABLE == key_touch_CSD_IDAC_COMP_EN)
2293:Generated_Source\PSoC4/key_touch_Sensing.c ****                      /* iDAC3 Sourcing Mode */
2294:Generated_Source\PSoC4/key_touch_Sensing.c ****                     trimValue &= ~key_touch_IDAC_TRIM1_COMP_SRC_MASK;
2295:Generated_Source\PSoC4/key_touch_Sensing.c ****                     trimValue |= ((uint32)CY_GET_REG8(key_touch_CSD1_SFLASH_TRIM1_PTR) &
2296:Generated_Source\PSoC4/key_touch_Sensing.c ****                                                               key_touch_SFLASH_TRIM_IDAC_COMP_MASK)
2297:Generated_Source\PSoC4/key_touch_Sensing.c ****                 #endif /* (key_touch_ENABLE == key_touch_CSD_IDAC_COMP_EN) */
2298:Generated_Source\PSoC4/key_touch_Sensing.c **** 
2299:Generated_Source\PSoC4/key_touch_Sensing.c ****                 /* Update IDAC trim bits for gain control in current source mode */
2300:Generated_Source\PSoC4/key_touch_Sensing.c ****                 CY_SET_REG32(key_touch_CSD1_TRIM1_PTR, trimValue);
2301:Generated_Source\PSoC4/key_touch_Sensing.c **** 
2302:Generated_Source\PSoC4/key_touch_Sensing.c ****             #else
2303:Generated_Source\PSoC4/key_touch_Sensing.c **** 
2304:Generated_Source\PSoC4/key_touch_Sensing.c ****                 /* Mod iDAC Sourcing Mode */
2305:Generated_Source\PSoC4/key_touch_Sensing.c ****                 trimValue = CY_GET_REG32(key_touch_TRIM1_PTR) & ~key_touch_IDAC_TRIM1_MOD_SRC_MASK;
ARM GAS  C:\Users\Administrator\AppData\Local\Temp\ccPYRpEO.s 			page 54


2306:Generated_Source\PSoC4/key_touch_Sensing.c ****                 trimValue |= ((uint32)CY_GET_REG8(key_touch_SFLASH_TRIM1_PTR) &
2307:Generated_Source\PSoC4/key_touch_Sensing.c ****                                                           key_touch_SFLASH_TRIM_IDAC_MOD_MASK);
2308:Generated_Source\PSoC4/key_touch_Sensing.c **** 
2309:Generated_Source\PSoC4/key_touch_Sensing.c ****                 #if (key_touch_ENABLE == key_touch_CSD_IDAC_COMP_EN)
2310:Generated_Source\PSoC4/key_touch_Sensing.c ****                      /* Comp iDAC Sourcing Mode */
2311:Generated_Source\PSoC4/key_touch_Sensing.c ****                     trimValue &= ~key_touch_IDAC_TRIM1_COMP_SRC_MASK;
2312:Generated_Source\PSoC4/key_touch_Sensing.c ****                     trimValue |= ((uint32)CY_GET_REG8(key_touch_SFLASH_TRIM1_PTR) &
2313:Generated_Source\PSoC4/key_touch_Sensing.c ****                                                               key_touch_SFLASH_TRIM_IDAC_COMP_MASK)
2314:Generated_Source\PSoC4/key_touch_Sensing.c ****                 #endif /* (key_touch_ENABLE == key_touch_CSD_IDAC_COMP_EN) */
2315:Generated_Source\PSoC4/key_touch_Sensing.c **** 
2316:Generated_Source\PSoC4/key_touch_Sensing.c ****                 /* Update IDAC trim bits for gain control in current source mode */
2317:Generated_Source\PSoC4/key_touch_Sensing.c ****                 CY_SET_REG32(key_touch_TRIM1_PTR, trimValue);
2318:Generated_Source\PSoC4/key_touch_Sensing.c **** 
2319:Generated_Source\PSoC4/key_touch_Sensing.c ****             #endif /* (key_touch_ENABLE == key_touch_CSD2X_EN) */
2320:Generated_Source\PSoC4/key_touch_Sensing.c ****         }
2321:Generated_Source\PSoC4/key_touch_Sensing.c ****     #endif /* ((key_touch_ENABLE == key_touch_CSX_EN) || \
2322:Generated_Source\PSoC4/key_touch_Sensing.c ****                (key_touch_IDAC_SOURCING == key_touch_CSD_IDAC_CONFIG)) */
2323:Generated_Source\PSoC4/key_touch_Sensing.c **** 
2324:Generated_Source\PSoC4/key_touch_Sensing.c **** 
2325:Generated_Source\PSoC4/key_touch_Sensing.c ****     /*******************************************************************************
2326:Generated_Source\PSoC4/key_touch_Sensing.c ****     * Function Name: key_touch_SsTrimIdacs
2327:Generated_Source\PSoC4/key_touch_Sensing.c ****     ****************************************************************************//**
2328:Generated_Source\PSoC4/key_touch_Sensing.c ****     *
2329:Generated_Source\PSoC4/key_touch_Sensing.c ****     * \brief
2330:Generated_Source\PSoC4/key_touch_Sensing.c ****     *  This function loads trim values from SFLASH rows to calibrate
2331:Generated_Source\PSoC4/key_touch_Sensing.c ****     *  IDAC1 and IDAC2 for CSD Mode
2332:Generated_Source\PSoC4/key_touch_Sensing.c ****     *
2333:Generated_Source\PSoC4/key_touch_Sensing.c ****     * \details
2334:Generated_Source\PSoC4/key_touch_Sensing.c ****     *  If CSX mode is enabled the function loads trim values for both sink and source
2335:Generated_Source\PSoC4/key_touch_Sensing.c ****     *  mode. If CSX mode is disabled the function loads trim values for sink or
2336:Generated_Source\PSoC4/key_touch_Sensing.c ****     *  source mode based on sink/source mode configuration.
2337:Generated_Source\PSoC4/key_touch_Sensing.c ****     *  If Compensation IDAC is disabled the function loads trim values for IDAC1 only.
2338:Generated_Source\PSoC4/key_touch_Sensing.c ****     *
2339:Generated_Source\PSoC4/key_touch_Sensing.c ****     *******************************************************************************/
2340:Generated_Source\PSoC4/key_touch_Sensing.c ****     static void key_touch_SsTrimIdacs(void)
2341:Generated_Source\PSoC4/key_touch_Sensing.c ****     {
2342:Generated_Source\PSoC4/key_touch_Sensing.c ****         #if (key_touch_ENABLE == key_touch_CSX_EN)
2343:Generated_Source\PSoC4/key_touch_Sensing.c ****             key_touch_SsTrimIdacsSinking();
2344:Generated_Source\PSoC4/key_touch_Sensing.c ****             key_touch_SsTrimIdacsSourcing();
2345:Generated_Source\PSoC4/key_touch_Sensing.c ****         #elif (key_touch_IDAC_SINKING == key_touch_CSD_IDAC_CONFIG)
2346:Generated_Source\PSoC4/key_touch_Sensing.c ****             key_touch_SsTrimIdacsSinking();
2347:Generated_Source\PSoC4/key_touch_Sensing.c ****         #elif (key_touch_IDAC_SOURCING == key_touch_CSD_IDAC_CONFIG)
2348:Generated_Source\PSoC4/key_touch_Sensing.c ****             key_touch_SsTrimIdacsSourcing();
2349:Generated_Source\PSoC4/key_touch_Sensing.c ****         #else
2350:Generated_Source\PSoC4/key_touch_Sensing.c ****             #error "Not supported Mode, component cannot work in this mode"
2351:Generated_Source\PSoC4/key_touch_Sensing.c ****         #endif /* (key_touch_ENABLE == key_touch_CSX_EN) */
2352:Generated_Source\PSoC4/key_touch_Sensing.c ****     }
2353:Generated_Source\PSoC4/key_touch_Sensing.c **** #endif  /* (key_touch_DISABLE == key_touch_CSDV2) */
2354:Generated_Source\PSoC4/key_touch_Sensing.c **** 
2355:Generated_Source\PSoC4/key_touch_Sensing.c **** 
2356:Generated_Source\PSoC4/key_touch_Sensing.c **** #if (key_touch_ENABLE == key_touch_MULTI_FREQ_SCAN_EN)
2357:Generated_Source\PSoC4/key_touch_Sensing.c ****     /*******************************************************************************
2358:Generated_Source\PSoC4/key_touch_Sensing.c ****     * Function Name: key_touch_SsChangeImoFreq
2359:Generated_Source\PSoC4/key_touch_Sensing.c ****     ****************************************************************************//**
2360:Generated_Source\PSoC4/key_touch_Sensing.c ****     *
2361:Generated_Source\PSoC4/key_touch_Sensing.c ****     * \brief
2362:Generated_Source\PSoC4/key_touch_Sensing.c ****     *  This function changes the IMO frequency.
ARM GAS  C:\Users\Administrator\AppData\Local\Temp\ccPYRpEO.s 			page 55


2363:Generated_Source\PSoC4/key_touch_Sensing.c ****     *
2364:Generated_Source\PSoC4/key_touch_Sensing.c ****     * \details
2365:Generated_Source\PSoC4/key_touch_Sensing.c ****     *   The IMO frequency can have three offsets: 0%, -5% and +5%. The frequency
2366:Generated_Source\PSoC4/key_touch_Sensing.c ****     *   trims are contained in the key_touch_immunity[value] array for each
2367:Generated_Source\PSoC4/key_touch_Sensing.c ****     *   frequency channel.
2368:Generated_Source\PSoC4/key_touch_Sensing.c ****     *
2369:Generated_Source\PSoC4/key_touch_Sensing.c ****     * \param value The frequency channel ID.
2370:Generated_Source\PSoC4/key_touch_Sensing.c ****     *
2371:Generated_Source\PSoC4/key_touch_Sensing.c ****     *******************************************************************************/
2372:Generated_Source\PSoC4/key_touch_Sensing.c ****     void key_touch_SsChangeImoFreq(uint32 value)
2373:Generated_Source\PSoC4/key_touch_Sensing.c ****     {
2374:Generated_Source\PSoC4/key_touch_Sensing.c ****         CY_SET_REG32(CY_SYS_CLK_IMO_TRIM1_PTR, key_touch_immunity[value]);
2375:Generated_Source\PSoC4/key_touch_Sensing.c ****     }
2376:Generated_Source\PSoC4/key_touch_Sensing.c **** #endif  /* (key_touch_ENABLE == key_touch_MULTI_FREQ_SCAN_EN) */
2377:Generated_Source\PSoC4/key_touch_Sensing.c **** 
2378:Generated_Source\PSoC4/key_touch_Sensing.c **** 
2379:Generated_Source\PSoC4/key_touch_Sensing.c **** #if((key_touch_ENABLE == key_touch_CSD_EN) ||\
2380:Generated_Source\PSoC4/key_touch_Sensing.c ****     (key_touch_ENABLE == key_touch_CSD2X_EN) ||\
2381:Generated_Source\PSoC4/key_touch_Sensing.c ****     ((key_touch_ENABLE == key_touch_CSX_EN) && (key_touch_ENABLE == key_touch_CSDV2)))
2382:Generated_Source\PSoC4/key_touch_Sensing.c **** /*******************************************************************************
2383:Generated_Source\PSoC4/key_touch_Sensing.c **** * Function Name: key_touch_SsInitializeSourceSenseClk
2384:Generated_Source\PSoC4/key_touch_Sensing.c **** ****************************************************************************//**
2385:Generated_Source\PSoC4/key_touch_Sensing.c **** *
2386:Generated_Source\PSoC4/key_touch_Sensing.c **** * \brief
2387:Generated_Source\PSoC4/key_touch_Sensing.c **** *  Sets a source for Sense Clk for all CSD widgets.
2388:Generated_Source\PSoC4/key_touch_Sensing.c **** *
2389:Generated_Source\PSoC4/key_touch_Sensing.c **** * \details
2390:Generated_Source\PSoC4/key_touch_Sensing.c **** *  Updates snsClkSource and rowSnsClkSource with a source for the sense Clk.
2391:Generated_Source\PSoC4/key_touch_Sensing.c **** *  for all CSD widgets.
2392:Generated_Source\PSoC4/key_touch_Sensing.c **** *
2393:Generated_Source\PSoC4/key_touch_Sensing.c **** *******************************************************************************/
2394:Generated_Source\PSoC4/key_touch_Sensing.c **** void key_touch_SsInitializeSourceSenseClk(void)
2395:Generated_Source\PSoC4/key_touch_Sensing.c **** {
2396:Generated_Source\PSoC4/key_touch_Sensing.c ****     uint32 wdgtIndex;
2397:Generated_Source\PSoC4/key_touch_Sensing.c ****     key_touch_RAM_WD_BASE_STRUCT *ptrWdgt;
2398:Generated_Source\PSoC4/key_touch_Sensing.c **** 
2399:Generated_Source\PSoC4/key_touch_Sensing.c ****     for (wdgtIndex = 0u; wdgtIndex < key_touch_TOTAL_WIDGETS; wdgtIndex++)
2400:Generated_Source\PSoC4/key_touch_Sensing.c ****     {
2401:Generated_Source\PSoC4/key_touch_Sensing.c ****         ptrWdgt = (key_touch_RAM_WD_BASE_STRUCT *)key_touch_dsFlash.wdgtArray[wdgtIndex].ptr2WdgtRa
2402:Generated_Source\PSoC4/key_touch_Sensing.c ****         if (key_touch_SENSE_METHOD_CSD_E ==
2403:Generated_Source\PSoC4/key_touch_Sensing.c ****         key_touch_GET_SENSE_METHOD(&key_touch_dsFlash.wdgtArray[wdgtIndex]))
2404:Generated_Source\PSoC4/key_touch_Sensing.c ****         {
2405:Generated_Source\PSoC4/key_touch_Sensing.c ****             #if ((key_touch_ENABLE == key_touch_CSD_EN) || (key_touch_ENABLE == key_touch_CSD2X_EN)
2406:Generated_Source\PSoC4/key_touch_Sensing.c ****                 key_touch_SsSetWidgetSenseClkSrc(wdgtIndex, ptrWdgt);
2407:Generated_Source\PSoC4/key_touch_Sensing.c ****             #endif /* ((key_touch_ENABLE == key_touch_CSD_EN) || key_touch_ENABLE == key_touch_CSD2
2408:Generated_Source\PSoC4/key_touch_Sensing.c ****         }
2409:Generated_Source\PSoC4/key_touch_Sensing.c ****         else
2410:Generated_Source\PSoC4/key_touch_Sensing.c ****         {
2411:Generated_Source\PSoC4/key_touch_Sensing.c ****             #if ((key_touch_ENABLE == key_touch_CSX_EN) && (key_touch_ENABLE == key_touch_CSDV2))
2412:Generated_Source\PSoC4/key_touch_Sensing.c ****                 key_touch_SsSetWidgetTxClkSrc(wdgtIndex, ptrWdgt);
2413:Generated_Source\PSoC4/key_touch_Sensing.c ****             #endif /* ((key_touch_ENABLE == key_touch_CSX_EN) && (key_touch_ENABLE == key_touch_CSD
2414:Generated_Source\PSoC4/key_touch_Sensing.c ****         }
2415:Generated_Source\PSoC4/key_touch_Sensing.c ****         #if (key_touch_ENABLE == key_touch_TST_WDGT_CRC_EN)
2416:Generated_Source\PSoC4/key_touch_Sensing.c ****             key_touch_DsUpdateWidgetCrc(wdgtIndex);
2417:Generated_Source\PSoC4/key_touch_Sensing.c ****         #endif /* (key_touch_ENABLE == key_touch_TST_WDGT_CRC_EN) */
2418:Generated_Source\PSoC4/key_touch_Sensing.c ****     }
2419:Generated_Source\PSoC4/key_touch_Sensing.c **** }
ARM GAS  C:\Users\Administrator\AppData\Local\Temp\ccPYRpEO.s 			page 56


2420:Generated_Source\PSoC4/key_touch_Sensing.c **** #endif /* ((key_touch_ENABLE == key_touch_CSD_EN) ||\
2421:Generated_Source\PSoC4/key_touch_Sensing.c ****            (key_touch_ENABLE == key_touch_CSD2X_EN) ||\
2422:Generated_Source\PSoC4/key_touch_Sensing.c ****            ((key_touch_ENABLE == key_touch_CSX_EN) && (key_touch_ENABLE == key_touch_CSDV2))) */
2423:Generated_Source\PSoC4/key_touch_Sensing.c **** 
2424:Generated_Source\PSoC4/key_touch_Sensing.c **** 
2425:Generated_Source\PSoC4/key_touch_Sensing.c **** #if ((key_touch_ENABLE == key_touch_CSD_EN) ||\
2426:Generated_Source\PSoC4/key_touch_Sensing.c ****      (key_touch_ENABLE == key_touch_CSD2X_EN))
2427:Generated_Source\PSoC4/key_touch_Sensing.c ****     /*******************************************************************************
2428:Generated_Source\PSoC4/key_touch_Sensing.c ****     * Function Name: key_touch_SsSetWidgetSenseClkSrc
2429:Generated_Source\PSoC4/key_touch_Sensing.c ****     ****************************************************************************//**
2430:Generated_Source\PSoC4/key_touch_Sensing.c ****     *
2431:Generated_Source\PSoC4/key_touch_Sensing.c ****     * \brief
2432:Generated_Source\PSoC4/key_touch_Sensing.c ****     *  Sets a source for the sense clock for a widget.
2433:Generated_Source\PSoC4/key_touch_Sensing.c ****     *
2434:Generated_Source\PSoC4/key_touch_Sensing.c ****     * \param wdgtIndex
2435:Generated_Source\PSoC4/key_touch_Sensing.c ****     *   Specifies the ID of the widget.
2436:Generated_Source\PSoC4/key_touch_Sensing.c ****     * \param ptrWdgt
2437:Generated_Source\PSoC4/key_touch_Sensing.c ****     *   The pointer to the RAM_WD_BASE_STRUCT structure.
2438:Generated_Source\PSoC4/key_touch_Sensing.c ****     *
2439:Generated_Source\PSoC4/key_touch_Sensing.c ****     * \details
2440:Generated_Source\PSoC4/key_touch_Sensing.c ****     *  Updates snsClkSource and rowSnsClkSource with a source for the sense Clk for a
2441:Generated_Source\PSoC4/key_touch_Sensing.c ****     *  widget.
2442:Generated_Source\PSoC4/key_touch_Sensing.c ****     *
2443:Generated_Source\PSoC4/key_touch_Sensing.c ****     *******************************************************************************/
2444:Generated_Source\PSoC4/key_touch_Sensing.c ****     static void key_touch_SsSetWidgetSenseClkSrc(uint32 wdgtIndex, key_touch_RAM_WD_BASE_STRUCT * p
2445:Generated_Source\PSoC4/key_touch_Sensing.c ****     {
2446:Generated_Source\PSoC4/key_touch_Sensing.c ****         uint8 lfsrSize;
2447:Generated_Source\PSoC4/key_touch_Sensing.c ****         uint8 lfsrScale;
2448:Generated_Source\PSoC4/key_touch_Sensing.c **** 
2449:Generated_Source\PSoC4/key_touch_Sensing.c ****         #if(key_touch_CLK_SOURCE_PRSAUTO == key_touch_CSD_SNS_CLK_SOURCE)
2450:Generated_Source\PSoC4/key_touch_Sensing.c ****             #if(key_touch_ENABLE == key_touch_CSDV2)
2451:Generated_Source\PSoC4/key_touch_Sensing.c ****                 uint32 conversionsNum;
2452:Generated_Source\PSoC4/key_touch_Sensing.c ****             #endif /* (key_touch_ENABLE == key_touch_CSDV2) */
2453:Generated_Source\PSoC4/key_touch_Sensing.c ****             uint32 snsClkDivider;
2454:Generated_Source\PSoC4/key_touch_Sensing.c ****         #endif /* (key_touch_CLK_SOURCE_PRSAUTO == key_touch_CSD_SNS_CLK_SOURCE) */
2455:Generated_Source\PSoC4/key_touch_Sensing.c **** 
2456:Generated_Source\PSoC4/key_touch_Sensing.c ****         #if(key_touch_CLK_SOURCE_PRSAUTO == key_touch_CSD_SNS_CLK_SOURCE)
2457:Generated_Source\PSoC4/key_touch_Sensing.c ****             snsClkDivider = key_touch_SsCSDGetColSnsClkDivider(wdgtIndex);
2458:Generated_Source\PSoC4/key_touch_Sensing.c **** 
2459:Generated_Source\PSoC4/key_touch_Sensing.c ****             #if(key_touch_ENABLE == key_touch_CSDV2)
2460:Generated_Source\PSoC4/key_touch_Sensing.c ****                 conversionsNum = key_touch_SsCSDGetNumberOfConversions(snsClkDivider, (uint32)ptrWd
2461:Generated_Source\PSoC4/key_touch_Sensing.c ****                                                                                              key_to
2462:Generated_Source\PSoC4/key_touch_Sensing.c ****                 lfsrSize = key_touch_SsCalcLfsrSize(snsClkDivider, conversionsNum);
2463:Generated_Source\PSoC4/key_touch_Sensing.c ****                 if (key_touch_CLK_SOURCE_DIRECT == lfsrSize)
2464:Generated_Source\PSoC4/key_touch_Sensing.c ****                 {
2465:Generated_Source\PSoC4/key_touch_Sensing.c ****                     lfsrSize = key_touch_SsCSDCalcPrsSize(snsClkDivider, (uint32)ptrWdgt->resolutio
2466:Generated_Source\PSoC4/key_touch_Sensing.c ****                 }
2467:Generated_Source\PSoC4/key_touch_Sensing.c ****                 lfsrScale = key_touch_SsCalcLfsrScale(snsClkDivider, lfsrSize);
2468:Generated_Source\PSoC4/key_touch_Sensing.c ****             #else
2469:Generated_Source\PSoC4/key_touch_Sensing.c ****                 lfsrSize = key_touch_SsCSDCalcPrsSize(snsClkDivider, (uint32)ptrWdgt->resolution);
2470:Generated_Source\PSoC4/key_touch_Sensing.c ****                 lfsrScale = 0u;
2471:Generated_Source\PSoC4/key_touch_Sensing.c ****             #endif /* (key_touch_ENABLE == key_touch_CSDV2) */
2472:Generated_Source\PSoC4/key_touch_Sensing.c ****         #else
2473:Generated_Source\PSoC4/key_touch_Sensing.c ****             lfsrSize = (uint8)key_touch_DEFAULT_MODULATION_MODE;
2474:Generated_Source\PSoC4/key_touch_Sensing.c ****             lfsrScale = 0u;
2475:Generated_Source\PSoC4/key_touch_Sensing.c ****             (void)wdgtIndex; /* This parameter is unused in such configurations */
2476:Generated_Source\PSoC4/key_touch_Sensing.c ****         #endif /* (key_touch_CLK_SOURCE_PRSAUTO == key_touch_CSD_SNS_CLK_SOURCE) */
ARM GAS  C:\Users\Administrator\AppData\Local\Temp\ccPYRpEO.s 			page 57


2477:Generated_Source\PSoC4/key_touch_Sensing.c **** 
2478:Generated_Source\PSoC4/key_touch_Sensing.c ****         ptrWdgt->snsClkSource = lfsrSize | (uint8)(lfsrScale << key_touch_CLK_SOURCE_LFSR_SCALE_OFF
2479:Generated_Source\PSoC4/key_touch_Sensing.c **** 
2480:Generated_Source\PSoC4/key_touch_Sensing.c ****         #if (key_touch_ENABLE == (key_touch_CSD_MATRIX_WIDGET_EN | key_touch_CSD_TOUCHPAD_WIDGET_EN
2481:Generated_Source\PSoC4/key_touch_Sensing.c ****             if ((key_touch_WD_TOUCHPAD_E == (key_touch_WD_TYPE_ENUM)key_touch_dsFlash.wdgtArray[wdg
2482:Generated_Source\PSoC4/key_touch_Sensing.c ****                 (key_touch_WD_MATRIX_BUTTON_E == (key_touch_WD_TYPE_ENUM)key_touch_dsFlash.wdgtArra
2483:Generated_Source\PSoC4/key_touch_Sensing.c ****             {
2484:Generated_Source\PSoC4/key_touch_Sensing.c ****                 #if(key_touch_CLK_SOURCE_PRSAUTO == key_touch_CSD_SNS_CLK_SOURCE)
2485:Generated_Source\PSoC4/key_touch_Sensing.c ****                     snsClkDivider = key_touch_SsCSDGetRowSnsClkDivider(wdgtIndex);
2486:Generated_Source\PSoC4/key_touch_Sensing.c **** 
2487:Generated_Source\PSoC4/key_touch_Sensing.c ****                     #if(key_touch_ENABLE == key_touch_CSDV2)
2488:Generated_Source\PSoC4/key_touch_Sensing.c ****                         lfsrSize = key_touch_SsCalcLfsrSize(snsClkDivider, conversionsNum);
2489:Generated_Source\PSoC4/key_touch_Sensing.c ****                         if (key_touch_CLK_SOURCE_DIRECT == lfsrSize)
2490:Generated_Source\PSoC4/key_touch_Sensing.c ****                         {
2491:Generated_Source\PSoC4/key_touch_Sensing.c ****                             lfsrSize = key_touch_SsCSDCalcPrsSize(snsClkDivider, (uint32)ptrWdgt->r
2492:Generated_Source\PSoC4/key_touch_Sensing.c ****                         }
2493:Generated_Source\PSoC4/key_touch_Sensing.c ****                         lfsrScale = key_touch_SsCalcLfsrScale(snsClkDivider, lfsrSize);
2494:Generated_Source\PSoC4/key_touch_Sensing.c ****                     #else
2495:Generated_Source\PSoC4/key_touch_Sensing.c ****                         lfsrSize = key_touch_SsCSDCalcPrsSize(snsClkDivider, (uint32)ptrWdgt->resol
2496:Generated_Source\PSoC4/key_touch_Sensing.c ****                         lfsrScale = 0u;
2497:Generated_Source\PSoC4/key_touch_Sensing.c ****                     #endif /* (key_touch_ENABLE == key_touch_CSDV2) */
2498:Generated_Source\PSoC4/key_touch_Sensing.c ****                 #else
2499:Generated_Source\PSoC4/key_touch_Sensing.c ****                     lfsrSize = (uint8)key_touch_DEFAULT_MODULATION_MODE;
2500:Generated_Source\PSoC4/key_touch_Sensing.c ****                     lfsrScale = 0u;
2501:Generated_Source\PSoC4/key_touch_Sensing.c ****                 #endif /* (key_touch_CLK_SOURCE_PRSAUTO == key_touch_CSD_SNS_CLK_SOURCE) */
2502:Generated_Source\PSoC4/key_touch_Sensing.c ****                 ptrWdgt->rowSnsClkSource = lfsrSize | (uint8)(lfsrScale << key_touch_CLK_SOURCE_LFS
2503:Generated_Source\PSoC4/key_touch_Sensing.c ****             }
2504:Generated_Source\PSoC4/key_touch_Sensing.c ****         #endif /* (key_touch_ENABLE == (key_touch_CSD_MATRIX_WIDGET_EN | key_touch_CSD_TOUCHPAD_WID
2505:Generated_Source\PSoC4/key_touch_Sensing.c ****     }
2506:Generated_Source\PSoC4/key_touch_Sensing.c **** #endif /* ((key_touch_ENABLE == key_touch_CSD_EN) ||\
2507:Generated_Source\PSoC4/key_touch_Sensing.c ****            (key_touch_ENABLE == key_touch_CSD2X_EN))*/
2508:Generated_Source\PSoC4/key_touch_Sensing.c **** 
2509:Generated_Source\PSoC4/key_touch_Sensing.c **** 
2510:Generated_Source\PSoC4/key_touch_Sensing.c **** #if ((key_touch_ENABLE == key_touch_CSX_EN) && (key_touch_ENABLE == key_touch_CSDV2))
2511:Generated_Source\PSoC4/key_touch_Sensing.c ****     /*******************************************************************************
2512:Generated_Source\PSoC4/key_touch_Sensing.c ****     * Function Name: key_touch_SsSetWidgetTxClkSrc
2513:Generated_Source\PSoC4/key_touch_Sensing.c ****     ****************************************************************************//**
2514:Generated_Source\PSoC4/key_touch_Sensing.c ****     *
2515:Generated_Source\PSoC4/key_touch_Sensing.c ****     * \brief
2516:Generated_Source\PSoC4/key_touch_Sensing.c ****     *  Sets a source for the Tx clock for a widget.
2517:Generated_Source\PSoC4/key_touch_Sensing.c ****     *
2518:Generated_Source\PSoC4/key_touch_Sensing.c ****     * \param wdgtIndex
2519:Generated_Source\PSoC4/key_touch_Sensing.c ****     *   Specifies the ID of the widget.
2520:Generated_Source\PSoC4/key_touch_Sensing.c ****     * \param ptrWdgt
2521:Generated_Source\PSoC4/key_touch_Sensing.c ****     *   The pointer to the RAM_WD_BASE_STRUCT structure.
2522:Generated_Source\PSoC4/key_touch_Sensing.c ****     *
2523:Generated_Source\PSoC4/key_touch_Sensing.c ****     * \details
2524:Generated_Source\PSoC4/key_touch_Sensing.c ****     *  Updates snsClkSourcewith with a source for Tx Clk for a widget.
2525:Generated_Source\PSoC4/key_touch_Sensing.c ****     *
2526:Generated_Source\PSoC4/key_touch_Sensing.c ****     *******************************************************************************/
2527:Generated_Source\PSoC4/key_touch_Sensing.c ****     static void key_touch_SsSetWidgetTxClkSrc(uint32 wdgtIndex, key_touch_RAM_WD_BASE_STRUCT * ptrW
2528:Generated_Source\PSoC4/key_touch_Sensing.c ****     {
2529:Generated_Source\PSoC4/key_touch_Sensing.c ****         uint8 lfsrSize;
2530:Generated_Source\PSoC4/key_touch_Sensing.c ****         uint8 lfsrScale;
2531:Generated_Source\PSoC4/key_touch_Sensing.c **** 
2532:Generated_Source\PSoC4/key_touch_Sensing.c ****         #if(key_touch_CLK_SOURCE_PRSAUTO == key_touch_CSX_TX_CLK_SOURCE)
2533:Generated_Source\PSoC4/key_touch_Sensing.c ****             uint32 conversionsNum;
ARM GAS  C:\Users\Administrator\AppData\Local\Temp\ccPYRpEO.s 			page 58


2534:Generated_Source\PSoC4/key_touch_Sensing.c ****             uint32 snsClkDivider;
2535:Generated_Source\PSoC4/key_touch_Sensing.c ****         #endif /* (key_touch_CLK_SOURCE_PRSAUTO == key_touch_CSX_TX_CLK_SOURCE) */
2536:Generated_Source\PSoC4/key_touch_Sensing.c **** 
2537:Generated_Source\PSoC4/key_touch_Sensing.c ****         #if(key_touch_CLK_SOURCE_PRSAUTO == key_touch_CSX_TX_CLK_SOURCE)
2538:Generated_Source\PSoC4/key_touch_Sensing.c ****             conversionsNum = (uint32)ptrWdgt->resolution;
2539:Generated_Source\PSoC4/key_touch_Sensing.c ****             snsClkDivider = key_touch_SsCSXGetTxClkDivider(wdgtIndex);
2540:Generated_Source\PSoC4/key_touch_Sensing.c ****             lfsrSize = key_touch_SsCalcLfsrSize(snsClkDivider, conversionsNum);
2541:Generated_Source\PSoC4/key_touch_Sensing.c ****             lfsrScale = key_touch_SsCalcLfsrScale(snsClkDivider, lfsrSize);
2542:Generated_Source\PSoC4/key_touch_Sensing.c ****         #else
2543:Generated_Source\PSoC4/key_touch_Sensing.c ****             lfsrSize = (uint8)key_touch_CSX_TX_CLK_SOURCE;
2544:Generated_Source\PSoC4/key_touch_Sensing.c ****             lfsrScale = 0u;
2545:Generated_Source\PSoC4/key_touch_Sensing.c ****         #endif /* (key_touch_CLK_SOURCE_PRSAUTO == key_touch_CSX_TX_CLK_SOURCE) */
2546:Generated_Source\PSoC4/key_touch_Sensing.c **** 
2547:Generated_Source\PSoC4/key_touch_Sensing.c ****         ptrWdgt->snsClkSource = lfsrSize | (uint8)(lfsrScale << key_touch_CLK_SOURCE_LFSR_SCALE_OFF
2548:Generated_Source\PSoC4/key_touch_Sensing.c ****     }
2549:Generated_Source\PSoC4/key_touch_Sensing.c **** #endif /* ((key_touch_ENABLE == key_touch_CSX_EN) && (key_touch_ENABLE == key_touch_CSDV2)) */
2550:Generated_Source\PSoC4/key_touch_Sensing.c **** 
2551:Generated_Source\PSoC4/key_touch_Sensing.c **** 
2552:Generated_Source\PSoC4/key_touch_Sensing.c **** #if(((key_touch_ENABLE == key_touch_CSX_EN) && \
2553:Generated_Source\PSoC4/key_touch_Sensing.c ****      (key_touch_ENABLE == key_touch_CSDV2) && \
2554:Generated_Source\PSoC4/key_touch_Sensing.c ****      (key_touch_CLK_SOURCE_PRSAUTO == key_touch_CSX_TX_CLK_SOURCE)) ||\
2555:Generated_Source\PSoC4/key_touch_Sensing.c ****     ((key_touch_ENABLE == key_touch_CSD_EN) && \
2556:Generated_Source\PSoC4/key_touch_Sensing.c ****      (key_touch_ENABLE == key_touch_CSDV2) && \
2557:Generated_Source\PSoC4/key_touch_Sensing.c ****      (key_touch_CLK_SOURCE_PRSAUTO == key_touch_CSD_SNS_CLK_SOURCE)))
2558:Generated_Source\PSoC4/key_touch_Sensing.c **** /*******************************************************************************
2559:Generated_Source\PSoC4/key_touch_Sensing.c **** * Function Name: key_touch_SsCSDCalcLfsr
2560:Generated_Source\PSoC4/key_touch_Sensing.c **** ****************************************************************************//**
2561:Generated_Source\PSoC4/key_touch_Sensing.c **** *
2562:Generated_Source\PSoC4/key_touch_Sensing.c **** * \brief
2563:Generated_Source\PSoC4/key_touch_Sensing.c **** *   This is an internal function that finds a SSC polynomial size in the Auto mode.
2564:Generated_Source\PSoC4/key_touch_Sensing.c **** *
2565:Generated_Source\PSoC4/key_touch_Sensing.c **** * \details
2566:Generated_Source\PSoC4/key_touch_Sensing.c **** *   The SSC polynomial size in the auto mode is found based on the following
2567:Generated_Source\PSoC4/key_touch_Sensing.c **** *   requirements:
2568:Generated_Source\PSoC4/key_touch_Sensing.c **** *   - an LFSR value should be selected so that the max clock dither is limited with +/-10%.
2569:Generated_Source\PSoC4/key_touch_Sensing.c **** *   - at least one full spread spectrum polynomial should pass during the scan time.
2570:Generated_Source\PSoC4/key_touch_Sensing.c **** *   - the value of the number of conversions should be an integer multiple of the
2571:Generated_Source\PSoC4/key_touch_Sensing.c **** *     repeat period of the programmed LFSR_SIZE.
2572:Generated_Source\PSoC4/key_touch_Sensing.c **** *
2573:Generated_Source\PSoC4/key_touch_Sensing.c **** * \param
2574:Generated_Source\PSoC4/key_touch_Sensing.c **** *  snsClkDivider The divider value for the sense clock.
2575:Generated_Source\PSoC4/key_touch_Sensing.c **** *  resolution The widget resolution.
2576:Generated_Source\PSoC4/key_touch_Sensing.c **** *
2577:Generated_Source\PSoC4/key_touch_Sensing.c **** * \return lfsrSize The LFSRSIZE value for the SENSE_PERIOD register.
2578:Generated_Source\PSoC4/key_touch_Sensing.c **** *
2579:Generated_Source\PSoC4/key_touch_Sensing.c **** *******************************************************************************/
2580:Generated_Source\PSoC4/key_touch_Sensing.c **** static CY_INLINE  uint8 key_touch_SsCalcLfsrSize(uint32 snsClkDivider, uint32 conversionsNum)
2581:Generated_Source\PSoC4/key_touch_Sensing.c **** {
2582:Generated_Source\PSoC4/key_touch_Sensing.c ****     uint8 lfsrSize = 0u;
2583:Generated_Source\PSoC4/key_touch_Sensing.c **** 
2584:Generated_Source\PSoC4/key_touch_Sensing.c ****     /* Find LFSR value */
2585:Generated_Source\PSoC4/key_touch_Sensing.c ****     if((key_touch_SNSCLK_SSC4_THRESHOLD <= snsClkDivider) &&
2586:Generated_Source\PSoC4/key_touch_Sensing.c ****        (key_touch_SNSCLK_SSC4_PERIOD <= conversionsNum) &&
2587:Generated_Source\PSoC4/key_touch_Sensing.c ****        (0uL == (conversionsNum % key_touch_SNSCLK_SSC4_PERIOD)))
2588:Generated_Source\PSoC4/key_touch_Sensing.c ****     {
2589:Generated_Source\PSoC4/key_touch_Sensing.c ****         lfsrSize = key_touch_CLK_SOURCE_SSC4;
2590:Generated_Source\PSoC4/key_touch_Sensing.c ****     }
ARM GAS  C:\Users\Administrator\AppData\Local\Temp\ccPYRpEO.s 			page 59


2591:Generated_Source\PSoC4/key_touch_Sensing.c ****     else if((key_touch_SNSCLK_SSC3_THRESHOLD <= snsClkDivider) &&
2592:Generated_Source\PSoC4/key_touch_Sensing.c ****             (key_touch_SNSCLK_SSC3_PERIOD <= conversionsNum) &&
2593:Generated_Source\PSoC4/key_touch_Sensing.c ****             (0uL == (conversionsNum % key_touch_SNSCLK_SSC3_PERIOD)))
2594:Generated_Source\PSoC4/key_touch_Sensing.c ****     {
2595:Generated_Source\PSoC4/key_touch_Sensing.c ****         lfsrSize = key_touch_CLK_SOURCE_SSC3;
2596:Generated_Source\PSoC4/key_touch_Sensing.c ****     }
2597:Generated_Source\PSoC4/key_touch_Sensing.c ****     else if((key_touch_SNSCLK_SSC2_THRESHOLD <= snsClkDivider) &&
2598:Generated_Source\PSoC4/key_touch_Sensing.c ****             (key_touch_SNSCLK_SSC2_PERIOD <= conversionsNum) &&
2599:Generated_Source\PSoC4/key_touch_Sensing.c ****             (0uL == (conversionsNum % key_touch_SNSCLK_SSC2_PERIOD)))
2600:Generated_Source\PSoC4/key_touch_Sensing.c ****     {
2601:Generated_Source\PSoC4/key_touch_Sensing.c ****         lfsrSize = key_touch_CLK_SOURCE_SSC2;
2602:Generated_Source\PSoC4/key_touch_Sensing.c ****     }
2603:Generated_Source\PSoC4/key_touch_Sensing.c ****     else if((key_touch_SNSCLK_SSC1_THRESHOLD <= snsClkDivider) &&
2604:Generated_Source\PSoC4/key_touch_Sensing.c ****             (key_touch_SNSCLK_SSC1_PERIOD <= conversionsNum) &&
2605:Generated_Source\PSoC4/key_touch_Sensing.c ****             (0uL == (conversionsNum % key_touch_SNSCLK_SSC1_PERIOD)))
2606:Generated_Source\PSoC4/key_touch_Sensing.c ****     {
2607:Generated_Source\PSoC4/key_touch_Sensing.c ****         lfsrSize = key_touch_CLK_SOURCE_SSC1;
2608:Generated_Source\PSoC4/key_touch_Sensing.c ****     }
2609:Generated_Source\PSoC4/key_touch_Sensing.c ****     else
2610:Generated_Source\PSoC4/key_touch_Sensing.c ****     {
2611:Generated_Source\PSoC4/key_touch_Sensing.c ****         lfsrSize = (uint8)key_touch_CLK_SOURCE_DIRECT;
2612:Generated_Source\PSoC4/key_touch_Sensing.c ****     }
2613:Generated_Source\PSoC4/key_touch_Sensing.c **** 
2614:Generated_Source\PSoC4/key_touch_Sensing.c ****     return (lfsrSize);
2615:Generated_Source\PSoC4/key_touch_Sensing.c **** }
2616:Generated_Source\PSoC4/key_touch_Sensing.c **** 
2617:Generated_Source\PSoC4/key_touch_Sensing.c **** 
2618:Generated_Source\PSoC4/key_touch_Sensing.c **** /*******************************************************************************
2619:Generated_Source\PSoC4/key_touch_Sensing.c **** * Function Name: key_touch_SsCSDCalcLfsr
2620:Generated_Source\PSoC4/key_touch_Sensing.c **** ****************************************************************************//**
2621:Generated_Source\PSoC4/key_touch_Sensing.c **** *
2622:Generated_Source\PSoC4/key_touch_Sensing.c **** * \brief
2623:Generated_Source\PSoC4/key_touch_Sensing.c **** *   This is an internal function that calculates the LFSR scale value.
2624:Generated_Source\PSoC4/key_touch_Sensing.c **** *
2625:Generated_Source\PSoC4/key_touch_Sensing.c **** * \details
2626:Generated_Source\PSoC4/key_touch_Sensing.c **** *   The LFSR scale value is used to increase the clock dither if the desired dither
2627:Generated_Source\PSoC4/key_touch_Sensing.c **** *   is wider than can be achieved with the current Sense Clock Divider and current LFSR
2628:Generated_Source\PSoC4/key_touch_Sensing.c **** *   period.
2629:Generated_Source\PSoC4/key_touch_Sensing.c **** *
2630:Generated_Source\PSoC4/key_touch_Sensing.c **** *   This returns the LFSR scale value needed to keep the clock dither in
2631:Generated_Source\PSoC4/key_touch_Sensing.c **** *   range +/-10%.
2632:Generated_Source\PSoC4/key_touch_Sensing.c **** *
2633:Generated_Source\PSoC4/key_touch_Sensing.c **** * \param
2634:Generated_Source\PSoC4/key_touch_Sensing.c **** *  snsClkDivider The divider value for the sense clock.
2635:Generated_Source\PSoC4/key_touch_Sensing.c **** *  lfsrSize The period of the LFSR sequence.
2636:Generated_Source\PSoC4/key_touch_Sensing.c **** *           For devices with key_touch_CSDV2_REF9P6UA_EN = TRUE, the
2637:Generated_Source\PSoC4/key_touch_Sensing.c **** *           mode parameters can take the following values:
2638:Generated_Source\PSoC4/key_touch_Sensing.c **** *           key_touch_CLK_SOURCE_DIRECT The spreadspectrum is not used.
2639:Generated_Source\PSoC4/key_touch_Sensing.c **** *           key_touch_CLK_SOURCE_SSC1   The length of LFSR sequence is 63 cycles.
2640:Generated_Source\PSoC4/key_touch_Sensing.c **** *           key_touch_CLK_SOURCE_SSC2   The length of LFSR sequence is 127 cycles.
2641:Generated_Source\PSoC4/key_touch_Sensing.c **** *           key_touch_CLK_SOURCE_SSC3   The length of LFSR sequence is 255 cycles.
2642:Generated_Source\PSoC4/key_touch_Sensing.c **** *           key_touch_CLK_SOURCE_SSC4   The length of LFSR sequence is 511 cycles.
2643:Generated_Source\PSoC4/key_touch_Sensing.c **** *
2644:Generated_Source\PSoC4/key_touch_Sensing.c **** *           For devices with key_touch_CSDV2_REF9P6UA_EN = TRUE, the
2645:Generated_Source\PSoC4/key_touch_Sensing.c **** *           mode parameters can take the following values:
2646:Generated_Source\PSoC4/key_touch_Sensing.c **** *           key_touch_CLK_SOURCE_DIRECT The spreadspectrum is not used.
2647:Generated_Source\PSoC4/key_touch_Sensing.c **** *           key_touch_CLK_SOURCE_SSC1   The length of LFSR sequence is 3 cycles.
ARM GAS  C:\Users\Administrator\AppData\Local\Temp\ccPYRpEO.s 			page 60


2648:Generated_Source\PSoC4/key_touch_Sensing.c **** *           key_touch_CLK_SOURCE_SSC2   The length of LFSR sequence is 7 cycles.
2649:Generated_Source\PSoC4/key_touch_Sensing.c **** *           key_touch_CLK_SOURCE_SSC3   The length of LFSR sequence is 15 cycles.
2650:Generated_Source\PSoC4/key_touch_Sensing.c **** *           key_touch_CLK_SOURCE_SSC4   The length of LFSR sequence is 31 cycles.
2651:Generated_Source\PSoC4/key_touch_Sensing.c **** *
2652:Generated_Source\PSoC4/key_touch_Sensing.c **** * \return The LFSR scale value needed to keep the clock dither in range +/-10%.
2653:Generated_Source\PSoC4/key_touch_Sensing.c **** *
2654:Generated_Source\PSoC4/key_touch_Sensing.c **** *******************************************************************************/
2655:Generated_Source\PSoC4/key_touch_Sensing.c **** static CY_INLINE uint8 key_touch_SsCalcLfsrScale(uint32 snsClkDivider, uint8 lfsrSize)
2656:Generated_Source\PSoC4/key_touch_Sensing.c **** {
2657:Generated_Source\PSoC4/key_touch_Sensing.c ****     uint32 lfsrScale;
2658:Generated_Source\PSoC4/key_touch_Sensing.c ****     uint32 lfsrRange;
2659:Generated_Source\PSoC4/key_touch_Sensing.c ****     uint32 lfsrDither;
2660:Generated_Source\PSoC4/key_touch_Sensing.c **** 
2661:Generated_Source\PSoC4/key_touch_Sensing.c ****     /* Initialize the lfsrSize variable with the LFSR Range for given Lfsr Size. */
2662:Generated_Source\PSoC4/key_touch_Sensing.c ****     switch(lfsrSize)
2663:Generated_Source\PSoC4/key_touch_Sensing.c ****     {
2664:Generated_Source\PSoC4/key_touch_Sensing.c ****         case key_touch_CLK_SOURCE_SSC1:
2665:Generated_Source\PSoC4/key_touch_Sensing.c ****         {
2666:Generated_Source\PSoC4/key_touch_Sensing.c ****             lfsrRange = key_touch_SNSCLK_SSC1_RANGE;
2667:Generated_Source\PSoC4/key_touch_Sensing.c ****             break;
2668:Generated_Source\PSoC4/key_touch_Sensing.c ****         }
2669:Generated_Source\PSoC4/key_touch_Sensing.c ****         case key_touch_CLK_SOURCE_SSC2:
2670:Generated_Source\PSoC4/key_touch_Sensing.c ****         {
2671:Generated_Source\PSoC4/key_touch_Sensing.c ****             lfsrRange = key_touch_SNSCLK_SSC2_RANGE;
2672:Generated_Source\PSoC4/key_touch_Sensing.c ****             break;
2673:Generated_Source\PSoC4/key_touch_Sensing.c ****         }
2674:Generated_Source\PSoC4/key_touch_Sensing.c ****         case key_touch_CLK_SOURCE_SSC3:
2675:Generated_Source\PSoC4/key_touch_Sensing.c ****         {
2676:Generated_Source\PSoC4/key_touch_Sensing.c ****             lfsrRange = key_touch_SNSCLK_SSC3_RANGE;
2677:Generated_Source\PSoC4/key_touch_Sensing.c ****             break;
2678:Generated_Source\PSoC4/key_touch_Sensing.c ****         }
2679:Generated_Source\PSoC4/key_touch_Sensing.c ****         case key_touch_CLK_SOURCE_SSC4:
2680:Generated_Source\PSoC4/key_touch_Sensing.c ****         {
2681:Generated_Source\PSoC4/key_touch_Sensing.c ****             lfsrRange = key_touch_SNSCLK_SSC4_RANGE;
2682:Generated_Source\PSoC4/key_touch_Sensing.c ****             break;
2683:Generated_Source\PSoC4/key_touch_Sensing.c ****         }
2684:Generated_Source\PSoC4/key_touch_Sensing.c ****         default:
2685:Generated_Source\PSoC4/key_touch_Sensing.c ****         {
2686:Generated_Source\PSoC4/key_touch_Sensing.c ****             lfsrRange = 0u;
2687:Generated_Source\PSoC4/key_touch_Sensing.c ****             break;
2688:Generated_Source\PSoC4/key_touch_Sensing.c ****         }
2689:Generated_Source\PSoC4/key_touch_Sensing.c ****     }
2690:Generated_Source\PSoC4/key_touch_Sensing.c **** 
2691:Generated_Source\PSoC4/key_touch_Sensing.c ****     /* Calculate the LFSR Scale value that is required to keep the Clock dither
2692:Generated_Source\PSoC4/key_touch_Sensing.c ****      * as close as possible to the +/-10% limit of the used frequency.
2693:Generated_Source\PSoC4/key_touch_Sensing.c ****      */
2694:Generated_Source\PSoC4/key_touch_Sensing.c ****     if((lfsrSize != key_touch_CLK_SOURCE_DIRECT) && (0u != lfsrRange))
2695:Generated_Source\PSoC4/key_touch_Sensing.c ****     {
2696:Generated_Source\PSoC4/key_touch_Sensing.c ****         /* Calculate the LFSR Dither in percents. */
2697:Generated_Source\PSoC4/key_touch_Sensing.c ****         lfsrDither  = ((lfsrRange * 100uL) / snsClkDivider);
2698:Generated_Source\PSoC4/key_touch_Sensing.c ****         lfsrScale = 0uL;
2699:Generated_Source\PSoC4/key_touch_Sensing.c ****         
2700:Generated_Source\PSoC4/key_touch_Sensing.c ****         while(lfsrDither < key_touch_LFSR_DITHER_PERCENTAGE)
2701:Generated_Source\PSoC4/key_touch_Sensing.c ****         {
2702:Generated_Source\PSoC4/key_touch_Sensing.c ****             lfsrScale++;
2703:Generated_Source\PSoC4/key_touch_Sensing.c ****             lfsrDither <<=1uL;
2704:Generated_Source\PSoC4/key_touch_Sensing.c ****         }
ARM GAS  C:\Users\Administrator\AppData\Local\Temp\ccPYRpEO.s 			page 61


2705:Generated_Source\PSoC4/key_touch_Sensing.c **** 
2706:Generated_Source\PSoC4/key_touch_Sensing.c ****         if(lfsrDither > key_touch_LFSR_DITHER_PERCENTAGE)
2707:Generated_Source\PSoC4/key_touch_Sensing.c ****         {
2708:Generated_Source\PSoC4/key_touch_Sensing.c ****             lfsrScale--;
2709:Generated_Source\PSoC4/key_touch_Sensing.c ****         }
2710:Generated_Source\PSoC4/key_touch_Sensing.c ****     }
2711:Generated_Source\PSoC4/key_touch_Sensing.c ****     else
2712:Generated_Source\PSoC4/key_touch_Sensing.c ****     {
2713:Generated_Source\PSoC4/key_touch_Sensing.c ****         lfsrScale = 0uL;
2714:Generated_Source\PSoC4/key_touch_Sensing.c ****     }
2715:Generated_Source\PSoC4/key_touch_Sensing.c **** 
2716:Generated_Source\PSoC4/key_touch_Sensing.c ****     return ((uint8)lfsrScale);
2717:Generated_Source\PSoC4/key_touch_Sensing.c **** }
2718:Generated_Source\PSoC4/key_touch_Sensing.c **** #endif /* (((key_touch_ENABLE == key_touch_CSX_EN) &&  \
2719:Generated_Source\PSoC4/key_touch_Sensing.c ****             (key_touch_ENABLE == key_touch_CSDV2) &&  \
2720:Generated_Source\PSoC4/key_touch_Sensing.c ****             (key_touch_CLK_SOURCE_PRSAUTO == key_touch_CSX_TX_CLK_SOURCE)) ||\
2721:Generated_Source\PSoC4/key_touch_Sensing.c ****           ((key_touch_ENABLE == key_touch_CSD_EN) &&  \
2722:Generated_Source\PSoC4/key_touch_Sensing.c ****            (key_touch_ENABLE == key_touch_CSDV2) &&  \
2723:Generated_Source\PSoC4/key_touch_Sensing.c ****            (key_touch_CLK_SOURCE_PRSAUTO == key_touch_CSD_SNS_CLK_SOURCE))) */
2724:Generated_Source\PSoC4/key_touch_Sensing.c **** 
2725:Generated_Source\PSoC4/key_touch_Sensing.c **** 
2726:Generated_Source\PSoC4/key_touch_Sensing.c **** #if ((key_touch_ENABLE == key_touch_CSD_EN) ||\
2727:Generated_Source\PSoC4/key_touch_Sensing.c ****     (key_touch_ENABLE == key_touch_CSD2X_EN))
2728:Generated_Source\PSoC4/key_touch_Sensing.c ****     /*******************************************************************************
2729:Generated_Source\PSoC4/key_touch_Sensing.c ****     * Function Name: key_touch_SsClearCSDSensors
2730:Generated_Source\PSoC4/key_touch_Sensing.c ****     ****************************************************************************//**
2731:Generated_Source\PSoC4/key_touch_Sensing.c ****     *
2732:Generated_Source\PSoC4/key_touch_Sensing.c ****     * \brief
2733:Generated_Source\PSoC4/key_touch_Sensing.c ****     *  Resets all the CSD sensors to the non-sampling state by sequentially
2734:Generated_Source\PSoC4/key_touch_Sensing.c ****     *  disconnecting all the sensors from the Analog MUX bus and putting them to
2735:Generated_Source\PSoC4/key_touch_Sensing.c ****     *  an inactive state.
2736:Generated_Source\PSoC4/key_touch_Sensing.c ****     *
2737:Generated_Source\PSoC4/key_touch_Sensing.c ****     * \details
2738:Generated_Source\PSoC4/key_touch_Sensing.c ****     *   The function goes through all the widgets and updates appropriate bits in
2739:Generated_Source\PSoC4/key_touch_Sensing.c ****     *   the IO HSIOM, PC and DR registers depending on the Inactive sensor connection
2740:Generated_Source\PSoC4/key_touch_Sensing.c ****     *   parameter. DR register bits are set to zero when the Inactive sensor
2741:Generated_Source\PSoC4/key_touch_Sensing.c ****     *   connection is Ground or Hi-Z.
2742:Generated_Source\PSoC4/key_touch_Sensing.c ****     *
2743:Generated_Source\PSoC4/key_touch_Sensing.c ****     *******************************************************************************/
2744:Generated_Source\PSoC4/key_touch_Sensing.c ****     void key_touch_SsClearCSDSensors(void)
2745:Generated_Source\PSoC4/key_touch_Sensing.c ****     {
 704              		.loc 1 2745 0
 705              		.cfi_startproc
 706 0000 70B5     		push	{r4, r5, r6, lr}
 707              		.cfi_def_cfa_offset 16
 708              		.cfi_offset 4, -16
 709              		.cfi_offset 5, -12
 710              		.cfi_offset 6, -8
 711              		.cfi_offset 14, -4
 712              	.LVL74:
2746:Generated_Source\PSoC4/key_touch_Sensing.c ****         uint32 wdgtIndex;
2747:Generated_Source\PSoC4/key_touch_Sensing.c ****         uint32 snsIndex;
2748:Generated_Source\PSoC4/key_touch_Sensing.c **** 
2749:Generated_Source\PSoC4/key_touch_Sensing.c ****         #if (key_touch_ENABLE == key_touch_CSD_GANGED_SNS_EN)
2750:Generated_Source\PSoC4/key_touch_Sensing.c ****             uint32 pinIndex;
2751:Generated_Source\PSoC4/key_touch_Sensing.c ****         #endif /* (key_touch_ENABLE == key_touch_CSD_GANGED_SNS_EN)  */
2752:Generated_Source\PSoC4/key_touch_Sensing.c **** 
ARM GAS  C:\Users\Administrator\AppData\Local\Temp\ccPYRpEO.s 			page 62


2753:Generated_Source\PSoC4/key_touch_Sensing.c ****         #if (key_touch_ENABLE == key_touch_CSD_GANGED_SNS_EN)
2754:Generated_Source\PSoC4/key_touch_Sensing.c ****             /* Declare ptr to sensor IO structure */
2755:Generated_Source\PSoC4/key_touch_Sensing.c ****             key_touch_FLASH_IO_STRUCT const *curDedicatedSnsIOPtr;
2756:Generated_Source\PSoC4/key_touch_Sensing.c ****             /*  Pointer to Flash structure holding info of sensor to be scanned  */
2757:Generated_Source\PSoC4/key_touch_Sensing.c ****             key_touch_FLASH_SNS_STRUCT const *curFlashSnsPtr;
2758:Generated_Source\PSoC4/key_touch_Sensing.c ****         #endif /* (key_touch_ENABLE == key_touch_CSD_GANGED_SNS_EN)  */
2759:Generated_Source\PSoC4/key_touch_Sensing.c ****         key_touch_FLASH_IO_STRUCT const *curSnsIOPtr;
2760:Generated_Source\PSoC4/key_touch_Sensing.c **** 
2761:Generated_Source\PSoC4/key_touch_Sensing.c ****         for (wdgtIndex = 0u; wdgtIndex < key_touch_TOTAL_WIDGETS; wdgtIndex++)
 713              		.loc 1 2761 0
 714 0002 0025     		mov	r5, #0
 715 0004 16E0     		b	.L59
 716              	.LVL75:
 717              	.L62:
2762:Generated_Source\PSoC4/key_touch_Sensing.c ****         {
2763:Generated_Source\PSoC4/key_touch_Sensing.c ****             if (key_touch_SENSE_METHOD_CSD_E ==
2764:Generated_Source\PSoC4/key_touch_Sensing.c ****                 key_touch_GET_SENSE_METHOD(&key_touch_dsFlash.wdgtArray[wdgtIndex]))
2765:Generated_Source\PSoC4/key_touch_Sensing.c ****             {
2766:Generated_Source\PSoC4/key_touch_Sensing.c ****                 curSnsIOPtr = (key_touch_FLASH_IO_STRUCT const *)
 718              		.loc 1 2766 0
 719 0006 EB00     		lsl	r3, r5, #3
 720 0008 5B1B     		sub	r3, r3, r5
 721 000a 9B00     		lsl	r3, r3, #2
 722 000c 0B4A     		ldr	r2, .L63
 723 000e 9E58     		ldr	r6, [r3, r2]
 724              	.LVL76:
2767:Generated_Source\PSoC4/key_touch_Sensing.c ****                                                 key_touch_dsFlash.wdgtArray[wdgtIndex].ptr2SnsFlash
2768:Generated_Source\PSoC4/key_touch_Sensing.c **** 
2769:Generated_Source\PSoC4/key_touch_Sensing.c ****                 /* Go through all sensors in widget */
2770:Generated_Source\PSoC4/key_touch_Sensing.c ****                 for (snsIndex = 0u; snsIndex < (uint8)key_touch_dsFlash.wdgtArray[(wdgtIndex)].tota
 725              		.loc 1 2770 0
 726 0010 0024     		mov	r4, #0
 727 0012 06E0     		b	.L60
 728              	.LVL77:
 729              	.L61:
2771:Generated_Source\PSoC4/key_touch_Sensing.c ****                 {
2772:Generated_Source\PSoC4/key_touch_Sensing.c ****                     #if (key_touch_ENABLE == key_touch_CSD_GANGED_SNS_EN)
2773:Generated_Source\PSoC4/key_touch_Sensing.c ****                         /* Check ganged sns flag  */
2774:Generated_Source\PSoC4/key_touch_Sensing.c ****                         if (key_touch_GANGED_SNS_MASK == (key_touch_dsFlash.wdgtArray[wdgtIndex].st
2775:Generated_Source\PSoC4/key_touch_Sensing.c ****                                                                  key_touch_GANGED_SNS_MASK))
2776:Generated_Source\PSoC4/key_touch_Sensing.c ****                         {
2777:Generated_Source\PSoC4/key_touch_Sensing.c ****                             /* Get sns pointer */
2778:Generated_Source\PSoC4/key_touch_Sensing.c ****                             curFlashSnsPtr = (key_touch_FLASH_SNS_STRUCT const *)
2779:Generated_Source\PSoC4/key_touch_Sensing.c ****                                                                key_touch_dsFlash.wdgtArray[wdgtInde
2780:Generated_Source\PSoC4/key_touch_Sensing.c ****                                                                snsIndex;
2781:Generated_Source\PSoC4/key_touch_Sensing.c **** 
2782:Generated_Source\PSoC4/key_touch_Sensing.c ****                             for(pinIndex = 0u; pinIndex < curFlashSnsPtr->numPins; pinIndex++)
2783:Generated_Source\PSoC4/key_touch_Sensing.c ****                             {
2784:Generated_Source\PSoC4/key_touch_Sensing.c ****                                 /* Get IO pointer for dedicated pin */
2785:Generated_Source\PSoC4/key_touch_Sensing.c ****                                 curDedicatedSnsIOPtr = &key_touch_ioList[curFlashSnsPtr->firstPinId
2786:Generated_Source\PSoC4/key_touch_Sensing.c **** 
2787:Generated_Source\PSoC4/key_touch_Sensing.c ****                                 /* Disconnect dedicated pin */
2788:Generated_Source\PSoC4/key_touch_Sensing.c ****                                 key_touch_CSDDisconnectSns(curDedicatedSnsIOPtr);
2789:Generated_Source\PSoC4/key_touch_Sensing.c ****                             }
2790:Generated_Source\PSoC4/key_touch_Sensing.c ****                         }
2791:Generated_Source\PSoC4/key_touch_Sensing.c ****                         else
2792:Generated_Source\PSoC4/key_touch_Sensing.c ****                         {
ARM GAS  C:\Users\Administrator\AppData\Local\Temp\ccPYRpEO.s 			page 63


2793:Generated_Source\PSoC4/key_touch_Sensing.c ****                             /* Disable sensor */
2794:Generated_Source\PSoC4/key_touch_Sensing.c ****                             key_touch_CSDDisconnectSns(&curSnsIOPtr[snsIndex]);
2795:Generated_Source\PSoC4/key_touch_Sensing.c ****                         }
2796:Generated_Source\PSoC4/key_touch_Sensing.c ****                     #else
2797:Generated_Source\PSoC4/key_touch_Sensing.c ****                         /* Disable sensor */
2798:Generated_Source\PSoC4/key_touch_Sensing.c ****                         key_touch_CSDDisconnectSns(&curSnsIOPtr[snsIndex]);
 730              		.loc 1 2798 0 discriminator 3
 731 0014 E000     		lsl	r0, r4, #3
 732 0016 001B     		sub	r0, r0, r4
 733 0018 8000     		lsl	r0, r0, #2
 734 001a 3018     		add	r0, r6, r0
 735 001c FFF7FEFF 		bl	key_touch_CSDDisconnectSns
 736              	.LVL78:
2770:Generated_Source\PSoC4/key_touch_Sensing.c ****                 {
 737              		.loc 1 2770 0 discriminator 3
 738 0020 0134     		add	r4, r4, #1
 739              	.LVL79:
 740              	.L60:
2770:Generated_Source\PSoC4/key_touch_Sensing.c ****                 {
 741              		.loc 1 2770 0 is_stmt 0 discriminator 1
 742 0022 EB00     		lsl	r3, r5, #3
 743 0024 5B1B     		sub	r3, r3, r5
 744 0026 9B00     		lsl	r3, r3, #2
 745 0028 044A     		ldr	r2, .L63
 746 002a D318     		add	r3, r2, r3
 747 002c 9B7D     		ldrb	r3, [r3, #22]
 748 002e A342     		cmp	r3, r4
 749 0030 F0D8     		bhi	.L61
2761:Generated_Source\PSoC4/key_touch_Sensing.c ****         {
 750              		.loc 1 2761 0 is_stmt 1 discriminator 2
 751 0032 0135     		add	r5, r5, #1
 752              	.LVL80:
 753              	.L59:
2761:Generated_Source\PSoC4/key_touch_Sensing.c ****         {
 754              		.loc 1 2761 0 is_stmt 0 discriminator 1
 755 0034 0B2D     		cmp	r5, #11
 756 0036 E6D9     		bls	.L62
2799:Generated_Source\PSoC4/key_touch_Sensing.c ****                     #endif /* (key_touch_ENABLE == key_touch_CSD_GANGED_SNS_EN)  */
2800:Generated_Source\PSoC4/key_touch_Sensing.c ****                 }
2801:Generated_Source\PSoC4/key_touch_Sensing.c ****             }
2802:Generated_Source\PSoC4/key_touch_Sensing.c ****         }
2803:Generated_Source\PSoC4/key_touch_Sensing.c ****     }
 757              		.loc 1 2803 0 is_stmt 1
 758              		@ sp needed
 759              	.LVL81:
 760 0038 70BD     		pop	{r4, r5, r6, pc}
 761              	.L64:
 762 003a C046     		.align	2
 763              	.L63:
 764 003c 00000000 		.word	key_touch_dsFlash
 765              		.cfi_endproc
 766              	.LFE18:
 767              		.size	key_touch_SsClearCSDSensors, .-key_touch_SsClearCSDSensors
 768              		.section	.text.key_touch_SsCSDGetColSnsClkDivider,"ax",%progbits
 769              		.align	2
 770              		.global	key_touch_SsCSDGetColSnsClkDivider
 771              		.code	16
ARM GAS  C:\Users\Administrator\AppData\Local\Temp\ccPYRpEO.s 			page 64


 772              		.thumb_func
 773              		.type	key_touch_SsCSDGetColSnsClkDivider, %function
 774              	key_touch_SsCSDGetColSnsClkDivider:
 775              	.LFB19:
2804:Generated_Source\PSoC4/key_touch_Sensing.c **** 
2805:Generated_Source\PSoC4/key_touch_Sensing.c ****     /*******************************************************************************
2806:Generated_Source\PSoC4/key_touch_Sensing.c ****     * Function Name: key_touch_SsCSDGetColSnsClkDivider
2807:Generated_Source\PSoC4/key_touch_Sensing.c ****     ****************************************************************************//**
2808:Generated_Source\PSoC4/key_touch_Sensing.c ****     *
2809:Generated_Source\PSoC4/key_touch_Sensing.c ****     * \brief
2810:Generated_Source\PSoC4/key_touch_Sensing.c ****     *  This function gets the Sense Clock Divider value for one-dimension widgets
2811:Generated_Source\PSoC4/key_touch_Sensing.c ****     *  and Column Sense Clock divider value for two-dimension widgets.
2812:Generated_Source\PSoC4/key_touch_Sensing.c ****     *
2813:Generated_Source\PSoC4/key_touch_Sensing.c ****     * \details
2814:Generated_Source\PSoC4/key_touch_Sensing.c ****     *  This function gets the Sense Clock Divider value based on the component
2815:Generated_Source\PSoC4/key_touch_Sensing.c ****     *  configuration. The function is applicable for one-dimension widgets and for
2816:Generated_Source\PSoC4/key_touch_Sensing.c ****     *  two-dimension widgets.
2817:Generated_Source\PSoC4/key_touch_Sensing.c ****     *
2818:Generated_Source\PSoC4/key_touch_Sensing.c ****     * \param
2819:Generated_Source\PSoC4/key_touch_Sensing.c ****     *  wdgtIndex Specifies the ID of the widget.
2820:Generated_Source\PSoC4/key_touch_Sensing.c ****     *
2821:Generated_Source\PSoC4/key_touch_Sensing.c ****     * \return The Sense Clock Divider value for one-dimension widgets
2822:Generated_Source\PSoC4/key_touch_Sensing.c ****     *         and the Column Sense Clock divider value for two-dimension widgets.
2823:Generated_Source\PSoC4/key_touch_Sensing.c ****     *
2824:Generated_Source\PSoC4/key_touch_Sensing.c ****     *******************************************************************************/
2825:Generated_Source\PSoC4/key_touch_Sensing.c ****     uint32 key_touch_SsCSDGetColSnsClkDivider(uint32 wdgtIndex)
2826:Generated_Source\PSoC4/key_touch_Sensing.c ****     {
 776              		.loc 1 2826 0
 777              		.cfi_startproc
 778              	.LVL82:
2827:Generated_Source\PSoC4/key_touch_Sensing.c ****         uint32 retVal;
2828:Generated_Source\PSoC4/key_touch_Sensing.c **** 
2829:Generated_Source\PSoC4/key_touch_Sensing.c ****         /* Get sense divider based on configuration */
2830:Generated_Source\PSoC4/key_touch_Sensing.c ****         #if (key_touch_ENABLE != key_touch_CSD_COMMON_SNS_CLK_EN)
2831:Generated_Source\PSoC4/key_touch_Sensing.c ****             key_touch_RAM_WD_BASE_STRUCT *ptrWdgt;
2832:Generated_Source\PSoC4/key_touch_Sensing.c **** 
2833:Generated_Source\PSoC4/key_touch_Sensing.c ****             ptrWdgt = (key_touch_RAM_WD_BASE_STRUCT *)
2834:Generated_Source\PSoC4/key_touch_Sensing.c ****             key_touch_dsFlash.wdgtArray[wdgtIndex].ptr2WdgtRam;
2835:Generated_Source\PSoC4/key_touch_Sensing.c **** 
2836:Generated_Source\PSoC4/key_touch_Sensing.c ****             retVal = (uint32)(ptrWdgt->snsClk);
2837:Generated_Source\PSoC4/key_touch_Sensing.c ****         #else
2838:Generated_Source\PSoC4/key_touch_Sensing.c ****             retVal = (uint32)key_touch_dsRam.snsCsdClk;
 779              		.loc 1 2838 0
 780 0000 2323     		mov	r3, #35
 781 0002 014A     		ldr	r2, .L66
 782 0004 D05C     		ldrb	r0, [r2, r3]
 783              	.LVL83:
2839:Generated_Source\PSoC4/key_touch_Sensing.c **** 
2840:Generated_Source\PSoC4/key_touch_Sensing.c ****             (void)wdgtIndex; /* This parameter is unused in such configurations */
2841:Generated_Source\PSoC4/key_touch_Sensing.c ****         #endif /* (key_touch_ENABLE == key_touch_CSD_COMMON_SNS_CLK_EN) */
2842:Generated_Source\PSoC4/key_touch_Sensing.c **** 
2843:Generated_Source\PSoC4/key_touch_Sensing.c ****         return (retVal);
2844:Generated_Source\PSoC4/key_touch_Sensing.c ****     }
 784              		.loc 1 2844 0
 785              		@ sp needed
 786 0006 7047     		bx	lr
 787              	.L67:
ARM GAS  C:\Users\Administrator\AppData\Local\Temp\ccPYRpEO.s 			page 65


 788              		.align	2
 789              	.L66:
 790 0008 00000000 		.word	key_touch_dsRam
 791              		.cfi_endproc
 792              	.LFE19:
 793              		.size	key_touch_SsCSDGetColSnsClkDivider, .-key_touch_SsCSDGetColSnsClkDivider
 794              		.section	.text.key_touch_SsCSDCalcPrsSize,"ax",%progbits
 795              		.align	2
 796              		.global	key_touch_SsCSDCalcPrsSize
 797              		.code	16
 798              		.thumb_func
 799              		.type	key_touch_SsCSDCalcPrsSize, %function
 800              	key_touch_SsCSDCalcPrsSize:
 801              	.LFB20:
2845:Generated_Source\PSoC4/key_touch_Sensing.c **** 
2846:Generated_Source\PSoC4/key_touch_Sensing.c **** 
2847:Generated_Source\PSoC4/key_touch_Sensing.c ****     #if (key_touch_ENABLE == (key_touch_CSD_MATRIX_WIDGET_EN | key_touch_CSD_TOUCHPAD_WIDGET_EN))
2848:Generated_Source\PSoC4/key_touch_Sensing.c ****         /*******************************************************************************
2849:Generated_Source\PSoC4/key_touch_Sensing.c ****         * Function Name: key_touch_SsCSDGetRowSnsClkDivider
2850:Generated_Source\PSoC4/key_touch_Sensing.c ****         ****************************************************************************//**
2851:Generated_Source\PSoC4/key_touch_Sensing.c ****         *
2852:Generated_Source\PSoC4/key_touch_Sensing.c ****         * \brief
2853:Generated_Source\PSoC4/key_touch_Sensing.c ****         *  This function gets the Sense Clock Divider value for one-dimension widgets
2854:Generated_Source\PSoC4/key_touch_Sensing.c ****         *  and the Column Sense Clock divider value for two-dimension widgets.
2855:Generated_Source\PSoC4/key_touch_Sensing.c ****         *
2856:Generated_Source\PSoC4/key_touch_Sensing.c ****         * \details
2857:Generated_Source\PSoC4/key_touch_Sensing.c ****         *  This function gets the Sense Clock Divider value based on the component
2858:Generated_Source\PSoC4/key_touch_Sensing.c ****         *  configuration. The function is applicable for one-dimension widgets and for
2859:Generated_Source\PSoC4/key_touch_Sensing.c ****         *  two-dimension widgets.
2860:Generated_Source\PSoC4/key_touch_Sensing.c ****         *
2861:Generated_Source\PSoC4/key_touch_Sensing.c ****         * \param
2862:Generated_Source\PSoC4/key_touch_Sensing.c ****         *  wdgtIndex Specifies the ID of the widget.
2863:Generated_Source\PSoC4/key_touch_Sensing.c ****         *
2864:Generated_Source\PSoC4/key_touch_Sensing.c ****         * \return The Sense Clock Divider value for one-dimension widgets
2865:Generated_Source\PSoC4/key_touch_Sensing.c ****         *         and Column Sense Clock divider value for two-dimension widgets.
2866:Generated_Source\PSoC4/key_touch_Sensing.c ****         *
2867:Generated_Source\PSoC4/key_touch_Sensing.c ****         *******************************************************************************/
2868:Generated_Source\PSoC4/key_touch_Sensing.c ****         uint32 key_touch_SsCSDGetRowSnsClkDivider(uint32 wdgtIndex)
2869:Generated_Source\PSoC4/key_touch_Sensing.c ****         {
2870:Generated_Source\PSoC4/key_touch_Sensing.c ****             uint32 retVal;
2871:Generated_Source\PSoC4/key_touch_Sensing.c **** 
2872:Generated_Source\PSoC4/key_touch_Sensing.c ****             /* Get sense divider based on configuration */
2873:Generated_Source\PSoC4/key_touch_Sensing.c ****             #if (key_touch_ENABLE != key_touch_CSD_COMMON_SNS_CLK_EN)
2874:Generated_Source\PSoC4/key_touch_Sensing.c ****                 key_touch_RAM_WD_BASE_STRUCT *ptrWdgt;
2875:Generated_Source\PSoC4/key_touch_Sensing.c **** 
2876:Generated_Source\PSoC4/key_touch_Sensing.c ****                 ptrWdgt = (key_touch_RAM_WD_BASE_STRUCT *)
2877:Generated_Source\PSoC4/key_touch_Sensing.c ****                 key_touch_dsFlash.wdgtArray[wdgtIndex].ptr2WdgtRam;
2878:Generated_Source\PSoC4/key_touch_Sensing.c **** 
2879:Generated_Source\PSoC4/key_touch_Sensing.c ****                 retVal = ptrWdgt->rowSnsClk;
2880:Generated_Source\PSoC4/key_touch_Sensing.c ****             #else
2881:Generated_Source\PSoC4/key_touch_Sensing.c ****                 retVal = (uint32)key_touch_dsRam.snsCsdClk;
2882:Generated_Source\PSoC4/key_touch_Sensing.c **** 
2883:Generated_Source\PSoC4/key_touch_Sensing.c ****                 (void)wdgtIndex; /* This parameter is unused in such configurations */
2884:Generated_Source\PSoC4/key_touch_Sensing.c ****             #endif /* (key_touch_ENABLE == key_touch_CSD_COMMON_SNS_CLK_EN) */
2885:Generated_Source\PSoC4/key_touch_Sensing.c **** 
2886:Generated_Source\PSoC4/key_touch_Sensing.c ****             return (retVal);
2887:Generated_Source\PSoC4/key_touch_Sensing.c ****         }
ARM GAS  C:\Users\Administrator\AppData\Local\Temp\ccPYRpEO.s 			page 66


2888:Generated_Source\PSoC4/key_touch_Sensing.c ****     #endif /* (key_touch_ENABLE == (key_touch_CSD_MATRIX_WIDGET_EN | key_touch_CSD_TOUCHPAD_WIDGET_
2889:Generated_Source\PSoC4/key_touch_Sensing.c **** 
2890:Generated_Source\PSoC4/key_touch_Sensing.c ****     #if (key_touch_CLK_SOURCE_PRSAUTO == key_touch_CSD_SNS_CLK_SOURCE)
2891:Generated_Source\PSoC4/key_touch_Sensing.c ****         /*******************************************************************************
2892:Generated_Source\PSoC4/key_touch_Sensing.c ****         * Function Name: key_touch_SsCSDCalcPrsSize
2893:Generated_Source\PSoC4/key_touch_Sensing.c ****         ****************************************************************************//**
2894:Generated_Source\PSoC4/key_touch_Sensing.c ****         *
2895:Generated_Source\PSoC4/key_touch_Sensing.c ****         * \brief
2896:Generated_Source\PSoC4/key_touch_Sensing.c ****         *   The function finds PRS polynomial size in the Auto mode.
2897:Generated_Source\PSoC4/key_touch_Sensing.c ****         *
2898:Generated_Source\PSoC4/key_touch_Sensing.c ****         * \details
2899:Generated_Source\PSoC4/key_touch_Sensing.c ****         *   The PRS polynomial size in the Auto mode is found based on the following
2900:Generated_Source\PSoC4/key_touch_Sensing.c ****         *   requirements:
2901:Generated_Source\PSoC4/key_touch_Sensing.c ****         *   - at least one full spread spectrum polynomial should pass during scan time.
2902:Generated_Source\PSoC4/key_touch_Sensing.c ****         *
2903:Generated_Source\PSoC4/key_touch_Sensing.c ****         * \param
2904:Generated_Source\PSoC4/key_touch_Sensing.c ****         *  snsClkDivider The divider value for the sense clock.
2905:Generated_Source\PSoC4/key_touch_Sensing.c ****         *  resolution The widget resolution.
2906:Generated_Source\PSoC4/key_touch_Sensing.c ****         *
2907:Generated_Source\PSoC4/key_touch_Sensing.c ****         * \return prsSize PRS value for SENSE_PERIOD register.
2908:Generated_Source\PSoC4/key_touch_Sensing.c ****         *
2909:Generated_Source\PSoC4/key_touch_Sensing.c ****         *******************************************************************************/
2910:Generated_Source\PSoC4/key_touch_Sensing.c ****         uint8 key_touch_SsCSDCalcPrsSize(uint32 snsClkDivider, uint32 resolution)
2911:Generated_Source\PSoC4/key_touch_Sensing.c ****         {
 802              		.loc 1 2911 0
 803              		.cfi_startproc
 804              	.LVL84:
2912:Generated_Source\PSoC4/key_touch_Sensing.c ****             uint32 prsSize;
2913:Generated_Source\PSoC4/key_touch_Sensing.c ****             uint32 modClkDivider;
2914:Generated_Source\PSoC4/key_touch_Sensing.c **** 
2915:Generated_Source\PSoC4/key_touch_Sensing.c ****             #if (key_touch_ENABLE == key_touch_CSDV2)
2916:Generated_Source\PSoC4/key_touch_Sensing.c ****                 modClkDivider = 1uL;
2917:Generated_Source\PSoC4/key_touch_Sensing.c ****             #else
2918:Generated_Source\PSoC4/key_touch_Sensing.c ****                 #if (key_touch_ENABLE == key_touch_IS_M0S8PERI_BLOCK)
2919:Generated_Source\PSoC4/key_touch_Sensing.c ****                     modClkDivider = (uint32)key_touch_dsRam.modCsdClk;
2920:Generated_Source\PSoC4/key_touch_Sensing.c ****                 #else
2921:Generated_Source\PSoC4/key_touch_Sensing.c ****                     modClkDivider = 1uL;
2922:Generated_Source\PSoC4/key_touch_Sensing.c ****                 #endif /* (key_touch_ENABLE == key_touch_IS_M0S8PERI_BLOCK) */
2923:Generated_Source\PSoC4/key_touch_Sensing.c ****             #endif /* (key_touch_ENABLE == key_touch_CSDV2) */
2924:Generated_Source\PSoC4/key_touch_Sensing.c **** 
2925:Generated_Source\PSoC4/key_touch_Sensing.c ****             if ((snsClkDivider * key_touch_PRS_LENGTH_12_BITS) <
 805              		.loc 1 2925 0
 806 0000 0203     		lsl	r2, r0, #12
 807 0002 121A     		sub	r2, r2, r0
2926:Generated_Source\PSoC4/key_touch_Sensing.c ****                 (modClkDivider * ((0x00000001Lu << resolution) - 1u)))
 808              		.loc 1 2926 0
 809 0004 0123     		mov	r3, #1
 810 0006 8B40     		lsl	r3, r3, r1
 811 0008 191C     		mov	r1, r3
 812              	.LVL85:
 813 000a 0139     		sub	r1, r1, #1
2925:Generated_Source\PSoC4/key_touch_Sensing.c ****                 (modClkDivider * ((0x00000001Lu << resolution) - 1u)))
 814              		.loc 1 2925 0
 815 000c 8A42     		cmp	r2, r1
 816 000e 05D3     		bcc	.L70
2927:Generated_Source\PSoC4/key_touch_Sensing.c ****             {
2928:Generated_Source\PSoC4/key_touch_Sensing.c ****                 /* Set PRS12 mode */
ARM GAS  C:\Users\Administrator\AppData\Local\Temp\ccPYRpEO.s 			page 67


2929:Generated_Source\PSoC4/key_touch_Sensing.c ****                 prsSize = key_touch_PRS_12_CONFIG;
2930:Generated_Source\PSoC4/key_touch_Sensing.c ****             }
2931:Generated_Source\PSoC4/key_touch_Sensing.c ****             else if ((snsClkDivider * key_touch_PRS_LENGTH_8_BITS) <
 817              		.loc 1 2931 0
 818 0010 0302     		lsl	r3, r0, #8
 819 0012 181A     		sub	r0, r3, r0
 820              	.LVL86:
 821 0014 8142     		cmp	r1, r0
 822 0016 03D9     		bls	.L71
2932:Generated_Source\PSoC4/key_touch_Sensing.c ****                      (modClkDivider * ((0x00000001Lu << resolution) - 1u)))
2933:Generated_Source\PSoC4/key_touch_Sensing.c ****             {
2934:Generated_Source\PSoC4/key_touch_Sensing.c ****                 /* Set PRS8 mode */
2935:Generated_Source\PSoC4/key_touch_Sensing.c ****                 prsSize = key_touch_PRS_8_CONFIG;
 823              		.loc 1 2935 0
 824 0018 0520     		mov	r0, #5
 825 001a 02E0     		b	.L69
 826              	.LVL87:
 827              	.L70:
2929:Generated_Source\PSoC4/key_touch_Sensing.c ****             }
 828              		.loc 1 2929 0
 829 001c 0620     		mov	r0, #6
 830              	.LVL88:
 831 001e 00E0     		b	.L69
 832              	.L71:
2936:Generated_Source\PSoC4/key_touch_Sensing.c ****             }
2937:Generated_Source\PSoC4/key_touch_Sensing.c ****             else
2938:Generated_Source\PSoC4/key_touch_Sensing.c ****             {
2939:Generated_Source\PSoC4/key_touch_Sensing.c ****                 /* Set Direct clock mode */
2940:Generated_Source\PSoC4/key_touch_Sensing.c ****                 prsSize = key_touch_CLK_SOURCE_DIRECT;
 833              		.loc 1 2940 0
 834 0020 0020     		mov	r0, #0
 835              	.L69:
 836              	.LVL89:
2941:Generated_Source\PSoC4/key_touch_Sensing.c ****             }
2942:Generated_Source\PSoC4/key_touch_Sensing.c **** 
2943:Generated_Source\PSoC4/key_touch_Sensing.c ****             return (uint8)prsSize;
 837              		.loc 1 2943 0
 838 0022 C0B2     		uxtb	r0, r0
 839              	.LVL90:
2944:Generated_Source\PSoC4/key_touch_Sensing.c ****         }
 840              		.loc 1 2944 0
 841              		@ sp needed
 842 0024 7047     		bx	lr
 843              		.cfi_endproc
 844              	.LFE20:
 845              		.size	key_touch_SsCSDCalcPrsSize, .-key_touch_SsCSDCalcPrsSize
 846              		.global	__aeabi_uidivmod
 847              		.global	__aeabi_uidiv
 848 0026 C046     		.section	.text.key_touch_SsSetWidgetSenseClkSrc,"ax",%progbits
 849              		.align	2
 850              		.code	16
 851              		.thumb_func
 852              		.type	key_touch_SsSetWidgetSenseClkSrc, %function
 853              	key_touch_SsSetWidgetSenseClkSrc:
 854              	.LFB15:
2445:Generated_Source\PSoC4/key_touch_Sensing.c ****         uint8 lfsrSize;
 855              		.loc 1 2445 0
ARM GAS  C:\Users\Administrator\AppData\Local\Temp\ccPYRpEO.s 			page 68


 856              		.cfi_startproc
 857              	.LVL91:
 858 0000 70B5     		push	{r4, r5, r6, lr}
 859              		.cfi_def_cfa_offset 16
 860              		.cfi_offset 4, -16
 861              		.cfi_offset 5, -12
 862              		.cfi_offset 6, -8
 863              		.cfi_offset 14, -4
 864 0002 0E1C     		mov	r6, r1
2457:Generated_Source\PSoC4/key_touch_Sensing.c **** 
 865              		.loc 1 2457 0
 866 0004 FFF7FEFF 		bl	key_touch_SsCSDGetColSnsClkDivider
 867              	.LVL92:
 868 0008 051C     		mov	r5, r0
 869              	.LVL93:
2460:Generated_Source\PSoC4/key_touch_Sensing.c ****                                                                                              key_to
 870              		.loc 1 2460 0
 871 000a 3188     		ldrh	r1, [r6]
 872 000c 0022     		mov	r2, #0
 873 000e FFF7FEFF 		bl	key_touch_SsCSDGetNumberOfConversions
 874              	.LVL94:
 875 0012 041C     		mov	r4, r0
 876              	.LVL95:
 877              	.LBB6:
 878              	.LBB7:
2585:Generated_Source\PSoC4/key_touch_Sensing.c ****        (key_touch_SNSCLK_SSC4_PERIOD <= conversionsNum) &&
 879              		.loc 1 2585 0
 880 0014 9F2D     		cmp	r5, #159
 881 0016 08D9     		bls	.L73
 882 0018 FF23     		mov	r3, #255
 883 001a 5B00     		lsl	r3, r3, #1
 884 001c 9842     		cmp	r0, r3
 885 001e 04D9     		bls	.L73
2587:Generated_Source\PSoC4/key_touch_Sensing.c ****     {
 886              		.loc 1 2587 0
 887 0020 2C49     		ldr	r1, .L92
 888 0022 FFF7FEFF 		bl	__aeabi_uidivmod
 889              	.LVL96:
2586:Generated_Source\PSoC4/key_touch_Sensing.c ****        (0uL == (conversionsNum % key_touch_SNSCLK_SSC4_PERIOD)))
 890              		.loc 1 2586 0
 891 0026 0029     		cmp	r1, #0
 892 0028 1FD0     		beq	.L83
 893              	.L73:
2591:Generated_Source\PSoC4/key_touch_Sensing.c ****             (key_touch_SNSCLK_SSC3_PERIOD <= conversionsNum) &&
 894              		.loc 1 2591 0
 895 002a 9F2D     		cmp	r5, #159
 896 002c 07D9     		bls	.L75
 897 002e FE2C     		cmp	r4, #254
 898 0030 05D9     		bls	.L75
2593:Generated_Source\PSoC4/key_touch_Sensing.c ****     {
 899              		.loc 1 2593 0
 900 0032 201C     		mov	r0, r4
 901 0034 FF21     		mov	r1, #255
 902 0036 FFF7FEFF 		bl	__aeabi_uidivmod
 903              	.LVL97:
2592:Generated_Source\PSoC4/key_touch_Sensing.c ****             (0uL == (conversionsNum % key_touch_SNSCLK_SSC3_PERIOD)))
 904              		.loc 1 2592 0
ARM GAS  C:\Users\Administrator\AppData\Local\Temp\ccPYRpEO.s 			page 69


 905 003a 0029     		cmp	r1, #0
 906 003c 17D0     		beq	.L84
 907              	.L75:
2597:Generated_Source\PSoC4/key_touch_Sensing.c ****             (key_touch_SNSCLK_SSC2_PERIOD <= conversionsNum) &&
 908              		.loc 1 2597 0
 909 003e 9F2D     		cmp	r5, #159
 910 0040 07D9     		bls	.L76
 911 0042 7E2C     		cmp	r4, #126
 912 0044 05D9     		bls	.L76
2599:Generated_Source\PSoC4/key_touch_Sensing.c ****     {
 913              		.loc 1 2599 0
 914 0046 201C     		mov	r0, r4
 915 0048 7F21     		mov	r1, #127
 916 004a FFF7FEFF 		bl	__aeabi_uidivmod
 917              	.LVL98:
2598:Generated_Source\PSoC4/key_touch_Sensing.c ****             (0uL == (conversionsNum % key_touch_SNSCLK_SSC2_PERIOD)))
 918              		.loc 1 2598 0
 919 004e 0029     		cmp	r1, #0
 920 0050 0FD0     		beq	.L85
 921              	.L76:
2603:Generated_Source\PSoC4/key_touch_Sensing.c ****             (key_touch_SNSCLK_SSC1_PERIOD <= conversionsNum) &&
 922              		.loc 1 2603 0
 923 0052 9F2D     		cmp	r5, #159
 924 0054 0FD9     		bls	.L86
 925 0056 3E2C     		cmp	r4, #62
 926 0058 0FD9     		bls	.L87
2605:Generated_Source\PSoC4/key_touch_Sensing.c ****     {
 927              		.loc 1 2605 0
 928 005a 201C     		mov	r0, r4
 929 005c 3F21     		mov	r1, #63
 930 005e FFF7FEFF 		bl	__aeabi_uidivmod
 931              	.LVL99:
2604:Generated_Source\PSoC4/key_touch_Sensing.c ****             (0uL == (conversionsNum % key_touch_SNSCLK_SSC1_PERIOD)))
 932              		.loc 1 2604 0
 933 0062 0029     		cmp	r1, #0
 934 0064 0BD0     		beq	.L88
2611:Generated_Source\PSoC4/key_touch_Sensing.c ****     }
 935              		.loc 1 2611 0
 936 0066 0024     		mov	r4, #0
 937              	.LVL100:
 938 0068 0AE0     		b	.L74
 939              	.LVL101:
 940              	.L83:
2589:Generated_Source\PSoC4/key_touch_Sensing.c ****     }
 941              		.loc 1 2589 0
 942 006a 0424     		mov	r4, #4
 943              	.LVL102:
 944 006c 08E0     		b	.L74
 945              	.LVL103:
 946              	.L84:
2595:Generated_Source\PSoC4/key_touch_Sensing.c ****     }
 947              		.loc 1 2595 0
 948 006e 0324     		mov	r4, #3
 949              	.LVL104:
 950 0070 06E0     		b	.L74
 951              	.LVL105:
 952              	.L85:
ARM GAS  C:\Users\Administrator\AppData\Local\Temp\ccPYRpEO.s 			page 70


2601:Generated_Source\PSoC4/key_touch_Sensing.c ****     }
 953              		.loc 1 2601 0
 954 0072 0224     		mov	r4, #2
 955              	.LVL106:
 956 0074 04E0     		b	.L74
 957              	.LVL107:
 958              	.L86:
2611:Generated_Source\PSoC4/key_touch_Sensing.c ****     }
 959              		.loc 1 2611 0
 960 0076 0024     		mov	r4, #0
 961              	.LVL108:
 962 0078 02E0     		b	.L74
 963              	.LVL109:
 964              	.L87:
 965 007a 0024     		mov	r4, #0
 966              	.LVL110:
 967 007c 00E0     		b	.L74
 968              	.LVL111:
 969              	.L88:
2607:Generated_Source\PSoC4/key_touch_Sensing.c ****     }
 970              		.loc 1 2607 0
 971 007e 0124     		mov	r4, #1
 972              	.LVL112:
 973              	.L74:
 974              	.LBE7:
 975              	.LBE6:
2463:Generated_Source\PSoC4/key_touch_Sensing.c ****                 {
 976              		.loc 1 2463 0
 977 0080 002C     		cmp	r4, #0
 978 0082 04D1     		bne	.L77
2465:Generated_Source\PSoC4/key_touch_Sensing.c ****                 }
 979              		.loc 1 2465 0
 980 0084 3188     		ldrh	r1, [r6]
 981 0086 281C     		mov	r0, r5
 982 0088 FFF7FEFF 		bl	key_touch_SsCSDCalcPrsSize
 983              	.LVL113:
 984 008c 041C     		mov	r4, r0
 985              	.LVL114:
 986              	.L77:
 987              	.LBB8:
 988              	.LBB9:
2662:Generated_Source\PSoC4/key_touch_Sensing.c ****     {
 989              		.loc 1 2662 0
 990 008e 631E     		sub	r3, r4, #1
 991 0090 DBB2     		uxtb	r3, r3
 992 0092 032B     		cmp	r3, #3
 993 0094 01D8     		bhi	.L89
2666:Generated_Source\PSoC4/key_touch_Sensing.c ****             break;
 994              		.loc 1 2666 0
 995 0096 1020     		mov	r0, #16
 996 0098 00E0     		b	.L78
 997              	.L89:
2686:Generated_Source\PSoC4/key_touch_Sensing.c ****             break;
 998              		.loc 1 2686 0
 999 009a 0020     		mov	r0, #0
 1000              	.L78:
 1001              	.LVL115:
ARM GAS  C:\Users\Administrator\AppData\Local\Temp\ccPYRpEO.s 			page 71


2694:Generated_Source\PSoC4/key_touch_Sensing.c ****     {
 1002              		.loc 1 2694 0
 1003 009c 002C     		cmp	r4, #0
 1004 009e 10D0     		beq	.L90
 1005 00a0 0028     		cmp	r0, #0
 1006 00a2 10D0     		beq	.L91
2697:Generated_Source\PSoC4/key_touch_Sensing.c ****         lfsrScale = 0uL;
 1007              		.loc 1 2697 0
 1008 00a4 6423     		mov	r3, #100
 1009 00a6 5843     		mul	r0, r3
 1010              	.LVL116:
 1011 00a8 291C     		mov	r1, r5
 1012 00aa FFF7FEFF 		bl	__aeabi_uidiv
 1013              	.LVL117:
2698:Generated_Source\PSoC4/key_touch_Sensing.c ****         
 1014              		.loc 1 2698 0
 1015 00ae 0023     		mov	r3, #0
 1016 00b0 01E0     		b	.L81
 1017              	.LVL118:
 1018              	.L82:
2702:Generated_Source\PSoC4/key_touch_Sensing.c ****             lfsrDither <<=1uL;
 1019              		.loc 1 2702 0
 1020 00b2 0133     		add	r3, r3, #1
 1021              	.LVL119:
2703:Generated_Source\PSoC4/key_touch_Sensing.c ****         }
 1022              		.loc 1 2703 0
 1023 00b4 4000     		lsl	r0, r0, #1
 1024              	.LVL120:
 1025              	.L81:
2700:Generated_Source\PSoC4/key_touch_Sensing.c ****         {
 1026              		.loc 1 2700 0
 1027 00b6 0928     		cmp	r0, #9
 1028 00b8 FBD9     		bls	.L82
2706:Generated_Source\PSoC4/key_touch_Sensing.c ****         {
 1029              		.loc 1 2706 0
 1030 00ba 0A28     		cmp	r0, #10
 1031 00bc 04D9     		bls	.L80
2708:Generated_Source\PSoC4/key_touch_Sensing.c ****         }
 1032              		.loc 1 2708 0
 1033 00be 013B     		sub	r3, r3, #1
 1034              	.LVL121:
 1035 00c0 02E0     		b	.L80
 1036              	.LVL122:
 1037              	.L90:
2713:Generated_Source\PSoC4/key_touch_Sensing.c ****     }
 1038              		.loc 1 2713 0
 1039 00c2 0023     		mov	r3, #0
 1040 00c4 00E0     		b	.L80
 1041              	.L91:
 1042 00c6 0023     		mov	r3, #0
 1043              	.LVL123:
 1044              	.L80:
2716:Generated_Source\PSoC4/key_touch_Sensing.c **** }
 1045              		.loc 1 2716 0
 1046 00c8 DBB2     		uxtb	r3, r3
 1047              	.LVL124:
 1048              	.LBE9:
ARM GAS  C:\Users\Administrator\AppData\Local\Temp\ccPYRpEO.s 			page 72


 1049              	.LBE8:
2478:Generated_Source\PSoC4/key_touch_Sensing.c **** 
 1050              		.loc 1 2478 0
 1051 00ca 1B01     		lsl	r3, r3, #4
 1052 00cc 2343     		orr	r3, r4
 1053 00ce F372     		strb	r3, [r6, #11]
2505:Generated_Source\PSoC4/key_touch_Sensing.c **** #endif /* ((key_touch_ENABLE == key_touch_CSD_EN) ||\
 1054              		.loc 1 2505 0
 1055              		@ sp needed
 1056              	.LVL125:
 1057              	.LVL126:
 1058              	.LVL127:
 1059 00d0 70BD     		pop	{r4, r5, r6, pc}
 1060              	.L93:
 1061 00d2 C046     		.align	2
 1062              	.L92:
 1063 00d4 FF010000 		.word	511
 1064              		.cfi_endproc
 1065              	.LFE15:
 1066              		.size	key_touch_SsSetWidgetSenseClkSrc, .-key_touch_SsSetWidgetSenseClkSrc
 1067              		.section	.text.key_touch_SsInitializeSourceSenseClk,"ax",%progbits
 1068              		.align	2
 1069              		.global	key_touch_SsInitializeSourceSenseClk
 1070              		.code	16
 1071              		.thumb_func
 1072              		.type	key_touch_SsInitializeSourceSenseClk, %function
 1073              	key_touch_SsInitializeSourceSenseClk:
 1074              	.LFB14:
2395:Generated_Source\PSoC4/key_touch_Sensing.c ****     uint32 wdgtIndex;
 1075              		.loc 1 2395 0
 1076              		.cfi_startproc
 1077 0000 10B5     		push	{r4, lr}
 1078              		.cfi_def_cfa_offset 8
 1079              		.cfi_offset 4, -8
 1080              		.cfi_offset 14, -4
 1081              	.LVL128:
2399:Generated_Source\PSoC4/key_touch_Sensing.c ****     {
 1082              		.loc 1 2399 0
 1083 0002 0024     		mov	r4, #0
 1084 0004 09E0     		b	.L95
 1085              	.LVL129:
 1086              	.L96:
2401:Generated_Source\PSoC4/key_touch_Sensing.c ****         if (key_touch_SENSE_METHOD_CSD_E ==
 1087              		.loc 1 2401 0
 1088 0006 E300     		lsl	r3, r4, #3
 1089 0008 1B1B     		sub	r3, r3, r4
 1090 000a 9B00     		lsl	r3, r3, #2
 1091 000c 044A     		ldr	r2, .L97
 1092 000e D318     		add	r3, r2, r3
 1093 0010 5968     		ldr	r1, [r3, #4]
 1094              	.LVL130:
2406:Generated_Source\PSoC4/key_touch_Sensing.c ****             #endif /* ((key_touch_ENABLE == key_touch_CSD_EN) || key_touch_ENABLE == key_touch_CSD2
 1095              		.loc 1 2406 0
 1096 0012 201C     		mov	r0, r4
 1097 0014 FFF7FEFF 		bl	key_touch_SsSetWidgetSenseClkSrc
 1098              	.LVL131:
2399:Generated_Source\PSoC4/key_touch_Sensing.c ****     {
ARM GAS  C:\Users\Administrator\AppData\Local\Temp\ccPYRpEO.s 			page 73


 1099              		.loc 1 2399 0
 1100 0018 0134     		add	r4, r4, #1
 1101              	.LVL132:
 1102              	.L95:
2399:Generated_Source\PSoC4/key_touch_Sensing.c ****     {
 1103              		.loc 1 2399 0 is_stmt 0 discriminator 1
 1104 001a 0B2C     		cmp	r4, #11
 1105 001c F3D9     		bls	.L96
2419:Generated_Source\PSoC4/key_touch_Sensing.c **** #endif /* ((key_touch_ENABLE == key_touch_CSD_EN) ||\
 1106              		.loc 1 2419 0 is_stmt 1
 1107              		@ sp needed
 1108              	.LVL133:
 1109 001e 10BD     		pop	{r4, pc}
 1110              	.L98:
 1111              		.align	2
 1112              	.L97:
 1113 0020 00000000 		.word	key_touch_dsFlash
 1114              		.cfi_endproc
 1115              	.LFE14:
 1116              		.size	key_touch_SsInitializeSourceSenseClk, .-key_touch_SsInitializeSourceSenseClk
 1117              		.section	.text.key_touch_SsInitialize,"ax",%progbits
 1118              		.align	2
 1119              		.global	key_touch_SsInitialize
 1120              		.code	16
 1121              		.thumb_func
 1122              		.type	key_touch_SsInitialize, %function
 1123              	key_touch_SsInitialize:
 1124              	.LFB5:
 596:Generated_Source\PSoC4/key_touch_Sensing.c ****     cystatus initStatus = CYRET_SUCCESS;
 1125              		.loc 1 596 0
 1126              		.cfi_startproc
 1127 0000 08B5     		push	{r3, lr}
 1128              		.cfi_def_cfa_offset 8
 1129              		.cfi_offset 3, -8
 1130              		.cfi_offset 14, -4
 1131              	.LVL134:
 630:Generated_Source\PSoC4/key_touch_Sensing.c ****     #endif /* ((key_touch_ENABLE == key_touch_CSD_EN) ||\
 1132              		.loc 1 630 0
 1133 0002 FFF7FEFF 		bl	key_touch_SsInitializeSourceSenseClk
 1134              	.LVL135:
 668:Generated_Source\PSoC4/key_touch_Sensing.c **** 
 1135              		.loc 1 668 0
 1136 0006 FFF7FEFF 		bl	key_touch_SsCSDInitialize
 1137              	.LVL136:
 680:Generated_Source\PSoC4/key_touch_Sensing.c **** 
 1138              		.loc 1 680 0
 1139 000a 0020     		mov	r0, #0
 1140              		@ sp needed
 1141 000c 08BD     		pop	{r3, pc}
 1142              		.cfi_endproc
 1143              	.LFE5:
 1144              		.size	key_touch_SsInitialize, .-key_touch_SsInitialize
 1145              		.comm	key_touch_curSnsIOPtr,4,4
 1146              		.comm	key_touch_curRamSnsPtr,4,4
 1147              		.global	key_touch_requestScanAllWidget
 1148              		.global	key_touch_sensorIndex
 1149              		.global	key_touch_widgetIndex
ARM GAS  C:\Users\Administrator\AppData\Local\Temp\ccPYRpEO.s 			page 74


 1150              		.global	key_touch_scanFreqIndex
 1151 000e C046     		.section	.rodata
 1152              		.type	key_touch_scanFreqIndex, %object
 1153              		.size	key_touch_scanFreqIndex, 1
 1154              	key_touch_scanFreqIndex:
 1155 0000 00       		.space	1
 1156              		.bss
 1157              		.set	.LANCHOR0,. + 0
 1158              		.type	key_touch_requestScanAllWidget, %object
 1159              		.size	key_touch_requestScanAllWidget, 1
 1160              	key_touch_requestScanAllWidget:
 1161 0000 00       		.space	1
 1162              		.type	key_touch_widgetIndex, %object
 1163              		.size	key_touch_widgetIndex, 1
 1164              	key_touch_widgetIndex:
 1165 0001 00       		.space	1
 1166              		.type	key_touch_sensorIndex, %object
 1167              		.size	key_touch_sensorIndex, 1
 1168              	key_touch_sensorIndex:
 1169 0002 00       		.space	1
 1170              		.text
 1171              	.Letext0:
 1172              		.file 2 "Generated_Source\\PSoC4/cytypes.h"
 1173              		.file 3 "Generated_Source\\PSoC4\\key_touch_Configuration.h"
 1174              		.file 4 "Generated_Source\\PSoC4\\key_touch_Structure.h"
 1175              		.file 5 "Generated_Source\\PSoC4\\key_touch_SensingCSD_LL.h"
 1176              		.file 6 "Generated_Source\\PSoC4/CyLib.h"
 1177              		.file 7 "Generated_Source\\PSoC4\\key_touch_ISR.h"
 1178              		.section	.debug_info,"",%progbits
 1179              	.Ldebug_info0:
 1180 0000 980E0000 		.4byte	0xe98
 1181 0004 0400     		.2byte	0x4
 1182 0006 00000000 		.4byte	.Ldebug_abbrev0
 1183 000a 04       		.byte	0x4
 1184 000b 01       		.uleb128 0x1
 1185 000c 00000000 		.4byte	.LASF159
 1186 0010 01       		.byte	0x1
 1187 0011 4C060000 		.4byte	.LASF160
 1188 0015 F1050000 		.4byte	.LASF161
 1189 0019 00000000 		.4byte	.Ldebug_ranges0+0
 1190 001d 00000000 		.4byte	0
 1191 0021 00000000 		.4byte	.Ldebug_line0
 1192 0025 02       		.uleb128 0x2
 1193 0026 01       		.byte	0x1
 1194 0027 06       		.byte	0x6
 1195 0028 C4090000 		.4byte	.LASF0
 1196 002c 02       		.uleb128 0x2
 1197 002d 01       		.byte	0x1
 1198 002e 08       		.byte	0x8
 1199 002f 96080000 		.4byte	.LASF1
 1200 0033 02       		.uleb128 0x2
 1201 0034 02       		.byte	0x2
 1202 0035 05       		.byte	0x5
 1203 0036 26070000 		.4byte	.LASF2
 1204 003a 02       		.uleb128 0x2
 1205 003b 02       		.byte	0x2
 1206 003c 07       		.byte	0x7
ARM GAS  C:\Users\Administrator\AppData\Local\Temp\ccPYRpEO.s 			page 75


 1207 003d D5090000 		.4byte	.LASF3
 1208 0041 02       		.uleb128 0x2
 1209 0042 04       		.byte	0x4
 1210 0043 05       		.byte	0x5
 1211 0044 49070000 		.4byte	.LASF4
 1212 0048 02       		.uleb128 0x2
 1213 0049 04       		.byte	0x4
 1214 004a 07       		.byte	0x7
 1215 004b 2D080000 		.4byte	.LASF5
 1216 004f 02       		.uleb128 0x2
 1217 0050 08       		.byte	0x8
 1218 0051 05       		.byte	0x5
 1219 0052 DA040000 		.4byte	.LASF6
 1220 0056 02       		.uleb128 0x2
 1221 0057 08       		.byte	0x8
 1222 0058 07       		.byte	0x7
 1223 0059 C4020000 		.4byte	.LASF7
 1224 005d 03       		.uleb128 0x3
 1225 005e 04       		.byte	0x4
 1226 005f 05       		.byte	0x5
 1227 0060 696E7400 		.ascii	"int\000"
 1228 0064 02       		.uleb128 0x2
 1229 0065 04       		.byte	0x4
 1230 0066 07       		.byte	0x7
 1231 0067 8D010000 		.4byte	.LASF8
 1232 006b 04       		.uleb128 0x4
 1233 006c 0C0A0000 		.4byte	.LASF9
 1234 0070 02       		.byte	0x2
 1235 0071 B901     		.2byte	0x1b9
 1236 0073 2C000000 		.4byte	0x2c
 1237 0077 04       		.uleb128 0x4
 1238 0078 4D040000 		.4byte	.LASF10
 1239 007c 02       		.byte	0x2
 1240 007d BA01     		.2byte	0x1ba
 1241 007f 3A000000 		.4byte	0x3a
 1242 0083 04       		.uleb128 0x4
 1243 0084 A8050000 		.4byte	.LASF11
 1244 0088 02       		.byte	0x2
 1245 0089 BB01     		.2byte	0x1bb
 1246 008b 48000000 		.4byte	0x48
 1247 008f 02       		.uleb128 0x2
 1248 0090 04       		.byte	0x4
 1249 0091 04       		.byte	0x4
 1250 0092 A6020000 		.4byte	.LASF12
 1251 0096 02       		.uleb128 0x2
 1252 0097 08       		.byte	0x8
 1253 0098 04       		.byte	0x4
 1254 0099 120A0000 		.4byte	.LASF13
 1255 009d 02       		.uleb128 0x2
 1256 009e 01       		.byte	0x1
 1257 009f 08       		.byte	0x8
 1258 00a0 D1030000 		.4byte	.LASF14
 1259 00a4 04       		.uleb128 0x4
 1260 00a5 8D080000 		.4byte	.LASF15
 1261 00a9 02       		.byte	0x2
 1262 00aa 5B02     		.2byte	0x25b
 1263 00ac 48000000 		.4byte	0x48
ARM GAS  C:\Users\Administrator\AppData\Local\Temp\ccPYRpEO.s 			page 76


 1264 00b0 05       		.uleb128 0x5
 1265 00b1 6B000000 		.4byte	0x6b
 1266 00b5 04       		.uleb128 0x4
 1267 00b6 80060000 		.4byte	.LASF16
 1268 00ba 02       		.byte	0x2
 1269 00bb 6502     		.2byte	0x265
 1270 00bd C1000000 		.4byte	0xc1
 1271 00c1 05       		.uleb128 0x5
 1272 00c2 83000000 		.4byte	0x83
 1273 00c6 04       		.uleb128 0x4
 1274 00c7 92050000 		.4byte	.LASF17
 1275 00cb 02       		.byte	0x2
 1276 00cc 7502     		.2byte	0x275
 1277 00ce D2000000 		.4byte	0xd2
 1278 00d2 06       		.uleb128 0x6
 1279 00d3 04       		.byte	0x4
 1280 00d4 D8000000 		.4byte	0xd8
 1281 00d8 07       		.uleb128 0x7
 1282 00d9 04       		.uleb128 0x4
 1283 00da 30070000 		.4byte	.LASF18
 1284 00de 03       		.byte	0x3
 1285 00df 0301     		.2byte	0x103
 1286 00e1 77000000 		.4byte	0x77
 1287 00e5 04       		.uleb128 0x4
 1288 00e6 0E020000 		.4byte	.LASF19
 1289 00ea 03       		.byte	0x3
 1290 00eb 0701     		.2byte	0x107
 1291 00ed 6B000000 		.4byte	0x6b
 1292 00f1 08       		.uleb128 0x8
 1293 00f2 01       		.byte	0x1
 1294 00f3 04       		.byte	0x4
 1295 00f4 5D       		.byte	0x5d
 1296 00f5 12010000 		.4byte	0x112
 1297 00f9 09       		.uleb128 0x9
 1298 00fa 6D020000 		.4byte	.LASF20
 1299 00fe 00       		.sleb128 0
 1300 00ff 09       		.uleb128 0x9
 1301 0100 D9010000 		.4byte	.LASF21
 1302 0104 01       		.sleb128 1
 1303 0105 09       		.uleb128 0x9
 1304 0106 0C010000 		.4byte	.LASF22
 1305 010a 02       		.sleb128 2
 1306 010b 09       		.uleb128 0x9
 1307 010c ED060000 		.4byte	.LASF23
 1308 0110 03       		.sleb128 3
 1309 0111 00       		.byte	0
 1310 0112 0A       		.uleb128 0xa
 1311 0113 0C       		.byte	0xc
 1312 0114 04       		.byte	0x4
 1313 0115 7C       		.byte	0x7c
 1314 0116 93010000 		.4byte	0x193
 1315 011a 0B       		.uleb128 0xb
 1316 011b 97040000 		.4byte	.LASF24
 1317 011f 04       		.byte	0x4
 1318 0120 82       		.byte	0x82
 1319 0121 77000000 		.4byte	0x77
 1320 0125 00       		.byte	0
ARM GAS  C:\Users\Administrator\AppData\Local\Temp\ccPYRpEO.s 			page 77


 1321 0126 0B       		.uleb128 0xb
 1322 0127 7C080000 		.4byte	.LASF25
 1323 012b 04       		.byte	0x4
 1324 012c 87       		.byte	0x87
 1325 012d D9000000 		.4byte	0xd9
 1326 0131 02       		.byte	0x2
 1327 0132 0B       		.uleb128 0xb
 1328 0133 C9030000 		.4byte	.LASF26
 1329 0137 04       		.byte	0x4
 1330 0138 8C       		.byte	0x8c
 1331 0139 6B000000 		.4byte	0x6b
 1332 013d 04       		.byte	0x4
 1333 013e 0B       		.uleb128 0xb
 1334 013f 7E050000 		.4byte	.LASF27
 1335 0143 04       		.byte	0x4
 1336 0144 91       		.byte	0x91
 1337 0145 6B000000 		.4byte	0x6b
 1338 0149 05       		.byte	0x5
 1339 014a 0B       		.uleb128 0xb
 1340 014b 8D030000 		.4byte	.LASF28
 1341 014f 04       		.byte	0x4
 1342 0150 96       		.byte	0x96
 1343 0151 6B000000 		.4byte	0x6b
 1344 0155 06       		.byte	0x6
 1345 0156 0B       		.uleb128 0xb
 1346 0157 0D050000 		.4byte	.LASF29
 1347 015b 04       		.byte	0x4
 1348 015c 9B       		.byte	0x9b
 1349 015d 6B000000 		.4byte	0x6b
 1350 0161 07       		.byte	0x7
 1351 0162 0B       		.uleb128 0xb
 1352 0163 98030000 		.4byte	.LASF30
 1353 0167 04       		.byte	0x4
 1354 0168 A1       		.byte	0xa1
 1355 0169 E5000000 		.4byte	0xe5
 1356 016d 08       		.byte	0x8
 1357 016e 0B       		.uleb128 0xb
 1358 016f 38030000 		.4byte	.LASF31
 1359 0173 04       		.byte	0x4
 1360 0174 A6       		.byte	0xa6
 1361 0175 6B000000 		.4byte	0x6b
 1362 0179 09       		.byte	0x9
 1363 017a 0B       		.uleb128 0xb
 1364 017b 4E080000 		.4byte	.LASF32
 1365 017f 04       		.byte	0x4
 1366 0180 AD       		.byte	0xad
 1367 0181 93010000 		.4byte	0x193
 1368 0185 0A       		.byte	0xa
 1369 0186 0B       		.uleb128 0xb
 1370 0187 E0060000 		.4byte	.LASF33
 1371 018b 04       		.byte	0x4
 1372 018c B2       		.byte	0xb2
 1373 018d 6B000000 		.4byte	0x6b
 1374 0191 0B       		.byte	0xb
 1375 0192 00       		.byte	0
 1376 0193 0C       		.uleb128 0xc
 1377 0194 6B000000 		.4byte	0x6b
ARM GAS  C:\Users\Administrator\AppData\Local\Temp\ccPYRpEO.s 			page 78


 1378 0198 A3010000 		.4byte	0x1a3
 1379 019c 0D       		.uleb128 0xd
 1380 019d A3010000 		.4byte	0x1a3
 1381 01a1 00       		.byte	0
 1382 01a2 00       		.byte	0
 1383 01a3 02       		.uleb128 0x2
 1384 01a4 04       		.byte	0x4
 1385 01a5 07       		.byte	0x7
 1386 01a6 1C080000 		.4byte	.LASF34
 1387 01aa 0E       		.uleb128 0xe
 1388 01ab 55090000 		.4byte	.LASF35
 1389 01af 04       		.byte	0x4
 1390 01b0 B3       		.byte	0xb3
 1391 01b1 12010000 		.4byte	0x112
 1392 01b5 0A       		.uleb128 0xa
 1393 01b6 0C       		.byte	0xc
 1394 01b7 04       		.byte	0x4
 1395 01b8 B8       		.byte	0xb8
 1396 01b9 36020000 		.4byte	0x236
 1397 01bd 0B       		.uleb128 0xb
 1398 01be 97040000 		.4byte	.LASF24
 1399 01c2 04       		.byte	0x4
 1400 01c3 BE       		.byte	0xbe
 1401 01c4 77000000 		.4byte	0x77
 1402 01c8 00       		.byte	0
 1403 01c9 0B       		.uleb128 0xb
 1404 01ca 7C080000 		.4byte	.LASF25
 1405 01ce 04       		.byte	0x4
 1406 01cf C3       		.byte	0xc3
 1407 01d0 D9000000 		.4byte	0xd9
 1408 01d4 02       		.byte	0x2
 1409 01d5 0B       		.uleb128 0xb
 1410 01d6 C9030000 		.4byte	.LASF26
 1411 01da 04       		.byte	0x4
 1412 01db C8       		.byte	0xc8
 1413 01dc 6B000000 		.4byte	0x6b
 1414 01e0 04       		.byte	0x4
 1415 01e1 0B       		.uleb128 0xb
 1416 01e2 7E050000 		.4byte	.LASF27
 1417 01e6 04       		.byte	0x4
 1418 01e7 CD       		.byte	0xcd
 1419 01e8 6B000000 		.4byte	0x6b
 1420 01ec 05       		.byte	0x5
 1421 01ed 0B       		.uleb128 0xb
 1422 01ee 8D030000 		.4byte	.LASF28
 1423 01f2 04       		.byte	0x4
 1424 01f3 D2       		.byte	0xd2
 1425 01f4 6B000000 		.4byte	0x6b
 1426 01f8 06       		.byte	0x6
 1427 01f9 0B       		.uleb128 0xb
 1428 01fa 0D050000 		.4byte	.LASF29
 1429 01fe 04       		.byte	0x4
 1430 01ff D7       		.byte	0xd7
 1431 0200 6B000000 		.4byte	0x6b
 1432 0204 07       		.byte	0x7
 1433 0205 0B       		.uleb128 0xb
 1434 0206 98030000 		.4byte	.LASF30
ARM GAS  C:\Users\Administrator\AppData\Local\Temp\ccPYRpEO.s 			page 79


 1435 020a 04       		.byte	0x4
 1436 020b DD       		.byte	0xdd
 1437 020c E5000000 		.4byte	0xe5
 1438 0210 08       		.byte	0x8
 1439 0211 0B       		.uleb128 0xb
 1440 0212 38030000 		.4byte	.LASF31
 1441 0216 04       		.byte	0x4
 1442 0217 E2       		.byte	0xe2
 1443 0218 6B000000 		.4byte	0x6b
 1444 021c 09       		.byte	0x9
 1445 021d 0B       		.uleb128 0xb
 1446 021e 4E080000 		.4byte	.LASF32
 1447 0222 04       		.byte	0x4
 1448 0223 E9       		.byte	0xe9
 1449 0224 93010000 		.4byte	0x193
 1450 0228 0A       		.byte	0xa
 1451 0229 0B       		.uleb128 0xb
 1452 022a E0060000 		.4byte	.LASF33
 1453 022e 04       		.byte	0x4
 1454 022f EE       		.byte	0xee
 1455 0230 6B000000 		.4byte	0x6b
 1456 0234 0B       		.byte	0xb
 1457 0235 00       		.byte	0
 1458 0236 0E       		.uleb128 0xe
 1459 0237 67030000 		.4byte	.LASF36
 1460 023b 04       		.byte	0x4
 1461 023c EF       		.byte	0xef
 1462 023d B5010000 		.4byte	0x1b5
 1463 0241 0A       		.uleb128 0xa
 1464 0242 90       		.byte	0x90
 1465 0243 04       		.byte	0x4
 1466 0244 F5       		.byte	0xf5
 1467 0245 E4020000 		.4byte	0x2e4
 1468 0249 0B       		.uleb128 0xb
 1469 024a A3070000 		.4byte	.LASF37
 1470 024e 04       		.byte	0x4
 1471 024f FA       		.byte	0xfa
 1472 0250 36020000 		.4byte	0x236
 1473 0254 00       		.byte	0
 1474 0255 0B       		.uleb128 0xb
 1475 0256 AB070000 		.4byte	.LASF38
 1476 025a 04       		.byte	0x4
 1477 025b FF       		.byte	0xff
 1478 025c 36020000 		.4byte	0x236
 1479 0260 0C       		.byte	0xc
 1480 0261 0F       		.uleb128 0xf
 1481 0262 B3070000 		.4byte	.LASF39
 1482 0266 04       		.byte	0x4
 1483 0267 0401     		.2byte	0x104
 1484 0269 36020000 		.4byte	0x236
 1485 026d 18       		.byte	0x18
 1486 026e 0F       		.uleb128 0xf
 1487 026f BB070000 		.4byte	.LASF40
 1488 0273 04       		.byte	0x4
 1489 0274 0901     		.2byte	0x109
 1490 0276 36020000 		.4byte	0x236
 1491 027a 24       		.byte	0x24
ARM GAS  C:\Users\Administrator\AppData\Local\Temp\ccPYRpEO.s 			page 80


 1492 027b 0F       		.uleb128 0xf
 1493 027c C3070000 		.4byte	.LASF41
 1494 0280 04       		.byte	0x4
 1495 0281 0E01     		.2byte	0x10e
 1496 0283 36020000 		.4byte	0x236
 1497 0287 30       		.byte	0x30
 1498 0288 0F       		.uleb128 0xf
 1499 0289 CB070000 		.4byte	.LASF42
 1500 028d 04       		.byte	0x4
 1501 028e 1301     		.2byte	0x113
 1502 0290 36020000 		.4byte	0x236
 1503 0294 3C       		.byte	0x3c
 1504 0295 0F       		.uleb128 0xf
 1505 0296 D3070000 		.4byte	.LASF43
 1506 029a 04       		.byte	0x4
 1507 029b 1801     		.2byte	0x118
 1508 029d 36020000 		.4byte	0x236
 1509 02a1 48       		.byte	0x48
 1510 02a2 0F       		.uleb128 0xf
 1511 02a3 DB070000 		.4byte	.LASF44
 1512 02a7 04       		.byte	0x4
 1513 02a8 1D01     		.2byte	0x11d
 1514 02aa 36020000 		.4byte	0x236
 1515 02ae 54       		.byte	0x54
 1516 02af 0F       		.uleb128 0xf
 1517 02b0 E3070000 		.4byte	.LASF45
 1518 02b4 04       		.byte	0x4
 1519 02b5 2201     		.2byte	0x122
 1520 02b7 36020000 		.4byte	0x236
 1521 02bb 60       		.byte	0x60
 1522 02bc 0F       		.uleb128 0xf
 1523 02bd EB070000 		.4byte	.LASF46
 1524 02c1 04       		.byte	0x4
 1525 02c2 2701     		.2byte	0x127
 1526 02c4 36020000 		.4byte	0x236
 1527 02c8 6C       		.byte	0x6c
 1528 02c9 0F       		.uleb128 0xf
 1529 02ca AD0A0000 		.4byte	.LASF47
 1530 02ce 04       		.byte	0x4
 1531 02cf 2C01     		.2byte	0x12c
 1532 02d1 36020000 		.4byte	0x236
 1533 02d5 78       		.byte	0x78
 1534 02d6 0F       		.uleb128 0xf
 1535 02d7 B60A0000 		.4byte	.LASF48
 1536 02db 04       		.byte	0x4
 1537 02dc 3101     		.2byte	0x131
 1538 02de 36020000 		.4byte	0x236
 1539 02e2 84       		.byte	0x84
 1540 02e3 00       		.byte	0
 1541 02e4 04       		.uleb128 0x4
 1542 02e5 F0040000 		.4byte	.LASF49
 1543 02e9 04       		.byte	0x4
 1544 02ea 3201     		.2byte	0x132
 1545 02ec 41020000 		.4byte	0x241
 1546 02f0 10       		.uleb128 0x10
 1547 02f1 0A       		.byte	0xa
 1548 02f2 04       		.byte	0x4
ARM GAS  C:\Users\Administrator\AppData\Local\Temp\ccPYRpEO.s 			page 81


 1549 02f3 3801     		.2byte	0x138
 1550 02f5 48030000 		.4byte	0x348
 1551 02f9 11       		.uleb128 0x11
 1552 02fa 72617700 		.ascii	"raw\000"
 1553 02fe 04       		.byte	0x4
 1554 02ff 3D01     		.2byte	0x13d
 1555 0301 48030000 		.4byte	0x348
 1556 0305 00       		.byte	0
 1557 0306 0F       		.uleb128 0xf
 1558 0307 D0090000 		.4byte	.LASF50
 1559 030b 04       		.byte	0x4
 1560 030c 4201     		.2byte	0x142
 1561 030e 48030000 		.4byte	0x348
 1562 0312 02       		.byte	0x2
 1563 0313 0F       		.uleb128 0xf
 1564 0314 85080000 		.4byte	.LASF51
 1565 0318 04       		.byte	0x4
 1566 0319 4801     		.2byte	0x148
 1567 031b 93010000 		.4byte	0x193
 1568 031f 04       		.byte	0x4
 1569 0320 0F       		.uleb128 0xf
 1570 0321 8F070000 		.4byte	.LASF52
 1571 0325 04       		.byte	0x4
 1572 0326 4D01     		.2byte	0x14d
 1573 0328 D9000000 		.4byte	0xd9
 1574 032c 06       		.byte	0x6
 1575 032d 0F       		.uleb128 0xf
 1576 032e 190A0000 		.4byte	.LASF53
 1577 0332 04       		.byte	0x4
 1578 0333 5201     		.2byte	0x152
 1579 0335 58030000 		.4byte	0x358
 1580 0339 08       		.byte	0x8
 1581 033a 0F       		.uleb128 0xf
 1582 033b CB040000 		.4byte	.LASF54
 1583 033f 04       		.byte	0x4
 1584 0340 5801     		.2byte	0x158
 1585 0342 93010000 		.4byte	0x193
 1586 0346 09       		.byte	0x9
 1587 0347 00       		.byte	0
 1588 0348 0C       		.uleb128 0xc
 1589 0349 77000000 		.4byte	0x77
 1590 034d 58030000 		.4byte	0x358
 1591 0351 0D       		.uleb128 0xd
 1592 0352 A3010000 		.4byte	0x1a3
 1593 0356 00       		.byte	0
 1594 0357 00       		.byte	0
 1595 0358 0C       		.uleb128 0xc
 1596 0359 E5000000 		.4byte	0xe5
 1597 035d 68030000 		.4byte	0x368
 1598 0361 0D       		.uleb128 0xd
 1599 0362 A3010000 		.4byte	0x1a3
 1600 0366 00       		.byte	0
 1601 0367 00       		.byte	0
 1602 0368 04       		.uleb128 0x4
 1603 0369 D2000000 		.4byte	.LASF55
 1604 036d 04       		.byte	0x4
 1605 036e 5901     		.2byte	0x159
ARM GAS  C:\Users\Administrator\AppData\Local\Temp\ccPYRpEO.s 			page 82


 1606 0370 F0020000 		.4byte	0x2f0
 1607 0374 10       		.uleb128 0x10
 1608 0375 78       		.byte	0x78
 1609 0376 04       		.byte	0x4
 1610 0377 5F01     		.2byte	0x15f
 1611 0379 1A040000 		.4byte	0x41a
 1612 037d 0F       		.uleb128 0xf
 1613 037e A3070000 		.4byte	.LASF37
 1614 0382 04       		.byte	0x4
 1615 0383 6401     		.2byte	0x164
 1616 0385 1A040000 		.4byte	0x41a
 1617 0389 00       		.byte	0
 1618 038a 0F       		.uleb128 0xf
 1619 038b AB070000 		.4byte	.LASF38
 1620 038f 04       		.byte	0x4
 1621 0390 6901     		.2byte	0x169
 1622 0392 1A040000 		.4byte	0x41a
 1623 0396 0A       		.byte	0xa
 1624 0397 0F       		.uleb128 0xf
 1625 0398 B3070000 		.4byte	.LASF39
 1626 039c 04       		.byte	0x4
 1627 039d 6E01     		.2byte	0x16e
 1628 039f 1A040000 		.4byte	0x41a
 1629 03a3 14       		.byte	0x14
 1630 03a4 0F       		.uleb128 0xf
 1631 03a5 BB070000 		.4byte	.LASF40
 1632 03a9 04       		.byte	0x4
 1633 03aa 7301     		.2byte	0x173
 1634 03ac 1A040000 		.4byte	0x41a
 1635 03b0 1E       		.byte	0x1e
 1636 03b1 0F       		.uleb128 0xf
 1637 03b2 C3070000 		.4byte	.LASF41
 1638 03b6 04       		.byte	0x4
 1639 03b7 7801     		.2byte	0x178
 1640 03b9 1A040000 		.4byte	0x41a
 1641 03bd 28       		.byte	0x28
 1642 03be 0F       		.uleb128 0xf
 1643 03bf CB070000 		.4byte	.LASF42
 1644 03c3 04       		.byte	0x4
 1645 03c4 7D01     		.2byte	0x17d
 1646 03c6 1A040000 		.4byte	0x41a
 1647 03ca 32       		.byte	0x32
 1648 03cb 0F       		.uleb128 0xf
 1649 03cc D3070000 		.4byte	.LASF43
 1650 03d0 04       		.byte	0x4
 1651 03d1 8201     		.2byte	0x182
 1652 03d3 1A040000 		.4byte	0x41a
 1653 03d7 3C       		.byte	0x3c
 1654 03d8 0F       		.uleb128 0xf
 1655 03d9 DB070000 		.4byte	.LASF44
 1656 03dd 04       		.byte	0x4
 1657 03de 8701     		.2byte	0x187
 1658 03e0 1A040000 		.4byte	0x41a
 1659 03e4 46       		.byte	0x46
 1660 03e5 0F       		.uleb128 0xf
 1661 03e6 E3070000 		.4byte	.LASF45
 1662 03ea 04       		.byte	0x4
ARM GAS  C:\Users\Administrator\AppData\Local\Temp\ccPYRpEO.s 			page 83


 1663 03eb 8C01     		.2byte	0x18c
 1664 03ed 1A040000 		.4byte	0x41a
 1665 03f1 50       		.byte	0x50
 1666 03f2 0F       		.uleb128 0xf
 1667 03f3 EB070000 		.4byte	.LASF46
 1668 03f7 04       		.byte	0x4
 1669 03f8 9101     		.2byte	0x191
 1670 03fa 1A040000 		.4byte	0x41a
 1671 03fe 5A       		.byte	0x5a
 1672 03ff 0F       		.uleb128 0xf
 1673 0400 AD0A0000 		.4byte	.LASF47
 1674 0404 04       		.byte	0x4
 1675 0405 9601     		.2byte	0x196
 1676 0407 1A040000 		.4byte	0x41a
 1677 040b 64       		.byte	0x64
 1678 040c 0F       		.uleb128 0xf
 1679 040d B60A0000 		.4byte	.LASF48
 1680 0411 04       		.byte	0x4
 1681 0412 9B01     		.2byte	0x19b
 1682 0414 1A040000 		.4byte	0x41a
 1683 0418 6E       		.byte	0x6e
 1684 0419 00       		.byte	0
 1685 041a 0C       		.uleb128 0xc
 1686 041b 68030000 		.4byte	0x368
 1687 041f 2A040000 		.4byte	0x42a
 1688 0423 0D       		.uleb128 0xd
 1689 0424 A3010000 		.4byte	0x1a3
 1690 0428 00       		.byte	0
 1691 0429 00       		.byte	0
 1692 042a 04       		.uleb128 0x4
 1693 042b 72090000 		.4byte	.LASF56
 1694 042f 04       		.byte	0x4
 1695 0430 9C01     		.2byte	0x19c
 1696 0432 74030000 		.4byte	0x374
 1697 0436 12       		.uleb128 0x12
 1698 0437 3401     		.2byte	0x134
 1699 0439 04       		.byte	0x4
 1700 043a A301     		.2byte	0x1a3
 1701 043c 22050000 		.4byte	0x522
 1702 0440 0F       		.uleb128 0xf
 1703 0441 99060000 		.4byte	.LASF57
 1704 0445 04       		.byte	0x4
 1705 0446 A901     		.2byte	0x1a9
 1706 0448 77000000 		.4byte	0x77
 1707 044c 00       		.byte	0
 1708 044d 0F       		.uleb128 0xf
 1709 044e 760A0000 		.4byte	.LASF58
 1710 0452 04       		.byte	0x4
 1711 0453 AE01     		.2byte	0x1ae
 1712 0455 77000000 		.4byte	0x77
 1713 0459 02       		.byte	0x2
 1714 045a 0F       		.uleb128 0xf
 1715 045b 94070000 		.4byte	.LASF59
 1716 045f 04       		.byte	0x4
 1717 0460 B401     		.2byte	0x1b4
 1718 0462 77000000 		.4byte	0x77
 1719 0466 04       		.byte	0x4
ARM GAS  C:\Users\Administrator\AppData\Local\Temp\ccPYRpEO.s 			page 84


 1720 0467 0F       		.uleb128 0xf
 1721 0468 9A010000 		.4byte	.LASF60
 1722 046c 04       		.byte	0x4
 1723 046d B901     		.2byte	0x1b9
 1724 046f 77000000 		.4byte	0x77
 1725 0473 06       		.byte	0x6
 1726 0474 0F       		.uleb128 0xf
 1727 0475 A2040000 		.4byte	.LASF61
 1728 0479 04       		.byte	0x4
 1729 047a BE01     		.2byte	0x1be
 1730 047c 83000000 		.4byte	0x83
 1731 0480 08       		.byte	0x8
 1732 0481 0F       		.uleb128 0xf
 1733 0482 84070000 		.4byte	.LASF62
 1734 0486 04       		.byte	0x4
 1735 0487 C301     		.2byte	0x1c3
 1736 0489 22050000 		.4byte	0x522
 1737 048d 0C       		.byte	0xc
 1738 048e 0F       		.uleb128 0xf
 1739 048f F3070000 		.4byte	.LASF63
 1740 0493 04       		.byte	0x4
 1741 0494 C801     		.2byte	0x1c8
 1742 0496 22050000 		.4byte	0x522
 1743 049a 10       		.byte	0x10
 1744 049b 0F       		.uleb128 0xf
 1745 049c C7060000 		.4byte	.LASF64
 1746 04a0 04       		.byte	0x4
 1747 04a1 D601     		.2byte	0x1d6
 1748 04a3 32050000 		.4byte	0x532
 1749 04a7 14       		.byte	0x14
 1750 04a8 0F       		.uleb128 0xf
 1751 04a9 87050000 		.4byte	.LASF65
 1752 04ad 04       		.byte	0x4
 1753 04ae DB01     		.2byte	0x1db
 1754 04b0 77000000 		.4byte	0x77
 1755 04b4 20       		.byte	0x20
 1756 04b5 0F       		.uleb128 0xf
 1757 04b6 2E030000 		.4byte	.LASF66
 1758 04ba 04       		.byte	0x4
 1759 04bb E001     		.2byte	0x1e0
 1760 04bd 6B000000 		.4byte	0x6b
 1761 04c1 22       		.byte	0x22
 1762 04c2 0F       		.uleb128 0xf
 1763 04c3 24030000 		.4byte	.LASF67
 1764 04c7 04       		.byte	0x4
 1765 04c8 E501     		.2byte	0x1e5
 1766 04ca 6B000000 		.4byte	0x6b
 1767 04ce 23       		.byte	0x23
 1768 04cf 0F       		.uleb128 0xf
 1769 04d0 4E050000 		.4byte	.LASF68
 1770 04d4 04       		.byte	0x4
 1771 04d5 EA01     		.2byte	0x1ea
 1772 04d7 E4020000 		.4byte	0x2e4
 1773 04db 24       		.byte	0x24
 1774 04dc 0F       		.uleb128 0xf
 1775 04dd BC020000 		.4byte	.LASF69
 1776 04e1 04       		.byte	0x4
ARM GAS  C:\Users\Administrator\AppData\Local\Temp\ccPYRpEO.s 			page 85


 1777 04e2 EF01     		.2byte	0x1ef
 1778 04e4 2A040000 		.4byte	0x42a
 1779 04e8 B4       		.byte	0xb4
 1780 04e9 13       		.uleb128 0x13
 1781 04ea 29010000 		.4byte	.LASF70
 1782 04ee 04       		.byte	0x4
 1783 04ef F401     		.2byte	0x1f4
 1784 04f1 6B000000 		.4byte	0x6b
 1785 04f5 2C01     		.2byte	0x12c
 1786 04f7 13       		.uleb128 0x13
 1787 04f8 F1020000 		.4byte	.LASF71
 1788 04fc 04       		.byte	0x4
 1789 04fd F901     		.2byte	0x1f9
 1790 04ff 6B000000 		.4byte	0x6b
 1791 0503 2D01     		.2byte	0x12d
 1792 0505 13       		.uleb128 0x13
 1793 0506 86060000 		.4byte	.LASF72
 1794 050a 04       		.byte	0x4
 1795 050b FE01     		.2byte	0x1fe
 1796 050d 77000000 		.4byte	0x77
 1797 0511 2E01     		.2byte	0x12e
 1798 0513 13       		.uleb128 0x13
 1799 0514 6E050000 		.4byte	.LASF73
 1800 0518 04       		.byte	0x4
 1801 0519 0302     		.2byte	0x203
 1802 051b 48030000 		.4byte	0x348
 1803 051f 3001     		.2byte	0x130
 1804 0521 00       		.byte	0
 1805 0522 0C       		.uleb128 0xc
 1806 0523 83000000 		.4byte	0x83
 1807 0527 32050000 		.4byte	0x532
 1808 052b 0D       		.uleb128 0xd
 1809 052c A3010000 		.4byte	0x1a3
 1810 0530 00       		.byte	0
 1811 0531 00       		.byte	0
 1812 0532 0C       		.uleb128 0xc
 1813 0533 6B000000 		.4byte	0x6b
 1814 0537 42050000 		.4byte	0x542
 1815 053b 0D       		.uleb128 0xd
 1816 053c A3010000 		.4byte	0x1a3
 1817 0540 0B       		.byte	0xb
 1818 0541 00       		.byte	0
 1819 0542 04       		.uleb128 0x4
 1820 0543 58020000 		.4byte	.LASF74
 1821 0547 04       		.byte	0x4
 1822 0548 0402     		.2byte	0x204
 1823 054a 36040000 		.4byte	0x436
 1824 054e 10       		.uleb128 0x10
 1825 054f 1C       		.byte	0x1c
 1826 0550 04       		.byte	0x4
 1827 0551 0A02     		.2byte	0x20a
 1828 0553 CD050000 		.4byte	0x5cd
 1829 0557 0F       		.uleb128 0xf
 1830 0558 9F050000 		.4byte	.LASF75
 1831 055c 04       		.byte	0x4
 1832 055d 0F02     		.2byte	0x20f
 1833 055f CD050000 		.4byte	0x5cd
ARM GAS  C:\Users\Administrator\AppData\Local\Temp\ccPYRpEO.s 			page 86


 1834 0563 00       		.byte	0
 1835 0564 0F       		.uleb128 0xf
 1836 0565 D4040000 		.4byte	.LASF76
 1837 0569 04       		.byte	0x4
 1838 056a 1402     		.2byte	0x214
 1839 056c CD050000 		.4byte	0x5cd
 1840 0570 04       		.byte	0x4
 1841 0571 0F       		.uleb128 0xf
 1842 0572 61030000 		.4byte	.LASF77
 1843 0576 04       		.byte	0x4
 1844 0577 1902     		.2byte	0x219
 1845 0579 CD050000 		.4byte	0x5cd
 1846 057d 08       		.byte	0x8
 1847 057e 0F       		.uleb128 0xf
 1848 057f 9D070000 		.4byte	.LASF78
 1849 0583 04       		.byte	0x4
 1850 0584 1E02     		.2byte	0x21e
 1851 0586 CD050000 		.4byte	0x5cd
 1852 058a 0C       		.byte	0xc
 1853 058b 0F       		.uleb128 0xf
 1854 058c 90090000 		.4byte	.LASF79
 1855 0590 04       		.byte	0x4
 1856 0591 2302     		.2byte	0x223
 1857 0593 83000000 		.4byte	0x83
 1858 0597 10       		.byte	0x10
 1859 0598 0F       		.uleb128 0xf
 1860 0599 D6050000 		.4byte	.LASF80
 1861 059d 04       		.byte	0x4
 1862 059e 2802     		.2byte	0x228
 1863 05a0 83000000 		.4byte	0x83
 1864 05a4 14       		.byte	0x14
 1865 05a5 0F       		.uleb128 0xf
 1866 05a6 23040000 		.4byte	.LASF81
 1867 05aa 04       		.byte	0x4
 1868 05ab 2D02     		.2byte	0x22d
 1869 05ad 6B000000 		.4byte	0x6b
 1870 05b1 18       		.byte	0x18
 1871 05b2 0F       		.uleb128 0xf
 1872 05b3 25080000 		.4byte	.LASF82
 1873 05b7 04       		.byte	0x4
 1874 05b8 3202     		.2byte	0x232
 1875 05ba 6B000000 		.4byte	0x6b
 1876 05be 19       		.byte	0x19
 1877 05bf 0F       		.uleb128 0xf
 1878 05c0 AC020000 		.4byte	.LASF83
 1879 05c4 04       		.byte	0x4
 1880 05c5 3702     		.2byte	0x237
 1881 05c7 6B000000 		.4byte	0x6b
 1882 05cb 1A       		.byte	0x1a
 1883 05cc 00       		.byte	0
 1884 05cd 06       		.uleb128 0x6
 1885 05ce 04       		.byte	0x4
 1886 05cf B5000000 		.4byte	0xb5
 1887 05d3 04       		.uleb128 0x4
 1888 05d4 7D040000 		.4byte	.LASF84
 1889 05d8 04       		.byte	0x4
 1890 05d9 3802     		.2byte	0x238
ARM GAS  C:\Users\Administrator\AppData\Local\Temp\ccPYRpEO.s 			page 87


 1891 05db 4E050000 		.4byte	0x54e
 1892 05df 10       		.uleb128 0x10
 1893 05e0 1C       		.byte	0x1c
 1894 05e1 04       		.byte	0x4
 1895 05e2 6302     		.2byte	0x263
 1896 05e4 5E060000 		.4byte	0x65e
 1897 05e8 0F       		.uleb128 0xf
 1898 05e9 E8090000 		.4byte	.LASF85
 1899 05ed 04       		.byte	0x4
 1900 05ee 6C02     		.2byte	0x26c
 1901 05f0 5E060000 		.4byte	0x65e
 1902 05f4 00       		.byte	0
 1903 05f5 0F       		.uleb128 0xf
 1904 05f6 C0080000 		.4byte	.LASF86
 1905 05fa 04       		.byte	0x4
 1906 05fb 7202     		.2byte	0x272
 1907 05fd 65060000 		.4byte	0x665
 1908 0601 04       		.byte	0x4
 1909 0602 0F       		.uleb128 0xf
 1910 0603 A2060000 		.4byte	.LASF87
 1911 0607 04       		.byte	0x4
 1912 0608 7802     		.2byte	0x278
 1913 060a 67060000 		.4byte	0x667
 1914 060e 08       		.byte	0x8
 1915 060f 0F       		.uleb128 0xf
 1916 0610 AF050000 		.4byte	.LASF88
 1917 0614 04       		.byte	0x4
 1918 0615 7D02     		.2byte	0x27d
 1919 0617 65060000 		.4byte	0x665
 1920 061b 0C       		.byte	0xc
 1921 061c 0F       		.uleb128 0xf
 1922 061d 56080000 		.4byte	.LASF89
 1923 0621 04       		.byte	0x4
 1924 0622 8402     		.2byte	0x284
 1925 0624 6D060000 		.4byte	0x66d
 1926 0628 10       		.byte	0x10
 1927 0629 0F       		.uleb128 0xf
 1928 062a A4080000 		.4byte	.LASF90
 1929 062e 04       		.byte	0x4
 1930 062f 8902     		.2byte	0x289
 1931 0631 77000000 		.4byte	0x77
 1932 0635 14       		.byte	0x14
 1933 0636 0F       		.uleb128 0xf
 1934 0637 A3030000 		.4byte	.LASF91
 1935 063b 04       		.byte	0x4
 1936 063c 9002     		.2byte	0x290
 1937 063e 77000000 		.4byte	0x77
 1938 0642 16       		.byte	0x16
 1939 0643 0F       		.uleb128 0xf
 1940 0644 01030000 		.4byte	.LASF92
 1941 0648 04       		.byte	0x4
 1942 0649 9B02     		.2byte	0x29b
 1943 064b 6B000000 		.4byte	0x6b
 1944 064f 18       		.byte	0x18
 1945 0650 0F       		.uleb128 0xf
 1946 0651 E8040000 		.4byte	.LASF93
 1947 0655 04       		.byte	0x4
ARM GAS  C:\Users\Administrator\AppData\Local\Temp\ccPYRpEO.s 			page 88


 1948 0656 A302     		.2byte	0x2a3
 1949 0658 6B000000 		.4byte	0x6b
 1950 065c 19       		.byte	0x19
 1951 065d 00       		.byte	0
 1952 065e 06       		.uleb128 0x6
 1953 065f 04       		.byte	0x4
 1954 0660 64060000 		.4byte	0x664
 1955 0664 14       		.uleb128 0x14
 1956 0665 15       		.uleb128 0x15
 1957 0666 04       		.byte	0x4
 1958 0667 06       		.uleb128 0x6
 1959 0668 04       		.byte	0x4
 1960 0669 68030000 		.4byte	0x368
 1961 066d 06       		.uleb128 0x6
 1962 066e 04       		.byte	0x4
 1963 066f 6B000000 		.4byte	0x6b
 1964 0673 04       		.uleb128 0x4
 1965 0674 63040000 		.4byte	.LASF94
 1966 0678 04       		.byte	0x4
 1967 0679 A402     		.2byte	0x2a4
 1968 067b DF050000 		.4byte	0x5df
 1969 067f 12       		.uleb128 0x12
 1970 0680 5001     		.2byte	0x150
 1971 0682 04       		.byte	0x4
 1972 0683 AA02     		.2byte	0x2aa
 1973 0685 97060000 		.4byte	0x697
 1974 0689 0F       		.uleb128 0xf
 1975 068a B2020000 		.4byte	.LASF95
 1976 068e 04       		.byte	0x4
 1977 068f AF02     		.2byte	0x2af
 1978 0691 97060000 		.4byte	0x697
 1979 0695 00       		.byte	0
 1980 0696 00       		.byte	0
 1981 0697 0C       		.uleb128 0xc
 1982 0698 73060000 		.4byte	0x673
 1983 069c A7060000 		.4byte	0x6a7
 1984 06a0 0D       		.uleb128 0xd
 1985 06a1 A3010000 		.4byte	0x1a3
 1986 06a5 0B       		.byte	0xb
 1987 06a6 00       		.byte	0
 1988 06a7 04       		.uleb128 0x4
 1989 06a8 34020000 		.4byte	.LASF96
 1990 06ac 04       		.byte	0x4
 1991 06ad B002     		.2byte	0x2b0
 1992 06af 7F060000 		.4byte	0x67f
 1993 06b3 16       		.uleb128 0x16
 1994 06b4 370A0000 		.4byte	.LASF162
 1995 06b8 01       		.byte	0x1
 1996 06b9 2101     		.2byte	0x121
 1997 06bb 83000000 		.4byte	0x83
 1998 06bf 00000000 		.4byte	.LFB1
 1999 06c3 10000000 		.4byte	.LFE1-.LFB1
 2000 06c7 01       		.uleb128 0x1
 2001 06c8 9C       		.byte	0x9c
 2002 06c9 17       		.uleb128 0x17
 2003 06ca FE070000 		.4byte	.LASF97
 2004 06ce 01       		.byte	0x1
ARM GAS  C:\Users\Administrator\AppData\Local\Temp\ccPYRpEO.s 			page 89


 2005 06cf 5101     		.2byte	0x151
 2006 06d1 A4000000 		.4byte	0xa4
 2007 06d5 00000000 		.4byte	.LFB2
 2008 06d9 44000000 		.4byte	.LFE2-.LFB2
 2009 06dd 01       		.uleb128 0x1
 2010 06de 9C       		.byte	0x9c
 2011 06df 0D070000 		.4byte	0x70d
 2012 06e3 18       		.uleb128 0x18
 2013 06e4 42060000 		.4byte	.LASF102
 2014 06e8 01       		.byte	0x1
 2015 06e9 5101     		.2byte	0x151
 2016 06eb 83000000 		.4byte	0x83
 2017 06ef 00000000 		.4byte	.LLST0
 2018 06f3 19       		.uleb128 0x19
 2019 06f4 A00A0000 		.4byte	.LASF99
 2020 06f8 01       		.byte	0x1
 2021 06f9 5301     		.2byte	0x153
 2022 06fb A4000000 		.4byte	0xa4
 2023 06ff 21000000 		.4byte	.LLST1
 2024 0703 1A       		.uleb128 0x1a
 2025 0704 3C000000 		.4byte	.LVL2
 2026 0708 F40D0000 		.4byte	0xdf4
 2027 070c 00       		.byte	0
 2028 070d 17       		.uleb128 0x17
 2029 070e B1080000 		.4byte	.LASF98
 2030 0712 01       		.byte	0x1
 2031 0713 AF01     		.2byte	0x1af
 2032 0715 A4000000 		.4byte	0xa4
 2033 0719 00000000 		.4byte	.LFB3
 2034 071d 1C000000 		.4byte	.LFE3-.LFB3
 2035 0721 01       		.uleb128 0x1
 2036 0722 9C       		.byte	0x9c
 2037 0723 41070000 		.4byte	0x741
 2038 0727 19       		.uleb128 0x19
 2039 0728 EB000000 		.4byte	.LASF100
 2040 072c 01       		.byte	0x1
 2041 072d B101     		.2byte	0x1b1
 2042 072f A4000000 		.4byte	0xa4
 2043 0733 3F000000 		.4byte	.LLST2
 2044 0737 1A       		.uleb128 0x1a
 2045 0738 0E000000 		.4byte	.LVL5
 2046 073c 050E0000 		.4byte	0xe05
 2047 0740 00       		.byte	0
 2048 0741 17       		.uleb128 0x17
 2049 0742 29060000 		.4byte	.LASF101
 2050 0746 01       		.byte	0x1
 2051 0747 FB01     		.2byte	0x1fb
 2052 0749 A4000000 		.4byte	0xa4
 2053 074d 00000000 		.4byte	.LFB4
 2054 0751 48000000 		.4byte	.LFE4-.LFB4
 2055 0755 01       		.uleb128 0x1
 2056 0756 9C       		.byte	0x9c
 2057 0757 99070000 		.4byte	0x799
 2058 075b 19       		.uleb128 0x19
 2059 075c EB000000 		.4byte	.LASF100
 2060 0760 01       		.byte	0x1
 2061 0761 FD01     		.2byte	0x1fd
ARM GAS  C:\Users\Administrator\AppData\Local\Temp\ccPYRpEO.s 			page 90


 2062 0763 A4000000 		.4byte	0xa4
 2063 0767 5E000000 		.4byte	.LLST3
 2064 076b 19       		.uleb128 0x19
 2065 076c 42060000 		.4byte	.LASF102
 2066 0770 01       		.byte	0x1
 2067 0771 FF01     		.2byte	0x1ff
 2068 0773 83000000 		.4byte	0x83
 2069 0777 AC000000 		.4byte	.LLST4
 2070 077b 1B       		.uleb128 0x1b
 2071 077c 18000000 		.4byte	.LVL10
 2072 0780 C9060000 		.4byte	0x6c9
 2073 0784 8F070000 		.4byte	0x78f
 2074 0788 1C       		.uleb128 0x1c
 2075 0789 01       		.uleb128 0x1
 2076 078a 50       		.byte	0x50
 2077 078b 02       		.uleb128 0x2
 2078 078c 74       		.byte	0x74
 2079 078d 00       		.sleb128 0
 2080 078e 00       		.byte	0
 2081 078f 1A       		.uleb128 0x1a
 2082 0790 32000000 		.4byte	.LVL11
 2083 0794 0D070000 		.4byte	0x70d
 2084 0798 00       		.byte	0
 2085 0799 1D       		.uleb128 0x1d
 2086 079a FE080000 		.4byte	.LASF110
 2087 079e 01       		.byte	0x1
 2088 079f E202     		.2byte	0x2e2
 2089 07a1 00000000 		.4byte	.LFB6
 2090 07a5 90000000 		.4byte	.LFE6-.LFB6
 2091 07a9 01       		.uleb128 0x1
 2092 07aa 9C       		.byte	0x9c
 2093 07ab 64080000 		.4byte	0x864
 2094 07af 18       		.uleb128 0x18
 2095 07b0 42060000 		.4byte	.LASF102
 2096 07b4 01       		.byte	0x1
 2097 07b5 E202     		.2byte	0x2e2
 2098 07b7 83000000 		.4byte	0x83
 2099 07bb BF000000 		.4byte	.LLST5
 2100 07bf 18       		.uleb128 0x18
 2101 07c0 77060000 		.4byte	.LASF103
 2102 07c4 01       		.byte	0x1
 2103 07c5 E202     		.2byte	0x2e2
 2104 07c7 83000000 		.4byte	0x83
 2105 07cb E0000000 		.4byte	.LLST6
 2106 07cf 18       		.uleb128 0x18
 2107 07d0 33090000 		.4byte	.LASF104
 2108 07d4 01       		.byte	0x1
 2109 07d5 E202     		.2byte	0x2e2
 2110 07d7 83000000 		.4byte	0x83
 2111 07db 01010000 		.4byte	.LLST7
 2112 07df 19       		.uleb128 0x19
 2113 07e0 9A090000 		.4byte	.LASF105
 2114 07e4 01       		.byte	0x1
 2115 07e5 E402     		.2byte	0x2e4
 2116 07e7 64080000 		.4byte	0x864
 2117 07eb 54010000 		.4byte	.LLST8
 2118 07ef 19       		.uleb128 0x19
ARM GAS  C:\Users\Administrator\AppData\Local\Temp\ccPYRpEO.s 			page 91


 2119 07f0 13030000 		.4byte	.LASF106
 2120 07f4 01       		.byte	0x1
 2121 07f5 E902     		.2byte	0x2e9
 2122 07f7 83000000 		.4byte	0x83
 2123 07fb 67010000 		.4byte	.LLST9
 2124 07ff 19       		.uleb128 0x19
 2125 0800 CA010000 		.4byte	.LASF107
 2126 0804 01       		.byte	0x1
 2127 0805 EA02     		.2byte	0x2ea
 2128 0807 6B000000 		.4byte	0x6b
 2129 080b 90010000 		.4byte	.LLST10
 2130 080f 19       		.uleb128 0x19
 2131 0810 00020000 		.4byte	.LASF108
 2132 0814 01       		.byte	0x1
 2133 0815 EB02     		.2byte	0x2eb
 2134 0817 83000000 		.4byte	0x83
 2135 081b AE010000 		.4byte	.LLST11
 2136 081f 19       		.uleb128 0x19
 2137 0820 4B020000 		.4byte	.LASF109
 2138 0824 01       		.byte	0x1
 2139 0825 EC02     		.2byte	0x2ec
 2140 0827 83000000 		.4byte	0x83
 2141 082b C6010000 		.4byte	.LLST12
 2142 082f 1A       		.uleb128 0x1a
 2143 0830 36000000 		.4byte	.LVL21
 2144 0834 0C0E0000 		.4byte	0xe0c
 2145 0838 1A       		.uleb128 0x1a
 2146 0839 4E000000 		.4byte	.LVL26
 2147 083d 170E0000 		.4byte	0xe17
 2148 0841 1A       		.uleb128 0x1a
 2149 0842 62000000 		.4byte	.LVL28
 2150 0846 0C0E0000 		.4byte	0xe0c
 2151 084a 1A       		.uleb128 0x1a
 2152 084b 72000000 		.4byte	.LVL31
 2153 084f 170E0000 		.4byte	0xe17
 2154 0853 1E       		.uleb128 0x1e
 2155 0854 88000000 		.4byte	.LVL33
 2156 0858 280E0000 		.4byte	0xe28
 2157 085c 1C       		.uleb128 0x1c
 2158 085d 01       		.uleb128 0x1
 2159 085e 50       		.byte	0x50
 2160 085f 02       		.uleb128 0x2
 2161 0860 74       		.byte	0x74
 2162 0861 00       		.sleb128 0
 2163 0862 00       		.byte	0
 2164 0863 00       		.byte	0
 2165 0864 06       		.uleb128 0x6
 2166 0865 04       		.byte	0x4
 2167 0866 6A080000 		.4byte	0x86a
 2168 086a 1F       		.uleb128 0x1f
 2169 086b D3050000 		.4byte	0x5d3
 2170 086f 1D       		.uleb128 0x1d
 2171 0870 2E040000 		.4byte	.LASF111
 2172 0874 01       		.byte	0x1
 2173 0875 A004     		.2byte	0x4a0
 2174 0877 00000000 		.4byte	.LFB7
 2175 087b 68000000 		.4byte	.LFE7-.LFB7
ARM GAS  C:\Users\Administrator\AppData\Local\Temp\ccPYRpEO.s 			page 92


 2176 087f 01       		.uleb128 0x1
 2177 0880 9C       		.byte	0x9c
 2178 0881 A8080000 		.4byte	0x8a8
 2179 0885 19       		.uleb128 0x19
 2180 0886 D1060000 		.4byte	.LASF112
 2181 088a 01       		.byte	0x1
 2182 088b A904     		.2byte	0x4a9
 2183 088d A4000000 		.4byte	0xa4
 2184 0891 EE010000 		.4byte	.LLST13
 2185 0895 1A       		.uleb128 0x1a
 2186 0896 14000000 		.4byte	.LVL36
 2187 089a C9060000 		.4byte	0x6c9
 2188 089e 1A       		.uleb128 0x1a
 2189 089f 2A000000 		.4byte	.LVL38
 2190 08a3 0D070000 		.4byte	0x70d
 2191 08a7 00       		.byte	0
 2192 08a8 1D       		.uleb128 0x1d
 2193 08a9 CC080000 		.4byte	.LASF113
 2194 08ad 01       		.byte	0x1
 2195 08ae 1C05     		.2byte	0x51c
 2196 08b0 00000000 		.4byte	.LFB8
 2197 08b4 08000000 		.4byte	.LFE8-.LFB8
 2198 08b8 01       		.uleb128 0x1
 2199 08b9 9C       		.byte	0x9c
 2200 08ba E0080000 		.4byte	0x8e0
 2201 08be 18       		.uleb128 0x18
 2202 08bf 46080000 		.4byte	.LASF114
 2203 08c3 01       		.byte	0x1
 2204 08c4 1C05     		.2byte	0x51c
 2205 08c6 C6000000 		.4byte	0xc6
 2206 08ca 39020000 		.4byte	.LLST14
 2207 08ce 1E       		.uleb128 0x1e
 2208 08cf 06000000 		.4byte	.LVL45
 2209 08d3 390E0000 		.4byte	0xe39
 2210 08d7 1C       		.uleb128 0x1c
 2211 08d8 01       		.uleb128 0x1
 2212 08d9 50       		.byte	0x50
 2213 08da 03       		.uleb128 0x3
 2214 08db F3       		.byte	0xf3
 2215 08dc 01       		.uleb128 0x1
 2216 08dd 50       		.byte	0x50
 2217 08de 00       		.byte	0
 2218 08df 00       		.byte	0
 2219 08e0 1D       		.uleb128 0x1d
 2220 08e1 A9040000 		.4byte	.LASF115
 2221 08e5 01       		.byte	0x1
 2222 08e6 3805     		.2byte	0x538
 2223 08e8 00000000 		.4byte	.LFB9
 2224 08ec 30000000 		.4byte	.LFE9-.LFB9
 2225 08f0 01       		.uleb128 0x1
 2226 08f1 9C       		.byte	0x9c
 2227 08f2 07090000 		.4byte	0x907
 2228 08f6 18       		.uleb128 0x18
 2229 08f7 86030000 		.4byte	.LASF116
 2230 08fb 01       		.byte	0x1
 2231 08fc 3805     		.2byte	0x538
 2232 08fe 83000000 		.4byte	0x83
ARM GAS  C:\Users\Administrator\AppData\Local\Temp\ccPYRpEO.s 			page 93


 2233 0902 5A020000 		.4byte	.LLST15
 2234 0906 00       		.byte	0
 2235 0907 1D       		.uleb128 0x1d
 2236 0908 14090000 		.4byte	.LASF117
 2237 090c 01       		.byte	0x1
 2238 090d 7C05     		.2byte	0x57c
 2239 090f 00000000 		.4byte	.LFB10
 2240 0913 14000000 		.4byte	.LFE10-.LFB10
 2241 0917 01       		.uleb128 0x1
 2242 0918 9C       		.byte	0x9c
 2243 0919 3E090000 		.4byte	0x93e
 2244 091d 18       		.uleb128 0x18
 2245 091e A6090000 		.4byte	.LASF118
 2246 0922 01       		.byte	0x1
 2247 0923 7C05     		.2byte	0x57c
 2248 0925 83000000 		.4byte	0x83
 2249 0929 88020000 		.4byte	.LLST16
 2250 092d 19       		.uleb128 0x19
 2251 092e 000A0000 		.4byte	.LASF119
 2252 0932 01       		.byte	0x1
 2253 0933 7F05     		.2byte	0x57f
 2254 0935 83000000 		.4byte	0x83
 2255 0939 B6020000 		.4byte	.LLST17
 2256 093d 00       		.byte	0
 2257 093e 1D       		.uleb128 0x1d
 2258 093f 92000000 		.4byte	.LASF120
 2259 0943 01       		.byte	0x1
 2260 0944 D005     		.2byte	0x5d0
 2261 0946 00000000 		.4byte	.LFB11
 2262 094a 12000000 		.4byte	.LFE11-.LFB11
 2263 094e 01       		.uleb128 0x1
 2264 094f 9C       		.byte	0x9c
 2265 0950 9A090000 		.4byte	0x99a
 2266 0954 18       		.uleb128 0x18
 2267 0955 A6090000 		.4byte	.LASF118
 2268 0959 01       		.byte	0x1
 2269 095a D005     		.2byte	0x5d0
 2270 095c 83000000 		.4byte	0x83
 2271 0960 DF020000 		.4byte	.LLST18
 2272 0964 18       		.uleb128 0x18
 2273 0965 86030000 		.4byte	.LASF116
 2274 0969 01       		.byte	0x1
 2275 096a D005     		.2byte	0x5d0
 2276 096c 83000000 		.4byte	0x83
 2277 0970 0B030000 		.4byte	.LLST19
 2278 0974 1B       		.uleb128 0x1b
 2279 0975 0A000000 		.4byte	.LVL57
 2280 0979 E0080000 		.4byte	0x8e0
 2281 097d 89090000 		.4byte	0x989
 2282 0981 1C       		.uleb128 0x1c
 2283 0982 01       		.uleb128 0x1
 2284 0983 50       		.byte	0x50
 2285 0984 03       		.uleb128 0x3
 2286 0985 F3       		.byte	0xf3
 2287 0986 01       		.uleb128 0x1
 2288 0987 51       		.byte	0x51
 2289 0988 00       		.byte	0
ARM GAS  C:\Users\Administrator\AppData\Local\Temp\ccPYRpEO.s 			page 94


 2290 0989 1E       		.uleb128 0x1e
 2291 098a 10000000 		.4byte	.LVL58
 2292 098e 07090000 		.4byte	0x907
 2293 0992 1C       		.uleb128 0x1c
 2294 0993 01       		.uleb128 0x1
 2295 0994 50       		.byte	0x50
 2296 0995 02       		.uleb128 0x2
 2297 0996 74       		.byte	0x74
 2298 0997 00       		.sleb128 0
 2299 0998 00       		.byte	0
 2300 0999 00       		.byte	0
 2301 099a 17       		.uleb128 0x17
 2302 099b AD060000 		.4byte	.LASF121
 2303 099f 01       		.byte	0x1
 2304 09a0 FD05     		.2byte	0x5fd
 2305 09a2 A4000000 		.4byte	0xa4
 2306 09a6 00000000 		.4byte	.LFB12
 2307 09aa 1C000000 		.4byte	.LFE12-.LFB12
 2308 09ae 01       		.uleb128 0x1
 2309 09af 9C       		.byte	0x9c
 2310 09b0 EC090000 		.4byte	0x9ec
 2311 09b4 18       		.uleb128 0x18
 2312 09b5 42060000 		.4byte	.LASF102
 2313 09b9 01       		.byte	0x1
 2314 09ba FD05     		.2byte	0x5fd
 2315 09bc 83000000 		.4byte	0x83
 2316 09c0 2C030000 		.4byte	.LLST20
 2317 09c4 19       		.uleb128 0x19
 2318 09c5 3E050000 		.4byte	.LASF122
 2319 09c9 01       		.byte	0x1
 2320 09ca FF05     		.2byte	0x5ff
 2321 09cc A4000000 		.4byte	0xa4
 2322 09d0 6E030000 		.4byte	.LLST21
 2323 09d4 1E       		.uleb128 0x1e
 2324 09d5 1A000000 		.4byte	.LVL66
 2325 09d9 4A0E0000 		.4byte	0xe4a
 2326 09dd 1C       		.uleb128 0x1c
 2327 09de 01       		.uleb128 0x1
 2328 09df 51       		.byte	0x51
 2329 09e0 02       		.uleb128 0x2
 2330 09e1 08       		.byte	0x8
 2331 09e2 3C       		.byte	0x3c
 2332 09e3 1C       		.uleb128 0x1c
 2333 09e4 01       		.uleb128 0x1
 2334 09e5 50       		.byte	0x50
 2335 09e6 03       		.uleb128 0x3
 2336 09e7 F3       		.byte	0xf3
 2337 09e8 01       		.uleb128 0x1
 2338 09e9 50       		.byte	0x50
 2339 09ea 00       		.byte	0
 2340 09eb 00       		.byte	0
 2341 09ec 17       		.uleb128 0x17
 2342 09ed 05040000 		.4byte	.LASF123
 2343 09f1 01       		.byte	0x1
 2344 09f2 6806     		.2byte	0x668
 2345 09f4 A4000000 		.4byte	0xa4
 2346 09f8 00000000 		.4byte	.LFB13
ARM GAS  C:\Users\Administrator\AppData\Local\Temp\ccPYRpEO.s 			page 95


 2347 09fc 1A000000 		.4byte	.LFE13-.LFB13
 2348 0a00 01       		.uleb128 0x1
 2349 0a01 9C       		.byte	0x9c
 2350 0a02 370A0000 		.4byte	0xa37
 2351 0a06 19       		.uleb128 0x19
 2352 0a07 3E050000 		.4byte	.LASF122
 2353 0a0b 01       		.byte	0x1
 2354 0a0c 6A06     		.2byte	0x66a
 2355 0a0e A4000000 		.4byte	0xa4
 2356 0a12 98030000 		.4byte	.LLST22
 2357 0a16 19       		.uleb128 0x19
 2358 0a17 42060000 		.4byte	.LASF102
 2359 0a1b 01       		.byte	0x1
 2360 0a1c 6B06     		.2byte	0x66b
 2361 0a1e 83000000 		.4byte	0x83
 2362 0a22 C2030000 		.4byte	.LLST23
 2363 0a26 1E       		.uleb128 0x1e
 2364 0a27 0E000000 		.4byte	.LVL69
 2365 0a2b 9A090000 		.4byte	0x99a
 2366 0a2f 1C       		.uleb128 0x1c
 2367 0a30 01       		.uleb128 0x1
 2368 0a31 50       		.byte	0x50
 2369 0a32 02       		.uleb128 0x2
 2370 0a33 74       		.byte	0x74
 2371 0a34 00       		.sleb128 0
 2372 0a35 00       		.byte	0
 2373 0a36 00       		.byte	0
 2374 0a37 1D       		.uleb128 0x1d
 2375 0a38 39090000 		.4byte	.LASF124
 2376 0a3c 01       		.byte	0x1
 2377 0a3d B80A     		.2byte	0xab8
 2378 0a3f 00000000 		.4byte	.LFB18
 2379 0a43 40000000 		.4byte	.LFE18-.LFB18
 2380 0a47 01       		.uleb128 0x1
 2381 0a48 9C       		.byte	0x9c
 2382 0a49 980A0000 		.4byte	0xa98
 2383 0a4d 19       		.uleb128 0x19
 2384 0a4e 42060000 		.4byte	.LASF102
 2385 0a52 01       		.byte	0x1
 2386 0a53 BA0A     		.2byte	0xaba
 2387 0a55 83000000 		.4byte	0x83
 2388 0a59 E1030000 		.4byte	.LLST24
 2389 0a5d 19       		.uleb128 0x19
 2390 0a5e 77060000 		.4byte	.LASF103
 2391 0a62 01       		.byte	0x1
 2392 0a63 BB0A     		.2byte	0xabb
 2393 0a65 83000000 		.4byte	0x83
 2394 0a69 00040000 		.4byte	.LLST25
 2395 0a6d 19       		.uleb128 0x19
 2396 0a6e 9A090000 		.4byte	.LASF105
 2397 0a72 01       		.byte	0x1
 2398 0a73 C70A     		.2byte	0xac7
 2399 0a75 64080000 		.4byte	0x864
 2400 0a79 1F040000 		.4byte	.LLST26
 2401 0a7d 1E       		.uleb128 0x1e
 2402 0a7e 20000000 		.4byte	.LVL78
 2403 0a82 640E0000 		.4byte	0xe64
ARM GAS  C:\Users\Administrator\AppData\Local\Temp\ccPYRpEO.s 			page 96


 2404 0a86 1C       		.uleb128 0x1c
 2405 0a87 01       		.uleb128 0x1
 2406 0a88 50       		.byte	0x50
 2407 0a89 0C       		.uleb128 0xc
 2408 0a8a 74       		.byte	0x74
 2409 0a8b 00       		.sleb128 0
 2410 0a8c 33       		.byte	0x33
 2411 0a8d 24       		.byte	0x24
 2412 0a8e 74       		.byte	0x74
 2413 0a8f 00       		.sleb128 0
 2414 0a90 1C       		.byte	0x1c
 2415 0a91 32       		.byte	0x32
 2416 0a92 24       		.byte	0x24
 2417 0a93 76       		.byte	0x76
 2418 0a94 00       		.sleb128 0
 2419 0a95 22       		.byte	0x22
 2420 0a96 00       		.byte	0
 2421 0a97 00       		.byte	0
 2422 0a98 17       		.uleb128 0x17
 2423 0a99 AF000000 		.4byte	.LASF125
 2424 0a9d 01       		.byte	0x1
 2425 0a9e 090B     		.2byte	0xb09
 2426 0aa0 83000000 		.4byte	0x83
 2427 0aa4 00000000 		.4byte	.LFB19
 2428 0aa8 0C000000 		.4byte	.LFE19-.LFB19
 2429 0aac 01       		.uleb128 0x1
 2430 0aad 9C       		.byte	0x9c
 2431 0aae D10A0000 		.4byte	0xad1
 2432 0ab2 18       		.uleb128 0x18
 2433 0ab3 42060000 		.4byte	.LASF102
 2434 0ab7 01       		.byte	0x1
 2435 0ab8 090B     		.2byte	0xb09
 2436 0aba 83000000 		.4byte	0x83
 2437 0abe 32040000 		.4byte	.LLST27
 2438 0ac2 20       		.uleb128 0x20
 2439 0ac3 3F080000 		.4byte	.LASF126
 2440 0ac7 01       		.byte	0x1
 2441 0ac8 0B0B     		.2byte	0xb0b
 2442 0aca 83000000 		.4byte	0x83
 2443 0ace 01       		.uleb128 0x1
 2444 0acf 50       		.byte	0x50
 2445 0ad0 00       		.byte	0
 2446 0ad1 17       		.uleb128 0x17
 2447 0ad2 8B020000 		.4byte	.LASF127
 2448 0ad6 01       		.byte	0x1
 2449 0ad7 5E0B     		.2byte	0xb5e
 2450 0ad9 6B000000 		.4byte	0x6b
 2451 0add 00000000 		.4byte	.LFB20
 2452 0ae1 26000000 		.4byte	.LFE20-.LFB20
 2453 0ae5 01       		.uleb128 0x1
 2454 0ae6 9C       		.byte	0x9c
 2455 0ae7 290B0000 		.4byte	0xb29
 2456 0aeb 18       		.uleb128 0x18
 2457 0aec 480A0000 		.4byte	.LASF128
 2458 0af0 01       		.byte	0x1
 2459 0af1 5E0B     		.2byte	0xb5e
 2460 0af3 83000000 		.4byte	0x83
ARM GAS  C:\Users\Administrator\AppData\Local\Temp\ccPYRpEO.s 			page 97


 2461 0af7 53040000 		.4byte	.LLST28
 2462 0afb 18       		.uleb128 0x18
 2463 0afc 97040000 		.4byte	.LASF24
 2464 0b00 01       		.byte	0x1
 2465 0b01 5E0B     		.2byte	0xb5e
 2466 0b03 83000000 		.4byte	0x83
 2467 0b07 8D040000 		.4byte	.LLST29
 2468 0b0b 19       		.uleb128 0x19
 2469 0b0c 14080000 		.4byte	.LASF129
 2470 0b10 01       		.byte	0x1
 2471 0b11 600B     		.2byte	0xb60
 2472 0b13 83000000 		.4byte	0x83
 2473 0b17 AE040000 		.4byte	.LLST30
 2474 0b1b 21       		.uleb128 0x21
 2475 0b1c 680A0000 		.4byte	.LASF130
 2476 0b20 01       		.byte	0x1
 2477 0b21 610B     		.2byte	0xb61
 2478 0b23 83000000 		.4byte	0x83
 2479 0b27 01       		.byte	0x1
 2480 0b28 00       		.byte	0
 2481 0b29 22       		.uleb128 0x22
 2482 0b2a A6010000 		.4byte	.LASF132
 2483 0b2e 01       		.byte	0x1
 2484 0b2f 140A     		.2byte	0xa14
 2485 0b31 6B000000 		.4byte	0x6b
 2486 0b35 03       		.byte	0x3
 2487 0b36 5F0B0000 		.4byte	0xb5f
 2488 0b3a 23       		.uleb128 0x23
 2489 0b3b 480A0000 		.4byte	.LASF128
 2490 0b3f 01       		.byte	0x1
 2491 0b40 140A     		.2byte	0xa14
 2492 0b42 83000000 		.4byte	0x83
 2493 0b46 23       		.uleb128 0x23
 2494 0b47 54040000 		.4byte	.LASF131
 2495 0b4b 01       		.byte	0x1
 2496 0b4c 140A     		.2byte	0xa14
 2497 0b4e 83000000 		.4byte	0x83
 2498 0b52 24       		.uleb128 0x24
 2499 0b53 0A030000 		.4byte	.LASF134
 2500 0b57 01       		.byte	0x1
 2501 0b58 160A     		.2byte	0xa16
 2502 0b5a 6B000000 		.4byte	0x6b
 2503 0b5e 00       		.byte	0
 2504 0b5f 22       		.uleb128 0x22
 2505 0b60 AF030000 		.4byte	.LASF133
 2506 0b64 01       		.byte	0x1
 2507 0b65 5F0A     		.2byte	0xa5f
 2508 0b67 6B000000 		.4byte	0x6b
 2509 0b6b 03       		.byte	0x3
 2510 0b6c AD0B0000 		.4byte	0xbad
 2511 0b70 23       		.uleb128 0x23
 2512 0b71 480A0000 		.4byte	.LASF128
 2513 0b75 01       		.byte	0x1
 2514 0b76 5F0A     		.2byte	0xa5f
 2515 0b78 83000000 		.4byte	0x83
 2516 0b7c 23       		.uleb128 0x23
 2517 0b7d 0A030000 		.4byte	.LASF134
ARM GAS  C:\Users\Administrator\AppData\Local\Temp\ccPYRpEO.s 			page 98


 2518 0b81 01       		.byte	0x1
 2519 0b82 5F0A     		.2byte	0xa5f
 2520 0b84 6B000000 		.4byte	0x6b
 2521 0b88 24       		.uleb128 0x24
 2522 0b89 F6010000 		.4byte	.LASF135
 2523 0b8d 01       		.byte	0x1
 2524 0b8e 610A     		.2byte	0xa61
 2525 0b90 83000000 		.4byte	0x83
 2526 0b94 24       		.uleb128 0x24
 2527 0b95 2A020000 		.4byte	.LASF136
 2528 0b99 01       		.byte	0x1
 2529 0b9a 620A     		.2byte	0xa62
 2530 0b9c 83000000 		.4byte	0x83
 2531 0ba0 24       		.uleb128 0x24
 2532 0ba1 F5090000 		.4byte	.LASF137
 2533 0ba5 01       		.byte	0x1
 2534 0ba6 630A     		.2byte	0xa63
 2535 0ba8 83000000 		.4byte	0x83
 2536 0bac 00       		.byte	0
 2537 0bad 25       		.uleb128 0x25
 2538 0bae 7F0A0000 		.4byte	.LASF163
 2539 0bb2 01       		.byte	0x1
 2540 0bb3 8C09     		.2byte	0x98c
 2541 0bb5 00000000 		.4byte	.LFB15
 2542 0bb9 D8000000 		.4byte	.LFE15-.LFB15
 2543 0bbd 01       		.uleb128 0x1
 2544 0bbe 9C       		.byte	0x9c
 2545 0bbf E40C0000 		.4byte	0xce4
 2546 0bc3 18       		.uleb128 0x18
 2547 0bc4 42060000 		.4byte	.LASF102
 2548 0bc8 01       		.byte	0x1
 2549 0bc9 8C09     		.2byte	0x98c
 2550 0bcb 83000000 		.4byte	0x83
 2551 0bcf C1040000 		.4byte	.LLST31
 2552 0bd3 18       		.uleb128 0x18
 2553 0bd4 83020000 		.4byte	.LASF138
 2554 0bd8 01       		.byte	0x1
 2555 0bd9 8C09     		.2byte	0x98c
 2556 0bdb E40C0000 		.4byte	0xce4
 2557 0bdf E2040000 		.4byte	.LLST32
 2558 0be3 19       		.uleb128 0x19
 2559 0be4 0A030000 		.4byte	.LASF134
 2560 0be8 01       		.byte	0x1
 2561 0be9 8E09     		.2byte	0x98e
 2562 0beb 6B000000 		.4byte	0x6b
 2563 0bef 0E050000 		.4byte	.LLST33
 2564 0bf3 24       		.uleb128 0x24
 2565 0bf4 F6010000 		.4byte	.LASF135
 2566 0bf8 01       		.byte	0x1
 2567 0bf9 8F09     		.2byte	0x98f
 2568 0bfb 6B000000 		.4byte	0x6b
 2569 0bff 19       		.uleb128 0x19
 2570 0c00 54040000 		.4byte	.LASF131
 2571 0c04 01       		.byte	0x1
 2572 0c05 9309     		.2byte	0x993
 2573 0c07 83000000 		.4byte	0x83
 2574 0c0b 21050000 		.4byte	.LLST34
ARM GAS  C:\Users\Administrator\AppData\Local\Temp\ccPYRpEO.s 			page 99


 2575 0c0f 19       		.uleb128 0x19
 2576 0c10 480A0000 		.4byte	.LASF128
 2577 0c14 01       		.byte	0x1
 2578 0c15 9509     		.2byte	0x995
 2579 0c17 83000000 		.4byte	0x83
 2580 0c1b 81050000 		.4byte	.LLST35
 2581 0c1f 26       		.uleb128 0x26
 2582 0c20 290B0000 		.4byte	0xb29
 2583 0c24 14000000 		.4byte	.LBB6
 2584 0c28 6C000000 		.4byte	.LBE6-.LBB6
 2585 0c2c 01       		.byte	0x1
 2586 0c2d 9E09     		.2byte	0x99e
 2587 0c2f 590C0000 		.4byte	0xc59
 2588 0c33 27       		.uleb128 0x27
 2589 0c34 460B0000 		.4byte	0xb46
 2590 0c38 21050000 		.4byte	.LLST34
 2591 0c3c 27       		.uleb128 0x27
 2592 0c3d 3A0B0000 		.4byte	0xb3a
 2593 0c41 9F050000 		.4byte	.LLST37
 2594 0c45 28       		.uleb128 0x28
 2595 0c46 14000000 		.4byte	.LBB7
 2596 0c4a 6C000000 		.4byte	.LBE7-.LBB7
 2597 0c4e 29       		.uleb128 0x29
 2598 0c4f 520B0000 		.4byte	0xb52
 2599 0c53 B2050000 		.4byte	.LLST38
 2600 0c57 00       		.byte	0
 2601 0c58 00       		.byte	0
 2602 0c59 26       		.uleb128 0x26
 2603 0c5a 5F0B0000 		.4byte	0xb5f
 2604 0c5e 8E000000 		.4byte	.LBB8
 2605 0c62 3C000000 		.4byte	.LBE8-.LBB8
 2606 0c66 01       		.byte	0x1
 2607 0c67 A309     		.2byte	0x9a3
 2608 0c69 A50C0000 		.4byte	0xca5
 2609 0c6d 27       		.uleb128 0x27
 2610 0c6e 7C0B0000 		.4byte	0xb7c
 2611 0c72 0E050000 		.4byte	.LLST33
 2612 0c76 27       		.uleb128 0x27
 2613 0c77 700B0000 		.4byte	0xb70
 2614 0c7b D1050000 		.4byte	.LLST40
 2615 0c7f 28       		.uleb128 0x28
 2616 0c80 8E000000 		.4byte	.LBB9
 2617 0c84 3C000000 		.4byte	.LBE9-.LBB9
 2618 0c88 29       		.uleb128 0x29
 2619 0c89 880B0000 		.4byte	0xb88
 2620 0c8d E4050000 		.4byte	.LLST41
 2621 0c91 29       		.uleb128 0x29
 2622 0c92 940B0000 		.4byte	0xb94
 2623 0c96 0E060000 		.4byte	.LLST42
 2624 0c9a 29       		.uleb128 0x29
 2625 0c9b A00B0000 		.4byte	0xba0
 2626 0c9f 2C060000 		.4byte	.LLST43
 2627 0ca3 00       		.byte	0
 2628 0ca4 00       		.byte	0
 2629 0ca5 1B       		.uleb128 0x1b
 2630 0ca6 08000000 		.4byte	.LVL92
 2631 0caa 980A0000 		.4byte	0xa98
ARM GAS  C:\Users\Administrator\AppData\Local\Temp\ccPYRpEO.s 			page 100


 2632 0cae BA0C0000 		.4byte	0xcba
 2633 0cb2 1C       		.uleb128 0x1c
 2634 0cb3 01       		.uleb128 0x1
 2635 0cb4 50       		.byte	0x50
 2636 0cb5 03       		.uleb128 0x3
 2637 0cb6 F3       		.byte	0xf3
 2638 0cb7 01       		.uleb128 0x1
 2639 0cb8 50       		.byte	0x50
 2640 0cb9 00       		.byte	0
 2641 0cba 1B       		.uleb128 0x1b
 2642 0cbb 12000000 		.4byte	.LVL94
 2643 0cbf 750E0000 		.4byte	0xe75
 2644 0cc3 D30C0000 		.4byte	0xcd3
 2645 0cc7 1C       		.uleb128 0x1c
 2646 0cc8 01       		.uleb128 0x1
 2647 0cc9 52       		.byte	0x52
 2648 0cca 01       		.uleb128 0x1
 2649 0ccb 30       		.byte	0x30
 2650 0ccc 1C       		.uleb128 0x1c
 2651 0ccd 01       		.uleb128 0x1
 2652 0cce 50       		.byte	0x50
 2653 0ccf 02       		.uleb128 0x2
 2654 0cd0 75       		.byte	0x75
 2655 0cd1 00       		.sleb128 0
 2656 0cd2 00       		.byte	0
 2657 0cd3 1E       		.uleb128 0x1e
 2658 0cd4 8C000000 		.4byte	.LVL113
 2659 0cd8 D10A0000 		.4byte	0xad1
 2660 0cdc 1C       		.uleb128 0x1c
 2661 0cdd 01       		.uleb128 0x1
 2662 0cde 50       		.byte	0x50
 2663 0cdf 02       		.uleb128 0x2
 2664 0ce0 75       		.byte	0x75
 2665 0ce1 00       		.sleb128 0
 2666 0ce2 00       		.byte	0
 2667 0ce3 00       		.byte	0
 2668 0ce4 06       		.uleb128 0x6
 2669 0ce5 04       		.byte	0x4
 2670 0ce6 AA010000 		.4byte	0x1aa
 2671 0cea 1D       		.uleb128 0x1d
 2672 0ceb 56010000 		.4byte	.LASF139
 2673 0cef 01       		.byte	0x1
 2674 0cf0 5A09     		.2byte	0x95a
 2675 0cf2 00000000 		.4byte	.LFB14
 2676 0cf6 24000000 		.4byte	.LFE14-.LFB14
 2677 0cfa 01       		.uleb128 0x1
 2678 0cfb 9C       		.byte	0x9c
 2679 0cfc 310D0000 		.4byte	0xd31
 2680 0d00 19       		.uleb128 0x19
 2681 0d01 42060000 		.4byte	.LASF102
 2682 0d05 01       		.byte	0x1
 2683 0d06 5C09     		.2byte	0x95c
 2684 0d08 83000000 		.4byte	0x83
 2685 0d0c 3F060000 		.4byte	.LLST44
 2686 0d10 19       		.uleb128 0x19
 2687 0d11 83020000 		.4byte	.LASF138
 2688 0d15 01       		.byte	0x1
ARM GAS  C:\Users\Administrator\AppData\Local\Temp\ccPYRpEO.s 			page 101


 2689 0d16 5D09     		.2byte	0x95d
 2690 0d18 E40C0000 		.4byte	0xce4
 2691 0d1c 5E060000 		.4byte	.LLST45
 2692 0d20 1E       		.uleb128 0x1e
 2693 0d21 18000000 		.4byte	.LVL131
 2694 0d25 AD0B0000 		.4byte	0xbad
 2695 0d29 1C       		.uleb128 0x1c
 2696 0d2a 01       		.uleb128 0x1
 2697 0d2b 50       		.byte	0x50
 2698 0d2c 02       		.uleb128 0x2
 2699 0d2d 74       		.byte	0x74
 2700 0d2e 00       		.sleb128 0
 2701 0d2f 00       		.byte	0
 2702 0d30 00       		.byte	0
 2703 0d31 17       		.uleb128 0x17
 2704 0d32 BF050000 		.4byte	.LASF140
 2705 0d36 01       		.byte	0x1
 2706 0d37 5302     		.2byte	0x253
 2707 0d39 A4000000 		.4byte	0xa4
 2708 0d3d 00000000 		.4byte	.LFB5
 2709 0d41 0E000000 		.4byte	.LFE5-.LFB5
 2710 0d45 01       		.uleb128 0x1
 2711 0d46 9C       		.byte	0x9c
 2712 0d47 6B0D0000 		.4byte	0xd6b
 2713 0d4b 21       		.uleb128 0x21
 2714 0d4c BF010000 		.4byte	.LASF141
 2715 0d50 01       		.byte	0x1
 2716 0d51 5502     		.2byte	0x255
 2717 0d53 A4000000 		.4byte	0xa4
 2718 0d57 00       		.byte	0
 2719 0d58 1A       		.uleb128 0x1a
 2720 0d59 06000000 		.4byte	.LVL135
 2721 0d5d EA0C0000 		.4byte	0xcea
 2722 0d61 1A       		.uleb128 0x1a
 2723 0d62 0A000000 		.4byte	.LVL136
 2724 0d66 940E0000 		.4byte	0xe94
 2725 0d6a 00       		.byte	0
 2726 0d6b 2A       		.uleb128 0x2a
 2727 0d6c 270A0000 		.4byte	.LASF142
 2728 0d70 04       		.byte	0x4
 2729 0d71 0404     		.2byte	0x404
 2730 0d73 42050000 		.4byte	0x542
 2731 0d77 2A       		.uleb128 0x2a
 2732 0d78 560A0000 		.4byte	.LASF143
 2733 0d7c 04       		.byte	0x4
 2734 0d7d 0504     		.2byte	0x405
 2735 0d7f 830D0000 		.4byte	0xd83
 2736 0d83 1F       		.uleb128 0x1f
 2737 0d84 A7060000 		.4byte	0x6a7
 2738 0d88 2B       		.uleb128 0x2b
 2739 0d89 E6080000 		.4byte	.LASF144
 2740 0d8d 01       		.byte	0x1
 2741 0d8e D4       		.byte	0xd4
 2742 0d8f 990D0000 		.4byte	0xd99
 2743 0d93 05       		.uleb128 0x5
 2744 0d94 03       		.byte	0x3
 2745 0d95 00000000 		.4byte	key_touch_scanFreqIndex
ARM GAS  C:\Users\Administrator\AppData\Local\Temp\ccPYRpEO.s 			page 102


 2746 0d99 1F       		.uleb128 0x1f
 2747 0d9a 6B000000 		.4byte	0x6b
 2748 0d9e 2B       		.uleb128 0x2b
 2749 0d9f F6000000 		.4byte	.LASF145
 2750 0da3 01       		.byte	0x1
 2751 0da4 DE       		.byte	0xde
 2752 0da5 B0000000 		.4byte	0xb0
 2753 0da9 05       		.uleb128 0x5
 2754 0daa 03       		.byte	0x3
 2755 0dab 00000000 		.4byte	key_touch_widgetIndex
 2756 0daf 2B       		.uleb128 0x2b
 2757 0db0 DB020000 		.4byte	.LASF146
 2758 0db4 01       		.byte	0x1
 2759 0db5 DF       		.byte	0xdf
 2760 0db6 B0000000 		.4byte	0xb0
 2761 0dba 05       		.uleb128 0x5
 2762 0dbb 03       		.byte	0x3
 2763 0dbc 00000000 		.4byte	key_touch_sensorIndex
 2764 0dc0 2B       		.uleb128 0x2b
 2765 0dc1 42030000 		.4byte	.LASF147
 2766 0dc5 01       		.byte	0x1
 2767 0dc6 E1       		.byte	0xe1
 2768 0dc7 6B000000 		.4byte	0x6b
 2769 0dcb 05       		.uleb128 0x5
 2770 0dcc 03       		.byte	0x3
 2771 0dcd 00000000 		.4byte	key_touch_requestScanAllWidget
 2772 0dd1 2B       		.uleb128 0x2b
 2773 0dd2 57050000 		.4byte	.LASF148
 2774 0dd6 01       		.byte	0x1
 2775 0dd7 EB       		.byte	0xeb
 2776 0dd8 67060000 		.4byte	0x667
 2777 0ddc 05       		.uleb128 0x5
 2778 0ddd 03       		.byte	0x3
 2779 0dde 00000000 		.4byte	key_touch_curRamSnsPtr
 2780 0de2 2C       		.uleb128 0x2c
 2781 0de3 DB050000 		.4byte	.LASF149
 2782 0de7 01       		.byte	0x1
 2783 0de8 0701     		.2byte	0x107
 2784 0dea 64080000 		.4byte	0x864
 2785 0dee 05       		.uleb128 0x5
 2786 0def 03       		.byte	0x3
 2787 0df0 00000000 		.4byte	key_touch_curSnsIOPtr
 2788 0df4 2D       		.uleb128 0x2d
 2789 0df5 EC030000 		.4byte	.LASF150
 2790 0df9 05       		.byte	0x5
 2791 0dfa 3A       		.byte	0x3a
 2792 0dfb 050E0000 		.4byte	0xe05
 2793 0dff 2E       		.uleb128 0x2e
 2794 0e00 83000000 		.4byte	0x83
 2795 0e04 00       		.byte	0
 2796 0e05 2F       		.uleb128 0x2f
 2797 0e06 7B010000 		.4byte	.LASF157
 2798 0e0a 05       		.byte	0x5
 2799 0e0b 3C       		.byte	0x3c
 2800 0e0c 30       		.uleb128 0x30
 2801 0e0d AD090000 		.4byte	.LASF164
 2802 0e11 06       		.byte	0x6
ARM GAS  C:\Users\Administrator\AppData\Local\Temp\ccPYRpEO.s 			page 103


 2803 0e12 E5       		.byte	0xe5
 2804 0e13 6B000000 		.4byte	0x6b
 2805 0e17 2D       		.uleb128 0x2d
 2806 0e18 D6030000 		.4byte	.LASF151
 2807 0e1c 06       		.byte	0x6
 2808 0e1d E6       		.byte	0xe6
 2809 0e1e 280E0000 		.4byte	0xe28
 2810 0e22 2E       		.uleb128 0x2e
 2811 0e23 6B000000 		.4byte	0x6b
 2812 0e27 00       		.byte	0
 2813 0e28 2D       		.uleb128 0x2d
 2814 0e29 52070000 		.4byte	.LASF152
 2815 0e2d 05       		.byte	0x5
 2816 0e2e 43       		.byte	0x43
 2817 0e2f 390E0000 		.4byte	0xe39
 2818 0e33 2E       		.uleb128 0x2e
 2819 0e34 64080000 		.4byte	0x864
 2820 0e38 00       		.byte	0
 2821 0e39 2D       		.uleb128 0x2d
 2822 0e3a 66080000 		.4byte	.LASF153
 2823 0e3e 07       		.byte	0x7
 2824 0e3f 18       		.byte	0x18
 2825 0e40 4A0E0000 		.4byte	0xe4a
 2826 0e44 2E       		.uleb128 0x2e
 2827 0e45 C6000000 		.4byte	0xc6
 2828 0e49 00       		.byte	0
 2829 0e4a 31       		.uleb128 0x31
 2830 0e4b 39010000 		.4byte	.LASF155
 2831 0e4f 05       		.byte	0x5
 2832 0e50 40       		.byte	0x40
 2833 0e51 A4000000 		.4byte	0xa4
 2834 0e55 640E0000 		.4byte	0xe64
 2835 0e59 2E       		.uleb128 0x2e
 2836 0e5a 83000000 		.4byte	0x83
 2837 0e5e 2E       		.uleb128 0x2e
 2838 0e5f 83000000 		.4byte	0x83
 2839 0e63 00       		.byte	0
 2840 0e64 2D       		.uleb128 0x2d
 2841 0e65 0B070000 		.4byte	.LASF154
 2842 0e69 05       		.byte	0x5
 2843 0e6a 44       		.byte	0x44
 2844 0e6b 750E0000 		.4byte	0xe75
 2845 0e6f 2E       		.uleb128 0x2e
 2846 0e70 64080000 		.4byte	0x864
 2847 0e74 00       		.byte	0
 2848 0e75 31       		.uleb128 0x31
 2849 0e76 18050000 		.4byte	.LASF156
 2850 0e7a 05       		.byte	0x5
 2851 0e7b 5D       		.byte	0x5d
 2852 0e7c 83000000 		.4byte	0x83
 2853 0e80 940E0000 		.4byte	0xe94
 2854 0e84 2E       		.uleb128 0x2e
 2855 0e85 83000000 		.4byte	0x83
 2856 0e89 2E       		.uleb128 0x2e
 2857 0e8a 83000000 		.4byte	0x83
 2858 0e8e 2E       		.uleb128 0x2e
 2859 0e8f 83000000 		.4byte	0x83
ARM GAS  C:\Users\Administrator\AppData\Local\Temp\ccPYRpEO.s 			page 104


 2860 0e93 00       		.byte	0
 2861 0e94 2F       		.uleb128 0x2f
 2862 0e95 6A070000 		.4byte	.LASF158
 2863 0e99 05       		.byte	0x5
 2864 0e9a 52       		.byte	0x52
 2865 0e9b 00       		.byte	0
 2866              		.section	.debug_abbrev,"",%progbits
 2867              	.Ldebug_abbrev0:
 2868 0000 01       		.uleb128 0x1
 2869 0001 11       		.uleb128 0x11
 2870 0002 01       		.byte	0x1
 2871 0003 25       		.uleb128 0x25
 2872 0004 0E       		.uleb128 0xe
 2873 0005 13       		.uleb128 0x13
 2874 0006 0B       		.uleb128 0xb
 2875 0007 03       		.uleb128 0x3
 2876 0008 0E       		.uleb128 0xe
 2877 0009 1B       		.uleb128 0x1b
 2878 000a 0E       		.uleb128 0xe
 2879 000b 55       		.uleb128 0x55
 2880 000c 17       		.uleb128 0x17
 2881 000d 11       		.uleb128 0x11
 2882 000e 01       		.uleb128 0x1
 2883 000f 10       		.uleb128 0x10
 2884 0010 17       		.uleb128 0x17
 2885 0011 00       		.byte	0
 2886 0012 00       		.byte	0
 2887 0013 02       		.uleb128 0x2
 2888 0014 24       		.uleb128 0x24
 2889 0015 00       		.byte	0
 2890 0016 0B       		.uleb128 0xb
 2891 0017 0B       		.uleb128 0xb
 2892 0018 3E       		.uleb128 0x3e
 2893 0019 0B       		.uleb128 0xb
 2894 001a 03       		.uleb128 0x3
 2895 001b 0E       		.uleb128 0xe
 2896 001c 00       		.byte	0
 2897 001d 00       		.byte	0
 2898 001e 03       		.uleb128 0x3
 2899 001f 24       		.uleb128 0x24
 2900 0020 00       		.byte	0
 2901 0021 0B       		.uleb128 0xb
 2902 0022 0B       		.uleb128 0xb
 2903 0023 3E       		.uleb128 0x3e
 2904 0024 0B       		.uleb128 0xb
 2905 0025 03       		.uleb128 0x3
 2906 0026 08       		.uleb128 0x8
 2907 0027 00       		.byte	0
 2908 0028 00       		.byte	0
 2909 0029 04       		.uleb128 0x4
 2910 002a 16       		.uleb128 0x16
 2911 002b 00       		.byte	0
 2912 002c 03       		.uleb128 0x3
 2913 002d 0E       		.uleb128 0xe
 2914 002e 3A       		.uleb128 0x3a
 2915 002f 0B       		.uleb128 0xb
 2916 0030 3B       		.uleb128 0x3b
ARM GAS  C:\Users\Administrator\AppData\Local\Temp\ccPYRpEO.s 			page 105


 2917 0031 05       		.uleb128 0x5
 2918 0032 49       		.uleb128 0x49
 2919 0033 13       		.uleb128 0x13
 2920 0034 00       		.byte	0
 2921 0035 00       		.byte	0
 2922 0036 05       		.uleb128 0x5
 2923 0037 35       		.uleb128 0x35
 2924 0038 00       		.byte	0
 2925 0039 49       		.uleb128 0x49
 2926 003a 13       		.uleb128 0x13
 2927 003b 00       		.byte	0
 2928 003c 00       		.byte	0
 2929 003d 06       		.uleb128 0x6
 2930 003e 0F       		.uleb128 0xf
 2931 003f 00       		.byte	0
 2932 0040 0B       		.uleb128 0xb
 2933 0041 0B       		.uleb128 0xb
 2934 0042 49       		.uleb128 0x49
 2935 0043 13       		.uleb128 0x13
 2936 0044 00       		.byte	0
 2937 0045 00       		.byte	0
 2938 0046 07       		.uleb128 0x7
 2939 0047 15       		.uleb128 0x15
 2940 0048 00       		.byte	0
 2941 0049 27       		.uleb128 0x27
 2942 004a 19       		.uleb128 0x19
 2943 004b 00       		.byte	0
 2944 004c 00       		.byte	0
 2945 004d 08       		.uleb128 0x8
 2946 004e 04       		.uleb128 0x4
 2947 004f 01       		.byte	0x1
 2948 0050 0B       		.uleb128 0xb
 2949 0051 0B       		.uleb128 0xb
 2950 0052 3A       		.uleb128 0x3a
 2951 0053 0B       		.uleb128 0xb
 2952 0054 3B       		.uleb128 0x3b
 2953 0055 0B       		.uleb128 0xb
 2954 0056 01       		.uleb128 0x1
 2955 0057 13       		.uleb128 0x13
 2956 0058 00       		.byte	0
 2957 0059 00       		.byte	0
 2958 005a 09       		.uleb128 0x9
 2959 005b 28       		.uleb128 0x28
 2960 005c 00       		.byte	0
 2961 005d 03       		.uleb128 0x3
 2962 005e 0E       		.uleb128 0xe
 2963 005f 1C       		.uleb128 0x1c
 2964 0060 0D       		.uleb128 0xd
 2965 0061 00       		.byte	0
 2966 0062 00       		.byte	0
 2967 0063 0A       		.uleb128 0xa
 2968 0064 13       		.uleb128 0x13
 2969 0065 01       		.byte	0x1
 2970 0066 0B       		.uleb128 0xb
 2971 0067 0B       		.uleb128 0xb
 2972 0068 3A       		.uleb128 0x3a
 2973 0069 0B       		.uleb128 0xb
ARM GAS  C:\Users\Administrator\AppData\Local\Temp\ccPYRpEO.s 			page 106


 2974 006a 3B       		.uleb128 0x3b
 2975 006b 0B       		.uleb128 0xb
 2976 006c 01       		.uleb128 0x1
 2977 006d 13       		.uleb128 0x13
 2978 006e 00       		.byte	0
 2979 006f 00       		.byte	0
 2980 0070 0B       		.uleb128 0xb
 2981 0071 0D       		.uleb128 0xd
 2982 0072 00       		.byte	0
 2983 0073 03       		.uleb128 0x3
 2984 0074 0E       		.uleb128 0xe
 2985 0075 3A       		.uleb128 0x3a
 2986 0076 0B       		.uleb128 0xb
 2987 0077 3B       		.uleb128 0x3b
 2988 0078 0B       		.uleb128 0xb
 2989 0079 49       		.uleb128 0x49
 2990 007a 13       		.uleb128 0x13
 2991 007b 38       		.uleb128 0x38
 2992 007c 0B       		.uleb128 0xb
 2993 007d 00       		.byte	0
 2994 007e 00       		.byte	0
 2995 007f 0C       		.uleb128 0xc
 2996 0080 01       		.uleb128 0x1
 2997 0081 01       		.byte	0x1
 2998 0082 49       		.uleb128 0x49
 2999 0083 13       		.uleb128 0x13
 3000 0084 01       		.uleb128 0x1
 3001 0085 13       		.uleb128 0x13
 3002 0086 00       		.byte	0
 3003 0087 00       		.byte	0
 3004 0088 0D       		.uleb128 0xd
 3005 0089 21       		.uleb128 0x21
 3006 008a 00       		.byte	0
 3007 008b 49       		.uleb128 0x49
 3008 008c 13       		.uleb128 0x13
 3009 008d 2F       		.uleb128 0x2f
 3010 008e 0B       		.uleb128 0xb
 3011 008f 00       		.byte	0
 3012 0090 00       		.byte	0
 3013 0091 0E       		.uleb128 0xe
 3014 0092 16       		.uleb128 0x16
 3015 0093 00       		.byte	0
 3016 0094 03       		.uleb128 0x3
 3017 0095 0E       		.uleb128 0xe
 3018 0096 3A       		.uleb128 0x3a
 3019 0097 0B       		.uleb128 0xb
 3020 0098 3B       		.uleb128 0x3b
 3021 0099 0B       		.uleb128 0xb
 3022 009a 49       		.uleb128 0x49
 3023 009b 13       		.uleb128 0x13
 3024 009c 00       		.byte	0
 3025 009d 00       		.byte	0
 3026 009e 0F       		.uleb128 0xf
 3027 009f 0D       		.uleb128 0xd
 3028 00a0 00       		.byte	0
 3029 00a1 03       		.uleb128 0x3
 3030 00a2 0E       		.uleb128 0xe
ARM GAS  C:\Users\Administrator\AppData\Local\Temp\ccPYRpEO.s 			page 107


 3031 00a3 3A       		.uleb128 0x3a
 3032 00a4 0B       		.uleb128 0xb
 3033 00a5 3B       		.uleb128 0x3b
 3034 00a6 05       		.uleb128 0x5
 3035 00a7 49       		.uleb128 0x49
 3036 00a8 13       		.uleb128 0x13
 3037 00a9 38       		.uleb128 0x38
 3038 00aa 0B       		.uleb128 0xb
 3039 00ab 00       		.byte	0
 3040 00ac 00       		.byte	0
 3041 00ad 10       		.uleb128 0x10
 3042 00ae 13       		.uleb128 0x13
 3043 00af 01       		.byte	0x1
 3044 00b0 0B       		.uleb128 0xb
 3045 00b1 0B       		.uleb128 0xb
 3046 00b2 3A       		.uleb128 0x3a
 3047 00b3 0B       		.uleb128 0xb
 3048 00b4 3B       		.uleb128 0x3b
 3049 00b5 05       		.uleb128 0x5
 3050 00b6 01       		.uleb128 0x1
 3051 00b7 13       		.uleb128 0x13
 3052 00b8 00       		.byte	0
 3053 00b9 00       		.byte	0
 3054 00ba 11       		.uleb128 0x11
 3055 00bb 0D       		.uleb128 0xd
 3056 00bc 00       		.byte	0
 3057 00bd 03       		.uleb128 0x3
 3058 00be 08       		.uleb128 0x8
 3059 00bf 3A       		.uleb128 0x3a
 3060 00c0 0B       		.uleb128 0xb
 3061 00c1 3B       		.uleb128 0x3b
 3062 00c2 05       		.uleb128 0x5
 3063 00c3 49       		.uleb128 0x49
 3064 00c4 13       		.uleb128 0x13
 3065 00c5 38       		.uleb128 0x38
 3066 00c6 0B       		.uleb128 0xb
 3067 00c7 00       		.byte	0
 3068 00c8 00       		.byte	0
 3069 00c9 12       		.uleb128 0x12
 3070 00ca 13       		.uleb128 0x13
 3071 00cb 01       		.byte	0x1
 3072 00cc 0B       		.uleb128 0xb
 3073 00cd 05       		.uleb128 0x5
 3074 00ce 3A       		.uleb128 0x3a
 3075 00cf 0B       		.uleb128 0xb
 3076 00d0 3B       		.uleb128 0x3b
 3077 00d1 05       		.uleb128 0x5
 3078 00d2 01       		.uleb128 0x1
 3079 00d3 13       		.uleb128 0x13
 3080 00d4 00       		.byte	0
 3081 00d5 00       		.byte	0
 3082 00d6 13       		.uleb128 0x13
 3083 00d7 0D       		.uleb128 0xd
 3084 00d8 00       		.byte	0
 3085 00d9 03       		.uleb128 0x3
 3086 00da 0E       		.uleb128 0xe
 3087 00db 3A       		.uleb128 0x3a
ARM GAS  C:\Users\Administrator\AppData\Local\Temp\ccPYRpEO.s 			page 108


 3088 00dc 0B       		.uleb128 0xb
 3089 00dd 3B       		.uleb128 0x3b
 3090 00de 05       		.uleb128 0x5
 3091 00df 49       		.uleb128 0x49
 3092 00e0 13       		.uleb128 0x13
 3093 00e1 38       		.uleb128 0x38
 3094 00e2 05       		.uleb128 0x5
 3095 00e3 00       		.byte	0
 3096 00e4 00       		.byte	0
 3097 00e5 14       		.uleb128 0x14
 3098 00e6 26       		.uleb128 0x26
 3099 00e7 00       		.byte	0
 3100 00e8 00       		.byte	0
 3101 00e9 00       		.byte	0
 3102 00ea 15       		.uleb128 0x15
 3103 00eb 0F       		.uleb128 0xf
 3104 00ec 00       		.byte	0
 3105 00ed 0B       		.uleb128 0xb
 3106 00ee 0B       		.uleb128 0xb
 3107 00ef 00       		.byte	0
 3108 00f0 00       		.byte	0
 3109 00f1 16       		.uleb128 0x16
 3110 00f2 2E       		.uleb128 0x2e
 3111 00f3 00       		.byte	0
 3112 00f4 3F       		.uleb128 0x3f
 3113 00f5 19       		.uleb128 0x19
 3114 00f6 03       		.uleb128 0x3
 3115 00f7 0E       		.uleb128 0xe
 3116 00f8 3A       		.uleb128 0x3a
 3117 00f9 0B       		.uleb128 0xb
 3118 00fa 3B       		.uleb128 0x3b
 3119 00fb 05       		.uleb128 0x5
 3120 00fc 27       		.uleb128 0x27
 3121 00fd 19       		.uleb128 0x19
 3122 00fe 49       		.uleb128 0x49
 3123 00ff 13       		.uleb128 0x13
 3124 0100 11       		.uleb128 0x11
 3125 0101 01       		.uleb128 0x1
 3126 0102 12       		.uleb128 0x12
 3127 0103 06       		.uleb128 0x6
 3128 0104 40       		.uleb128 0x40
 3129 0105 18       		.uleb128 0x18
 3130 0106 9742     		.uleb128 0x2117
 3131 0108 19       		.uleb128 0x19
 3132 0109 00       		.byte	0
 3133 010a 00       		.byte	0
 3134 010b 17       		.uleb128 0x17
 3135 010c 2E       		.uleb128 0x2e
 3136 010d 01       		.byte	0x1
 3137 010e 3F       		.uleb128 0x3f
 3138 010f 19       		.uleb128 0x19
 3139 0110 03       		.uleb128 0x3
 3140 0111 0E       		.uleb128 0xe
 3141 0112 3A       		.uleb128 0x3a
 3142 0113 0B       		.uleb128 0xb
 3143 0114 3B       		.uleb128 0x3b
 3144 0115 05       		.uleb128 0x5
ARM GAS  C:\Users\Administrator\AppData\Local\Temp\ccPYRpEO.s 			page 109


 3145 0116 27       		.uleb128 0x27
 3146 0117 19       		.uleb128 0x19
 3147 0118 49       		.uleb128 0x49
 3148 0119 13       		.uleb128 0x13
 3149 011a 11       		.uleb128 0x11
 3150 011b 01       		.uleb128 0x1
 3151 011c 12       		.uleb128 0x12
 3152 011d 06       		.uleb128 0x6
 3153 011e 40       		.uleb128 0x40
 3154 011f 18       		.uleb128 0x18
 3155 0120 9742     		.uleb128 0x2117
 3156 0122 19       		.uleb128 0x19
 3157 0123 01       		.uleb128 0x1
 3158 0124 13       		.uleb128 0x13
 3159 0125 00       		.byte	0
 3160 0126 00       		.byte	0
 3161 0127 18       		.uleb128 0x18
 3162 0128 05       		.uleb128 0x5
 3163 0129 00       		.byte	0
 3164 012a 03       		.uleb128 0x3
 3165 012b 0E       		.uleb128 0xe
 3166 012c 3A       		.uleb128 0x3a
 3167 012d 0B       		.uleb128 0xb
 3168 012e 3B       		.uleb128 0x3b
 3169 012f 05       		.uleb128 0x5
 3170 0130 49       		.uleb128 0x49
 3171 0131 13       		.uleb128 0x13
 3172 0132 02       		.uleb128 0x2
 3173 0133 17       		.uleb128 0x17
 3174 0134 00       		.byte	0
 3175 0135 00       		.byte	0
 3176 0136 19       		.uleb128 0x19
 3177 0137 34       		.uleb128 0x34
 3178 0138 00       		.byte	0
 3179 0139 03       		.uleb128 0x3
 3180 013a 0E       		.uleb128 0xe
 3181 013b 3A       		.uleb128 0x3a
 3182 013c 0B       		.uleb128 0xb
 3183 013d 3B       		.uleb128 0x3b
 3184 013e 05       		.uleb128 0x5
 3185 013f 49       		.uleb128 0x49
 3186 0140 13       		.uleb128 0x13
 3187 0141 02       		.uleb128 0x2
 3188 0142 17       		.uleb128 0x17
 3189 0143 00       		.byte	0
 3190 0144 00       		.byte	0
 3191 0145 1A       		.uleb128 0x1a
 3192 0146 898201   		.uleb128 0x4109
 3193 0149 00       		.byte	0
 3194 014a 11       		.uleb128 0x11
 3195 014b 01       		.uleb128 0x1
 3196 014c 31       		.uleb128 0x31
 3197 014d 13       		.uleb128 0x13
 3198 014e 00       		.byte	0
 3199 014f 00       		.byte	0
 3200 0150 1B       		.uleb128 0x1b
 3201 0151 898201   		.uleb128 0x4109
ARM GAS  C:\Users\Administrator\AppData\Local\Temp\ccPYRpEO.s 			page 110


 3202 0154 01       		.byte	0x1
 3203 0155 11       		.uleb128 0x11
 3204 0156 01       		.uleb128 0x1
 3205 0157 31       		.uleb128 0x31
 3206 0158 13       		.uleb128 0x13
 3207 0159 01       		.uleb128 0x1
 3208 015a 13       		.uleb128 0x13
 3209 015b 00       		.byte	0
 3210 015c 00       		.byte	0
 3211 015d 1C       		.uleb128 0x1c
 3212 015e 8A8201   		.uleb128 0x410a
 3213 0161 00       		.byte	0
 3214 0162 02       		.uleb128 0x2
 3215 0163 18       		.uleb128 0x18
 3216 0164 9142     		.uleb128 0x2111
 3217 0166 18       		.uleb128 0x18
 3218 0167 00       		.byte	0
 3219 0168 00       		.byte	0
 3220 0169 1D       		.uleb128 0x1d
 3221 016a 2E       		.uleb128 0x2e
 3222 016b 01       		.byte	0x1
 3223 016c 3F       		.uleb128 0x3f
 3224 016d 19       		.uleb128 0x19
 3225 016e 03       		.uleb128 0x3
 3226 016f 0E       		.uleb128 0xe
 3227 0170 3A       		.uleb128 0x3a
 3228 0171 0B       		.uleb128 0xb
 3229 0172 3B       		.uleb128 0x3b
 3230 0173 05       		.uleb128 0x5
 3231 0174 27       		.uleb128 0x27
 3232 0175 19       		.uleb128 0x19
 3233 0176 11       		.uleb128 0x11
 3234 0177 01       		.uleb128 0x1
 3235 0178 12       		.uleb128 0x12
 3236 0179 06       		.uleb128 0x6
 3237 017a 40       		.uleb128 0x40
 3238 017b 18       		.uleb128 0x18
 3239 017c 9742     		.uleb128 0x2117
 3240 017e 19       		.uleb128 0x19
 3241 017f 01       		.uleb128 0x1
 3242 0180 13       		.uleb128 0x13
 3243 0181 00       		.byte	0
 3244 0182 00       		.byte	0
 3245 0183 1E       		.uleb128 0x1e
 3246 0184 898201   		.uleb128 0x4109
 3247 0187 01       		.byte	0x1
 3248 0188 11       		.uleb128 0x11
 3249 0189 01       		.uleb128 0x1
 3250 018a 31       		.uleb128 0x31
 3251 018b 13       		.uleb128 0x13
 3252 018c 00       		.byte	0
 3253 018d 00       		.byte	0
 3254 018e 1F       		.uleb128 0x1f
 3255 018f 26       		.uleb128 0x26
 3256 0190 00       		.byte	0
 3257 0191 49       		.uleb128 0x49
 3258 0192 13       		.uleb128 0x13
ARM GAS  C:\Users\Administrator\AppData\Local\Temp\ccPYRpEO.s 			page 111


 3259 0193 00       		.byte	0
 3260 0194 00       		.byte	0
 3261 0195 20       		.uleb128 0x20
 3262 0196 34       		.uleb128 0x34
 3263 0197 00       		.byte	0
 3264 0198 03       		.uleb128 0x3
 3265 0199 0E       		.uleb128 0xe
 3266 019a 3A       		.uleb128 0x3a
 3267 019b 0B       		.uleb128 0xb
 3268 019c 3B       		.uleb128 0x3b
 3269 019d 05       		.uleb128 0x5
 3270 019e 49       		.uleb128 0x49
 3271 019f 13       		.uleb128 0x13
 3272 01a0 02       		.uleb128 0x2
 3273 01a1 18       		.uleb128 0x18
 3274 01a2 00       		.byte	0
 3275 01a3 00       		.byte	0
 3276 01a4 21       		.uleb128 0x21
 3277 01a5 34       		.uleb128 0x34
 3278 01a6 00       		.byte	0
 3279 01a7 03       		.uleb128 0x3
 3280 01a8 0E       		.uleb128 0xe
 3281 01a9 3A       		.uleb128 0x3a
 3282 01aa 0B       		.uleb128 0xb
 3283 01ab 3B       		.uleb128 0x3b
 3284 01ac 05       		.uleb128 0x5
 3285 01ad 49       		.uleb128 0x49
 3286 01ae 13       		.uleb128 0x13
 3287 01af 1C       		.uleb128 0x1c
 3288 01b0 0B       		.uleb128 0xb
 3289 01b1 00       		.byte	0
 3290 01b2 00       		.byte	0
 3291 01b3 22       		.uleb128 0x22
 3292 01b4 2E       		.uleb128 0x2e
 3293 01b5 01       		.byte	0x1
 3294 01b6 03       		.uleb128 0x3
 3295 01b7 0E       		.uleb128 0xe
 3296 01b8 3A       		.uleb128 0x3a
 3297 01b9 0B       		.uleb128 0xb
 3298 01ba 3B       		.uleb128 0x3b
 3299 01bb 05       		.uleb128 0x5
 3300 01bc 27       		.uleb128 0x27
 3301 01bd 19       		.uleb128 0x19
 3302 01be 49       		.uleb128 0x49
 3303 01bf 13       		.uleb128 0x13
 3304 01c0 20       		.uleb128 0x20
 3305 01c1 0B       		.uleb128 0xb
 3306 01c2 01       		.uleb128 0x1
 3307 01c3 13       		.uleb128 0x13
 3308 01c4 00       		.byte	0
 3309 01c5 00       		.byte	0
 3310 01c6 23       		.uleb128 0x23
 3311 01c7 05       		.uleb128 0x5
 3312 01c8 00       		.byte	0
 3313 01c9 03       		.uleb128 0x3
 3314 01ca 0E       		.uleb128 0xe
 3315 01cb 3A       		.uleb128 0x3a
ARM GAS  C:\Users\Administrator\AppData\Local\Temp\ccPYRpEO.s 			page 112


 3316 01cc 0B       		.uleb128 0xb
 3317 01cd 3B       		.uleb128 0x3b
 3318 01ce 05       		.uleb128 0x5
 3319 01cf 49       		.uleb128 0x49
 3320 01d0 13       		.uleb128 0x13
 3321 01d1 00       		.byte	0
 3322 01d2 00       		.byte	0
 3323 01d3 24       		.uleb128 0x24
 3324 01d4 34       		.uleb128 0x34
 3325 01d5 00       		.byte	0
 3326 01d6 03       		.uleb128 0x3
 3327 01d7 0E       		.uleb128 0xe
 3328 01d8 3A       		.uleb128 0x3a
 3329 01d9 0B       		.uleb128 0xb
 3330 01da 3B       		.uleb128 0x3b
 3331 01db 05       		.uleb128 0x5
 3332 01dc 49       		.uleb128 0x49
 3333 01dd 13       		.uleb128 0x13
 3334 01de 00       		.byte	0
 3335 01df 00       		.byte	0
 3336 01e0 25       		.uleb128 0x25
 3337 01e1 2E       		.uleb128 0x2e
 3338 01e2 01       		.byte	0x1
 3339 01e3 03       		.uleb128 0x3
 3340 01e4 0E       		.uleb128 0xe
 3341 01e5 3A       		.uleb128 0x3a
 3342 01e6 0B       		.uleb128 0xb
 3343 01e7 3B       		.uleb128 0x3b
 3344 01e8 05       		.uleb128 0x5
 3345 01e9 27       		.uleb128 0x27
 3346 01ea 19       		.uleb128 0x19
 3347 01eb 11       		.uleb128 0x11
 3348 01ec 01       		.uleb128 0x1
 3349 01ed 12       		.uleb128 0x12
 3350 01ee 06       		.uleb128 0x6
 3351 01ef 40       		.uleb128 0x40
 3352 01f0 18       		.uleb128 0x18
 3353 01f1 9642     		.uleb128 0x2116
 3354 01f3 19       		.uleb128 0x19
 3355 01f4 01       		.uleb128 0x1
 3356 01f5 13       		.uleb128 0x13
 3357 01f6 00       		.byte	0
 3358 01f7 00       		.byte	0
 3359 01f8 26       		.uleb128 0x26
 3360 01f9 1D       		.uleb128 0x1d
 3361 01fa 01       		.byte	0x1
 3362 01fb 31       		.uleb128 0x31
 3363 01fc 13       		.uleb128 0x13
 3364 01fd 11       		.uleb128 0x11
 3365 01fe 01       		.uleb128 0x1
 3366 01ff 12       		.uleb128 0x12
 3367 0200 06       		.uleb128 0x6
 3368 0201 58       		.uleb128 0x58
 3369 0202 0B       		.uleb128 0xb
 3370 0203 59       		.uleb128 0x59
 3371 0204 05       		.uleb128 0x5
 3372 0205 01       		.uleb128 0x1
ARM GAS  C:\Users\Administrator\AppData\Local\Temp\ccPYRpEO.s 			page 113


 3373 0206 13       		.uleb128 0x13
 3374 0207 00       		.byte	0
 3375 0208 00       		.byte	0
 3376 0209 27       		.uleb128 0x27
 3377 020a 05       		.uleb128 0x5
 3378 020b 00       		.byte	0
 3379 020c 31       		.uleb128 0x31
 3380 020d 13       		.uleb128 0x13
 3381 020e 02       		.uleb128 0x2
 3382 020f 17       		.uleb128 0x17
 3383 0210 00       		.byte	0
 3384 0211 00       		.byte	0
 3385 0212 28       		.uleb128 0x28
 3386 0213 0B       		.uleb128 0xb
 3387 0214 01       		.byte	0x1
 3388 0215 11       		.uleb128 0x11
 3389 0216 01       		.uleb128 0x1
 3390 0217 12       		.uleb128 0x12
 3391 0218 06       		.uleb128 0x6
 3392 0219 00       		.byte	0
 3393 021a 00       		.byte	0
 3394 021b 29       		.uleb128 0x29
 3395 021c 34       		.uleb128 0x34
 3396 021d 00       		.byte	0
 3397 021e 31       		.uleb128 0x31
 3398 021f 13       		.uleb128 0x13
 3399 0220 02       		.uleb128 0x2
 3400 0221 17       		.uleb128 0x17
 3401 0222 00       		.byte	0
 3402 0223 00       		.byte	0
 3403 0224 2A       		.uleb128 0x2a
 3404 0225 34       		.uleb128 0x34
 3405 0226 00       		.byte	0
 3406 0227 03       		.uleb128 0x3
 3407 0228 0E       		.uleb128 0xe
 3408 0229 3A       		.uleb128 0x3a
 3409 022a 0B       		.uleb128 0xb
 3410 022b 3B       		.uleb128 0x3b
 3411 022c 05       		.uleb128 0x5
 3412 022d 49       		.uleb128 0x49
 3413 022e 13       		.uleb128 0x13
 3414 022f 3F       		.uleb128 0x3f
 3415 0230 19       		.uleb128 0x19
 3416 0231 3C       		.uleb128 0x3c
 3417 0232 19       		.uleb128 0x19
 3418 0233 00       		.byte	0
 3419 0234 00       		.byte	0
 3420 0235 2B       		.uleb128 0x2b
 3421 0236 34       		.uleb128 0x34
 3422 0237 00       		.byte	0
 3423 0238 03       		.uleb128 0x3
 3424 0239 0E       		.uleb128 0xe
 3425 023a 3A       		.uleb128 0x3a
 3426 023b 0B       		.uleb128 0xb
 3427 023c 3B       		.uleb128 0x3b
 3428 023d 0B       		.uleb128 0xb
 3429 023e 49       		.uleb128 0x49
ARM GAS  C:\Users\Administrator\AppData\Local\Temp\ccPYRpEO.s 			page 114


 3430 023f 13       		.uleb128 0x13
 3431 0240 3F       		.uleb128 0x3f
 3432 0241 19       		.uleb128 0x19
 3433 0242 02       		.uleb128 0x2
 3434 0243 18       		.uleb128 0x18
 3435 0244 00       		.byte	0
 3436 0245 00       		.byte	0
 3437 0246 2C       		.uleb128 0x2c
 3438 0247 34       		.uleb128 0x34
 3439 0248 00       		.byte	0
 3440 0249 03       		.uleb128 0x3
 3441 024a 0E       		.uleb128 0xe
 3442 024b 3A       		.uleb128 0x3a
 3443 024c 0B       		.uleb128 0xb
 3444 024d 3B       		.uleb128 0x3b
 3445 024e 05       		.uleb128 0x5
 3446 024f 49       		.uleb128 0x49
 3447 0250 13       		.uleb128 0x13
 3448 0251 3F       		.uleb128 0x3f
 3449 0252 19       		.uleb128 0x19
 3450 0253 02       		.uleb128 0x2
 3451 0254 18       		.uleb128 0x18
 3452 0255 00       		.byte	0
 3453 0256 00       		.byte	0
 3454 0257 2D       		.uleb128 0x2d
 3455 0258 2E       		.uleb128 0x2e
 3456 0259 01       		.byte	0x1
 3457 025a 3F       		.uleb128 0x3f
 3458 025b 19       		.uleb128 0x19
 3459 025c 03       		.uleb128 0x3
 3460 025d 0E       		.uleb128 0xe
 3461 025e 3A       		.uleb128 0x3a
 3462 025f 0B       		.uleb128 0xb
 3463 0260 3B       		.uleb128 0x3b
 3464 0261 0B       		.uleb128 0xb
 3465 0262 27       		.uleb128 0x27
 3466 0263 19       		.uleb128 0x19
 3467 0264 3C       		.uleb128 0x3c
 3468 0265 19       		.uleb128 0x19
 3469 0266 01       		.uleb128 0x1
 3470 0267 13       		.uleb128 0x13
 3471 0268 00       		.byte	0
 3472 0269 00       		.byte	0
 3473 026a 2E       		.uleb128 0x2e
 3474 026b 05       		.uleb128 0x5
 3475 026c 00       		.byte	0
 3476 026d 49       		.uleb128 0x49
 3477 026e 13       		.uleb128 0x13
 3478 026f 00       		.byte	0
 3479 0270 00       		.byte	0
 3480 0271 2F       		.uleb128 0x2f
 3481 0272 2E       		.uleb128 0x2e
 3482 0273 00       		.byte	0
 3483 0274 3F       		.uleb128 0x3f
 3484 0275 19       		.uleb128 0x19
 3485 0276 03       		.uleb128 0x3
 3486 0277 0E       		.uleb128 0xe
ARM GAS  C:\Users\Administrator\AppData\Local\Temp\ccPYRpEO.s 			page 115


 3487 0278 3A       		.uleb128 0x3a
 3488 0279 0B       		.uleb128 0xb
 3489 027a 3B       		.uleb128 0x3b
 3490 027b 0B       		.uleb128 0xb
 3491 027c 27       		.uleb128 0x27
 3492 027d 19       		.uleb128 0x19
 3493 027e 3C       		.uleb128 0x3c
 3494 027f 19       		.uleb128 0x19
 3495 0280 00       		.byte	0
 3496 0281 00       		.byte	0
 3497 0282 30       		.uleb128 0x30
 3498 0283 2E       		.uleb128 0x2e
 3499 0284 00       		.byte	0
 3500 0285 3F       		.uleb128 0x3f
 3501 0286 19       		.uleb128 0x19
 3502 0287 03       		.uleb128 0x3
 3503 0288 0E       		.uleb128 0xe
 3504 0289 3A       		.uleb128 0x3a
 3505 028a 0B       		.uleb128 0xb
 3506 028b 3B       		.uleb128 0x3b
 3507 028c 0B       		.uleb128 0xb
 3508 028d 27       		.uleb128 0x27
 3509 028e 19       		.uleb128 0x19
 3510 028f 49       		.uleb128 0x49
 3511 0290 13       		.uleb128 0x13
 3512 0291 3C       		.uleb128 0x3c
 3513 0292 19       		.uleb128 0x19
 3514 0293 00       		.byte	0
 3515 0294 00       		.byte	0
 3516 0295 31       		.uleb128 0x31
 3517 0296 2E       		.uleb128 0x2e
 3518 0297 01       		.byte	0x1
 3519 0298 3F       		.uleb128 0x3f
 3520 0299 19       		.uleb128 0x19
 3521 029a 03       		.uleb128 0x3
 3522 029b 0E       		.uleb128 0xe
 3523 029c 3A       		.uleb128 0x3a
 3524 029d 0B       		.uleb128 0xb
 3525 029e 3B       		.uleb128 0x3b
 3526 029f 0B       		.uleb128 0xb
 3527 02a0 27       		.uleb128 0x27
 3528 02a1 19       		.uleb128 0x19
 3529 02a2 49       		.uleb128 0x49
 3530 02a3 13       		.uleb128 0x13
 3531 02a4 3C       		.uleb128 0x3c
 3532 02a5 19       		.uleb128 0x19
 3533 02a6 01       		.uleb128 0x1
 3534 02a7 13       		.uleb128 0x13
 3535 02a8 00       		.byte	0
 3536 02a9 00       		.byte	0
 3537 02aa 00       		.byte	0
 3538              		.section	.debug_loc,"",%progbits
 3539              	.Ldebug_loc0:
 3540              	.LLST0:
 3541 0000 00000000 		.4byte	.LVL0
 3542 0004 3B000000 		.4byte	.LVL2-1
 3543 0008 0100     		.2byte	0x1
ARM GAS  C:\Users\Administrator\AppData\Local\Temp\ccPYRpEO.s 			page 116


 3544 000a 50       		.byte	0x50
 3545 000b 3B000000 		.4byte	.LVL2-1
 3546 000f 44000000 		.4byte	.LFE2
 3547 0013 0400     		.2byte	0x4
 3548 0015 F3       		.byte	0xf3
 3549 0016 01       		.uleb128 0x1
 3550 0017 50       		.byte	0x50
 3551 0018 9F       		.byte	0x9f
 3552 0019 00000000 		.4byte	0
 3553 001d 00000000 		.4byte	0
 3554              	.LLST1:
 3555 0021 34000000 		.4byte	.LVL1
 3556 0025 3E000000 		.4byte	.LVL3
 3557 0029 0100     		.2byte	0x1
 3558 002b 54       		.byte	0x54
 3559 002c 3E000000 		.4byte	.LVL3
 3560 0030 44000000 		.4byte	.LFE2
 3561 0034 0100     		.2byte	0x1
 3562 0036 50       		.byte	0x50
 3563 0037 00000000 		.4byte	0
 3564 003b 00000000 		.4byte	0
 3565              	.LLST2:
 3566 003f 02000000 		.4byte	.LVL4
 3567 0043 14000000 		.4byte	.LVL6
 3568 0047 0200     		.2byte	0x2
 3569 0049 30       		.byte	0x30
 3570 004a 9F       		.byte	0x9f
 3571 004b 14000000 		.4byte	.LVL6
 3572 004f 1C000000 		.4byte	.LFE3
 3573 0053 0100     		.2byte	0x1
 3574 0055 50       		.byte	0x50
 3575 0056 00000000 		.4byte	0
 3576 005a 00000000 		.4byte	0
 3577              	.LLST3:
 3578 005e 02000000 		.4byte	.LVL7
 3579 0062 12000000 		.4byte	.LVL8
 3580 0066 0300     		.2byte	0x3
 3581 0068 09       		.byte	0x9
 3582 0069 FF       		.byte	0xff
 3583 006a 9F       		.byte	0x9f
 3584 006b 12000000 		.4byte	.LVL8
 3585 006f 14000000 		.4byte	.LVL9
 3586 0073 0100     		.2byte	0x1
 3587 0075 50       		.byte	0x50
 3588 0076 18000000 		.4byte	.LVL10
 3589 007a 31000000 		.4byte	.LVL11-1
 3590 007e 0100     		.2byte	0x1
 3591 0080 50       		.byte	0x50
 3592 0081 32000000 		.4byte	.LVL11
 3593 0085 3C000000 		.4byte	.LVL13
 3594 0089 0100     		.2byte	0x1
 3595 008b 50       		.byte	0x50
 3596 008c 3C000000 		.4byte	.LVL13
 3597 0090 3E000000 		.4byte	.LVL14
 3598 0094 0300     		.2byte	0x3
 3599 0096 09       		.byte	0x9
 3600 0097 FF       		.byte	0xff
ARM GAS  C:\Users\Administrator\AppData\Local\Temp\ccPYRpEO.s 			page 117


 3601 0098 9F       		.byte	0x9f
 3602 0099 3E000000 		.4byte	.LVL14
 3603 009d 48000000 		.4byte	.LFE4
 3604 00a1 0100     		.2byte	0x1
 3605 00a3 50       		.byte	0x50
 3606 00a4 00000000 		.4byte	0
 3607 00a8 00000000 		.4byte	0
 3608              	.LLST4:
 3609 00ac 12000000 		.4byte	.LVL8
 3610 00b0 3C000000 		.4byte	.LVL13
 3611 00b4 0100     		.2byte	0x1
 3612 00b6 54       		.byte	0x54
 3613 00b7 00000000 		.4byte	0
 3614 00bb 00000000 		.4byte	0
 3615              	.LLST5:
 3616 00bf 00000000 		.4byte	.LVL15
 3617 00c3 06000000 		.4byte	.LVL16
 3618 00c7 0100     		.2byte	0x1
 3619 00c9 50       		.byte	0x50
 3620 00ca 06000000 		.4byte	.LVL16
 3621 00ce 90000000 		.4byte	.LFE6
 3622 00d2 0400     		.2byte	0x4
 3623 00d4 F3       		.byte	0xf3
 3624 00d5 01       		.uleb128 0x1
 3625 00d6 50       		.byte	0x50
 3626 00d7 9F       		.byte	0x9f
 3627 00d8 00000000 		.4byte	0
 3628 00dc 00000000 		.4byte	0
 3629              	.LLST6:
 3630 00e0 00000000 		.4byte	.LVL15
 3631 00e4 10000000 		.4byte	.LVL17
 3632 00e8 0100     		.2byte	0x1
 3633 00ea 51       		.byte	0x51
 3634 00eb 10000000 		.4byte	.LVL17
 3635 00ef 90000000 		.4byte	.LFE6
 3636 00f3 0400     		.2byte	0x4
 3637 00f5 F3       		.byte	0xf3
 3638 00f6 01       		.uleb128 0x1
 3639 00f7 51       		.byte	0x51
 3640 00f8 9F       		.byte	0x9f
 3641 00f9 00000000 		.4byte	0
 3642 00fd 00000000 		.4byte	0
 3643              	.LLST7:
 3644 0101 00000000 		.4byte	.LVL15
 3645 0105 35000000 		.4byte	.LVL21-1
 3646 0109 0100     		.2byte	0x1
 3647 010b 52       		.byte	0x52
 3648 010c 35000000 		.4byte	.LVL21-1
 3649 0110 5E000000 		.4byte	.LVL27
 3650 0114 0400     		.2byte	0x4
 3651 0116 F3       		.byte	0xf3
 3652 0117 01       		.uleb128 0x1
 3653 0118 52       		.byte	0x52
 3654 0119 9F       		.byte	0x9f
 3655 011a 5E000000 		.4byte	.LVL27
 3656 011e 61000000 		.4byte	.LVL28-1
 3657 0122 0100     		.2byte	0x1
ARM GAS  C:\Users\Administrator\AppData\Local\Temp\ccPYRpEO.s 			page 118


 3658 0124 52       		.byte	0x52
 3659 0125 61000000 		.4byte	.LVL28-1
 3660 0129 82000000 		.4byte	.LVL32
 3661 012d 0400     		.2byte	0x4
 3662 012f F3       		.byte	0xf3
 3663 0130 01       		.uleb128 0x1
 3664 0131 52       		.byte	0x52
 3665 0132 9F       		.byte	0x9f
 3666 0133 82000000 		.4byte	.LVL32
 3667 0137 87000000 		.4byte	.LVL33-1
 3668 013b 0100     		.2byte	0x1
 3669 013d 52       		.byte	0x52
 3670 013e 87000000 		.4byte	.LVL33-1
 3671 0142 90000000 		.4byte	.LFE6
 3672 0146 0400     		.2byte	0x4
 3673 0148 F3       		.byte	0xf3
 3674 0149 01       		.uleb128 0x1
 3675 014a 52       		.byte	0x52
 3676 014b 9F       		.byte	0x9f
 3677 014c 00000000 		.4byte	0
 3678 0150 00000000 		.4byte	0
 3679              	.LLST8:
 3680 0154 14000000 		.4byte	.LVL18
 3681 0158 88000000 		.4byte	.LVL34
 3682 015c 0100     		.2byte	0x1
 3683 015e 54       		.byte	0x54
 3684 015f 00000000 		.4byte	0
 3685 0163 00000000 		.4byte	0
 3686              	.LLST9:
 3687 0167 3A000000 		.4byte	.LVL22
 3688 016b 48000000 		.4byte	.LVL25
 3689 016f 0100     		.2byte	0x1
 3690 0171 53       		.byte	0x53
 3691 0172 48000000 		.4byte	.LVL25
 3692 0176 5E000000 		.4byte	.LVL27
 3693 017a 0100     		.2byte	0x1
 3694 017c 55       		.byte	0x55
 3695 017d 66000000 		.4byte	.LVL29
 3696 0181 71000000 		.4byte	.LVL31-1
 3697 0185 0100     		.2byte	0x1
 3698 0187 53       		.byte	0x53
 3699 0188 00000000 		.4byte	0
 3700 018c 00000000 		.4byte	0
 3701              	.LLST10:
 3702 0190 36000000 		.4byte	.LVL21
 3703 0194 4D000000 		.4byte	.LVL26-1
 3704 0198 0100     		.2byte	0x1
 3705 019a 50       		.byte	0x50
 3706 019b 62000000 		.4byte	.LVL28
 3707 019f 71000000 		.4byte	.LVL31-1
 3708 01a3 0100     		.2byte	0x1
 3709 01a5 50       		.byte	0x50
 3710 01a6 00000000 		.4byte	0
 3711 01aa 00000000 		.4byte	0
 3712              	.LLST11:
 3713 01ae 16000000 		.4byte	.LVL19
 3714 01b2 88000000 		.4byte	.LVL35
ARM GAS  C:\Users\Administrator\AppData\Local\Temp\ccPYRpEO.s 			page 119


 3715 01b6 0600     		.2byte	0x6
 3716 01b8 76       		.byte	0x76
 3717 01b9 00       		.sleb128 0
 3718 01ba 08       		.byte	0x8
 3719 01bb FF       		.byte	0xff
 3720 01bc 1A       		.byte	0x1a
 3721 01bd 9F       		.byte	0x9f
 3722 01be 00000000 		.4byte	0
 3723 01c2 00000000 		.4byte	0
 3724              	.LLST12:
 3725 01c6 18000000 		.4byte	.LVL20
 3726 01ca 46000000 		.4byte	.LVL24
 3727 01ce 0600     		.2byte	0x6
 3728 01d0 75       		.byte	0x75
 3729 01d1 00       		.sleb128 0
 3730 01d2 08       		.byte	0x8
 3731 01d3 FF       		.byte	0xff
 3732 01d4 1A       		.byte	0x1a
 3733 01d5 9F       		.byte	0x9f
 3734 01d6 5E000000 		.4byte	.LVL27
 3735 01da 88000000 		.4byte	.LVL33
 3736 01de 0600     		.2byte	0x6
 3737 01e0 75       		.byte	0x75
 3738 01e1 00       		.sleb128 0
 3739 01e2 08       		.byte	0x8
 3740 01e3 FF       		.byte	0xff
 3741 01e4 1A       		.byte	0x1a
 3742 01e5 9F       		.byte	0x9f
 3743 01e6 00000000 		.4byte	0
 3744 01ea 00000000 		.4byte	0
 3745              	.LLST13:
 3746 01ee 16000000 		.4byte	.LVL37
 3747 01f2 29000000 		.4byte	.LVL38-1
 3748 01f6 0100     		.2byte	0x1
 3749 01f8 50       		.byte	0x50
 3750 01f9 29000000 		.4byte	.LVL38-1
 3751 01fd 2C000000 		.4byte	.LVL39
 3752 0201 0100     		.2byte	0x1
 3753 0203 54       		.byte	0x54
 3754 0204 2C000000 		.4byte	.LVL39
 3755 0208 46000000 		.4byte	.LVL40
 3756 020c 0100     		.2byte	0x1
 3757 020e 50       		.byte	0x50
 3758 020f 46000000 		.4byte	.LVL40
 3759 0213 4A000000 		.4byte	.LVL41
 3760 0217 0200     		.2byte	0x2
 3761 0219 30       		.byte	0x30
 3762 021a 9F       		.byte	0x9f
 3763 021b 4A000000 		.4byte	.LVL41
 3764 021f 58000000 		.4byte	.LVL42
 3765 0223 0100     		.2byte	0x1
 3766 0225 50       		.byte	0x50
 3767 0226 58000000 		.4byte	.LVL42
 3768 022a 5C000000 		.4byte	.LVL43
 3769 022e 0100     		.2byte	0x1
 3770 0230 54       		.byte	0x54
 3771 0231 00000000 		.4byte	0
ARM GAS  C:\Users\Administrator\AppData\Local\Temp\ccPYRpEO.s 			page 120


 3772 0235 00000000 		.4byte	0
 3773              	.LLST14:
 3774 0239 00000000 		.4byte	.LVL44
 3775 023d 05000000 		.4byte	.LVL45-1
 3776 0241 0100     		.2byte	0x1
 3777 0243 50       		.byte	0x50
 3778 0244 05000000 		.4byte	.LVL45-1
 3779 0248 08000000 		.4byte	.LFE8
 3780 024c 0400     		.2byte	0x4
 3781 024e F3       		.byte	0xf3
 3782 024f 01       		.uleb128 0x1
 3783 0250 50       		.byte	0x50
 3784 0251 9F       		.byte	0x9f
 3785 0252 00000000 		.4byte	0
 3786 0256 00000000 		.4byte	0
 3787              	.LLST15:
 3788 025a 00000000 		.4byte	.LVL46
 3789 025e 08000000 		.4byte	.LVL47
 3790 0262 0100     		.2byte	0x1
 3791 0264 50       		.byte	0x50
 3792 0265 08000000 		.4byte	.LVL47
 3793 0269 0A000000 		.4byte	.LVL48
 3794 026d 0300     		.2byte	0x3
 3795 026f 70       		.byte	0x70
 3796 0270 01       		.sleb128 1
 3797 0271 9F       		.byte	0x9f
 3798 0272 0A000000 		.4byte	.LVL48
 3799 0276 30000000 		.4byte	.LFE9
 3800 027a 0400     		.2byte	0x4
 3801 027c F3       		.byte	0xf3
 3802 027d 01       		.uleb128 0x1
 3803 027e 50       		.byte	0x50
 3804 027f 9F       		.byte	0x9f
 3805 0280 00000000 		.4byte	0
 3806 0284 00000000 		.4byte	0
 3807              	.LLST16:
 3808 0288 00000000 		.4byte	.LVL49
 3809 028c 0A000000 		.4byte	.LVL53
 3810 0290 0100     		.2byte	0x1
 3811 0292 50       		.byte	0x50
 3812 0293 0A000000 		.4byte	.LVL53
 3813 0297 0C000000 		.4byte	.LVL54
 3814 029b 0300     		.2byte	0x3
 3815 029d 70       		.byte	0x70
 3816 029e 01       		.sleb128 1
 3817 029f 9F       		.byte	0x9f
 3818 02a0 0C000000 		.4byte	.LVL54
 3819 02a4 14000000 		.4byte	.LFE10
 3820 02a8 0400     		.2byte	0x4
 3821 02aa F3       		.byte	0xf3
 3822 02ab 01       		.uleb128 0x1
 3823 02ac 50       		.byte	0x50
 3824 02ad 9F       		.byte	0x9f
 3825 02ae 00000000 		.4byte	0
 3826 02b2 00000000 		.4byte	0
 3827              	.LLST17:
 3828 02b6 04000000 		.4byte	.LVL50
ARM GAS  C:\Users\Administrator\AppData\Local\Temp\ccPYRpEO.s 			page 121


 3829 02ba 06000000 		.4byte	.LVL51
 3830 02be 0100     		.2byte	0x1
 3831 02c0 53       		.byte	0x53
 3832 02c1 08000000 		.4byte	.LVL52
 3833 02c5 0C000000 		.4byte	.LVL54
 3834 02c9 0100     		.2byte	0x1
 3835 02cb 53       		.byte	0x53
 3836 02cc 0C000000 		.4byte	.LVL54
 3837 02d0 14000000 		.4byte	.LFE10
 3838 02d4 0100     		.2byte	0x1
 3839 02d6 50       		.byte	0x50
 3840 02d7 00000000 		.4byte	0
 3841 02db 00000000 		.4byte	0
 3842              	.LLST18:
 3843 02df 00000000 		.4byte	.LVL55
 3844 02e3 06000000 		.4byte	.LVL56
 3845 02e7 0100     		.2byte	0x1
 3846 02e9 50       		.byte	0x50
 3847 02ea 06000000 		.4byte	.LVL56
 3848 02ee 10000000 		.4byte	.LVL59
 3849 02f2 0100     		.2byte	0x1
 3850 02f4 54       		.byte	0x54
 3851 02f5 10000000 		.4byte	.LVL59
 3852 02f9 12000000 		.4byte	.LFE11
 3853 02fd 0400     		.2byte	0x4
 3854 02ff F3       		.byte	0xf3
 3855 0300 01       		.uleb128 0x1
 3856 0301 50       		.byte	0x50
 3857 0302 9F       		.byte	0x9f
 3858 0303 00000000 		.4byte	0
 3859 0307 00000000 		.4byte	0
 3860              	.LLST19:
 3861 030b 00000000 		.4byte	.LVL55
 3862 030f 09000000 		.4byte	.LVL57-1
 3863 0313 0100     		.2byte	0x1
 3864 0315 51       		.byte	0x51
 3865 0316 09000000 		.4byte	.LVL57-1
 3866 031a 12000000 		.4byte	.LFE11
 3867 031e 0400     		.2byte	0x4
 3868 0320 F3       		.byte	0xf3
 3869 0321 01       		.uleb128 0x1
 3870 0322 51       		.byte	0x51
 3871 0323 9F       		.byte	0x9f
 3872 0324 00000000 		.4byte	0
 3873 0328 00000000 		.4byte	0
 3874              	.LLST20:
 3875 032c 00000000 		.4byte	.LVL60
 3876 0330 0A000000 		.4byte	.LVL62
 3877 0334 0100     		.2byte	0x1
 3878 0336 50       		.byte	0x50
 3879 0337 0A000000 		.4byte	.LVL62
 3880 033b 0C000000 		.4byte	.LVL63
 3881 033f 0100     		.2byte	0x1
 3882 0341 53       		.byte	0x53
 3883 0342 0C000000 		.4byte	.LVL63
 3884 0346 0E000000 		.4byte	.LVL64
 3885 034a 0100     		.2byte	0x1
ARM GAS  C:\Users\Administrator\AppData\Local\Temp\ccPYRpEO.s 			page 122


 3886 034c 50       		.byte	0x50
 3887 034d 0E000000 		.4byte	.LVL64
 3888 0351 19000000 		.4byte	.LVL66-1
 3889 0355 0100     		.2byte	0x1
 3890 0357 53       		.byte	0x53
 3891 0358 19000000 		.4byte	.LVL66-1
 3892 035c 1C000000 		.4byte	.LFE12
 3893 0360 0400     		.2byte	0x4
 3894 0362 F3       		.byte	0xf3
 3895 0363 01       		.uleb128 0x1
 3896 0364 50       		.byte	0x50
 3897 0365 9F       		.byte	0x9f
 3898 0366 00000000 		.4byte	0
 3899 036a 00000000 		.4byte	0
 3900              	.LLST21:
 3901 036e 04000000 		.4byte	.LVL61
 3902 0372 0E000000 		.4byte	.LVL64
 3903 0376 0200     		.2byte	0x2
 3904 0378 30       		.byte	0x30
 3905 0379 9F       		.byte	0x9f
 3906 037a 0E000000 		.4byte	.LVL64
 3907 037e 14000000 		.4byte	.LVL65
 3908 0382 0100     		.2byte	0x1
 3909 0384 50       		.byte	0x50
 3910 0385 1A000000 		.4byte	.LVL66
 3911 0389 1C000000 		.4byte	.LFE12
 3912 038d 0100     		.2byte	0x1
 3913 038f 50       		.byte	0x50
 3914 0390 00000000 		.4byte	0
 3915 0394 00000000 		.4byte	0
 3916              	.LLST22:
 3917 0398 02000000 		.4byte	.LVL67
 3918 039c 08000000 		.4byte	.LVL68
 3919 03a0 0200     		.2byte	0x2
 3920 03a2 30       		.byte	0x30
 3921 03a3 9F       		.byte	0x9f
 3922 03a4 08000000 		.4byte	.LVL68
 3923 03a8 18000000 		.4byte	.LVL73
 3924 03ac 0100     		.2byte	0x1
 3925 03ae 55       		.byte	0x55
 3926 03af 18000000 		.4byte	.LVL73
 3927 03b3 1A000000 		.4byte	.LFE13
 3928 03b7 0100     		.2byte	0x1
 3929 03b9 50       		.byte	0x50
 3930 03ba 00000000 		.4byte	0
 3931 03be 00000000 		.4byte	0
 3932              	.LLST23:
 3933 03c2 02000000 		.4byte	.LVL67
 3934 03c6 08000000 		.4byte	.LVL68
 3935 03ca 0200     		.2byte	0x2
 3936 03cc 30       		.byte	0x30
 3937 03cd 9F       		.byte	0x9f
 3938 03ce 08000000 		.4byte	.LVL68
 3939 03d2 18000000 		.4byte	.LVL72
 3940 03d6 0100     		.2byte	0x1
 3941 03d8 54       		.byte	0x54
 3942 03d9 00000000 		.4byte	0
ARM GAS  C:\Users\Administrator\AppData\Local\Temp\ccPYRpEO.s 			page 123


 3943 03dd 00000000 		.4byte	0
 3944              	.LLST24:
 3945 03e1 02000000 		.4byte	.LVL74
 3946 03e5 06000000 		.4byte	.LVL75
 3947 03e9 0200     		.2byte	0x2
 3948 03eb 30       		.byte	0x30
 3949 03ec 9F       		.byte	0x9f
 3950 03ed 06000000 		.4byte	.LVL75
 3951 03f1 38000000 		.4byte	.LVL81
 3952 03f5 0100     		.2byte	0x1
 3953 03f7 55       		.byte	0x55
 3954 03f8 00000000 		.4byte	0
 3955 03fc 00000000 		.4byte	0
 3956              	.LLST25:
 3957 0400 10000000 		.4byte	.LVL76
 3958 0404 14000000 		.4byte	.LVL77
 3959 0408 0200     		.2byte	0x2
 3960 040a 30       		.byte	0x30
 3961 040b 9F       		.byte	0x9f
 3962 040c 14000000 		.4byte	.LVL77
 3963 0410 34000000 		.4byte	.LVL80
 3964 0414 0100     		.2byte	0x1
 3965 0416 54       		.byte	0x54
 3966 0417 00000000 		.4byte	0
 3967 041b 00000000 		.4byte	0
 3968              	.LLST26:
 3969 041f 10000000 		.4byte	.LVL76
 3970 0423 34000000 		.4byte	.LVL80
 3971 0427 0100     		.2byte	0x1
 3972 0429 56       		.byte	0x56
 3973 042a 00000000 		.4byte	0
 3974 042e 00000000 		.4byte	0
 3975              	.LLST27:
 3976 0432 00000000 		.4byte	.LVL82
 3977 0436 06000000 		.4byte	.LVL83
 3978 043a 0100     		.2byte	0x1
 3979 043c 50       		.byte	0x50
 3980 043d 06000000 		.4byte	.LVL83
 3981 0441 0C000000 		.4byte	.LFE19
 3982 0445 0400     		.2byte	0x4
 3983 0447 F3       		.byte	0xf3
 3984 0448 01       		.uleb128 0x1
 3985 0449 50       		.byte	0x50
 3986 044a 9F       		.byte	0x9f
 3987 044b 00000000 		.4byte	0
 3988 044f 00000000 		.4byte	0
 3989              	.LLST28:
 3990 0453 00000000 		.4byte	.LVL84
 3991 0457 14000000 		.4byte	.LVL86
 3992 045b 0100     		.2byte	0x1
 3993 045d 50       		.byte	0x50
 3994 045e 14000000 		.4byte	.LVL86
 3995 0462 1C000000 		.4byte	.LVL87
 3996 0466 0400     		.2byte	0x4
 3997 0468 F3       		.byte	0xf3
 3998 0469 01       		.uleb128 0x1
 3999 046a 50       		.byte	0x50
ARM GAS  C:\Users\Administrator\AppData\Local\Temp\ccPYRpEO.s 			page 124


 4000 046b 9F       		.byte	0x9f
 4001 046c 1C000000 		.4byte	.LVL87
 4002 0470 1E000000 		.4byte	.LVL88
 4003 0474 0100     		.2byte	0x1
 4004 0476 50       		.byte	0x50
 4005 0477 1E000000 		.4byte	.LVL88
 4006 047b 26000000 		.4byte	.LFE20
 4007 047f 0400     		.2byte	0x4
 4008 0481 F3       		.byte	0xf3
 4009 0482 01       		.uleb128 0x1
 4010 0483 50       		.byte	0x50
 4011 0484 9F       		.byte	0x9f
 4012 0485 00000000 		.4byte	0
 4013 0489 00000000 		.4byte	0
 4014              	.LLST29:
 4015 048d 00000000 		.4byte	.LVL84
 4016 0491 0A000000 		.4byte	.LVL85
 4017 0495 0100     		.2byte	0x1
 4018 0497 51       		.byte	0x51
 4019 0498 0A000000 		.4byte	.LVL85
 4020 049c 26000000 		.4byte	.LFE20
 4021 04a0 0400     		.2byte	0x4
 4022 04a2 F3       		.byte	0xf3
 4023 04a3 01       		.uleb128 0x1
 4024 04a4 51       		.byte	0x51
 4025 04a5 9F       		.byte	0x9f
 4026 04a6 00000000 		.4byte	0
 4027 04aa 00000000 		.4byte	0
 4028              	.LLST30:
 4029 04ae 22000000 		.4byte	.LVL89
 4030 04b2 24000000 		.4byte	.LVL90
 4031 04b6 0100     		.2byte	0x1
 4032 04b8 50       		.byte	0x50
 4033 04b9 00000000 		.4byte	0
 4034 04bd 00000000 		.4byte	0
 4035              	.LLST31:
 4036 04c1 00000000 		.4byte	.LVL91
 4037 04c5 07000000 		.4byte	.LVL92-1
 4038 04c9 0100     		.2byte	0x1
 4039 04cb 50       		.byte	0x50
 4040 04cc 07000000 		.4byte	.LVL92-1
 4041 04d0 D8000000 		.4byte	.LFE15
 4042 04d4 0400     		.2byte	0x4
 4043 04d6 F3       		.byte	0xf3
 4044 04d7 01       		.uleb128 0x1
 4045 04d8 50       		.byte	0x50
 4046 04d9 9F       		.byte	0x9f
 4047 04da 00000000 		.4byte	0
 4048 04de 00000000 		.4byte	0
 4049              	.LLST32:
 4050 04e2 00000000 		.4byte	.LVL91
 4051 04e6 07000000 		.4byte	.LVL92-1
 4052 04ea 0100     		.2byte	0x1
 4053 04ec 51       		.byte	0x51
 4054 04ed 07000000 		.4byte	.LVL92-1
 4055 04f1 D0000000 		.4byte	.LVL127
 4056 04f5 0100     		.2byte	0x1
ARM GAS  C:\Users\Administrator\AppData\Local\Temp\ccPYRpEO.s 			page 125


 4057 04f7 56       		.byte	0x56
 4058 04f8 D0000000 		.4byte	.LVL127
 4059 04fc D8000000 		.4byte	.LFE15
 4060 0500 0400     		.2byte	0x4
 4061 0502 F3       		.byte	0xf3
 4062 0503 01       		.uleb128 0x1
 4063 0504 51       		.byte	0x51
 4064 0505 9F       		.byte	0x9f
 4065 0506 00000000 		.4byte	0
 4066 050a 00000000 		.4byte	0
 4067              	.LLST33:
 4068 050e 8E000000 		.4byte	.LVL114
 4069 0512 D0000000 		.4byte	.LVL125
 4070 0516 0100     		.2byte	0x1
 4071 0518 54       		.byte	0x54
 4072 0519 00000000 		.4byte	0
 4073 051d 00000000 		.4byte	0
 4074              	.LLST34:
 4075 0521 14000000 		.4byte	.LVL95
 4076 0525 25000000 		.4byte	.LVL96-1
 4077 0529 0100     		.2byte	0x1
 4078 052b 50       		.byte	0x50
 4079 052c 25000000 		.4byte	.LVL96-1
 4080 0530 68000000 		.4byte	.LVL100
 4081 0534 0100     		.2byte	0x1
 4082 0536 54       		.byte	0x54
 4083 0537 6A000000 		.4byte	.LVL101
 4084 053b 6C000000 		.4byte	.LVL102
 4085 053f 0100     		.2byte	0x1
 4086 0541 54       		.byte	0x54
 4087 0542 6E000000 		.4byte	.LVL103
 4088 0546 70000000 		.4byte	.LVL104
 4089 054a 0100     		.2byte	0x1
 4090 054c 54       		.byte	0x54
 4091 054d 72000000 		.4byte	.LVL105
 4092 0551 74000000 		.4byte	.LVL106
 4093 0555 0100     		.2byte	0x1
 4094 0557 54       		.byte	0x54
 4095 0558 76000000 		.4byte	.LVL107
 4096 055c 78000000 		.4byte	.LVL108
 4097 0560 0100     		.2byte	0x1
 4098 0562 54       		.byte	0x54
 4099 0563 7A000000 		.4byte	.LVL109
 4100 0567 7C000000 		.4byte	.LVL110
 4101 056b 0100     		.2byte	0x1
 4102 056d 54       		.byte	0x54
 4103 056e 7E000000 		.4byte	.LVL111
 4104 0572 80000000 		.4byte	.LVL112
 4105 0576 0100     		.2byte	0x1
 4106 0578 54       		.byte	0x54
 4107 0579 00000000 		.4byte	0
 4108 057d 00000000 		.4byte	0
 4109              	.LLST35:
 4110 0581 0A000000 		.4byte	.LVL93
 4111 0585 11000000 		.4byte	.LVL94-1
 4112 0589 0100     		.2byte	0x1
 4113 058b 50       		.byte	0x50
ARM GAS  C:\Users\Administrator\AppData\Local\Temp\ccPYRpEO.s 			page 126


 4114 058c 11000000 		.4byte	.LVL94-1
 4115 0590 D0000000 		.4byte	.LVL126
 4116 0594 0100     		.2byte	0x1
 4117 0596 55       		.byte	0x55
 4118 0597 00000000 		.4byte	0
 4119 059b 00000000 		.4byte	0
 4120              	.LLST37:
 4121 059f 14000000 		.4byte	.LVL95
 4122 05a3 D0000000 		.4byte	.LVL126
 4123 05a7 0100     		.2byte	0x1
 4124 05a9 55       		.byte	0x55
 4125 05aa 00000000 		.4byte	0
 4126 05ae 00000000 		.4byte	0
 4127              	.LLST38:
 4128 05b2 14000000 		.4byte	.LVL95
 4129 05b6 80000000 		.4byte	.LVL112
 4130 05ba 0200     		.2byte	0x2
 4131 05bc 30       		.byte	0x30
 4132 05bd 9F       		.byte	0x9f
 4133 05be 80000000 		.4byte	.LVL112
 4134 05c2 8E000000 		.4byte	.LVL114
 4135 05c6 0100     		.2byte	0x1
 4136 05c8 54       		.byte	0x54
 4137 05c9 00000000 		.4byte	0
 4138 05cd 00000000 		.4byte	0
 4139              	.LLST40:
 4140 05d1 8E000000 		.4byte	.LVL114
 4141 05d5 D0000000 		.4byte	.LVL126
 4142 05d9 0100     		.2byte	0x1
 4143 05db 55       		.byte	0x55
 4144 05dc 00000000 		.4byte	0
 4145 05e0 00000000 		.4byte	0
 4146              	.LLST41:
 4147 05e4 AE000000 		.4byte	.LVL117
 4148 05e8 B2000000 		.4byte	.LVL118
 4149 05ec 0200     		.2byte	0x2
 4150 05ee 30       		.byte	0x30
 4151 05ef 9F       		.byte	0x9f
 4152 05f0 B2000000 		.4byte	.LVL118
 4153 05f4 C2000000 		.4byte	.LVL122
 4154 05f8 0100     		.2byte	0x1
 4155 05fa 53       		.byte	0x53
 4156 05fb C8000000 		.4byte	.LVL123
 4157 05ff CA000000 		.4byte	.LVL124
 4158 0603 0100     		.2byte	0x1
 4159 0605 53       		.byte	0x53
 4160 0606 00000000 		.4byte	0
 4161 060a 00000000 		.4byte	0
 4162              	.LLST42:
 4163 060e 9C000000 		.4byte	.LVL115
 4164 0612 A8000000 		.4byte	.LVL116
 4165 0616 0100     		.2byte	0x1
 4166 0618 50       		.byte	0x50
 4167 0619 C2000000 		.4byte	.LVL122
 4168 061d C8000000 		.4byte	.LVL123
 4169 0621 0100     		.2byte	0x1
 4170 0623 50       		.byte	0x50
ARM GAS  C:\Users\Administrator\AppData\Local\Temp\ccPYRpEO.s 			page 127


 4171 0624 00000000 		.4byte	0
 4172 0628 00000000 		.4byte	0
 4173              	.LLST43:
 4174 062c AE000000 		.4byte	.LVL117
 4175 0630 C2000000 		.4byte	.LVL122
 4176 0634 0100     		.2byte	0x1
 4177 0636 50       		.byte	0x50
 4178 0637 00000000 		.4byte	0
 4179 063b 00000000 		.4byte	0
 4180              	.LLST44:
 4181 063f 02000000 		.4byte	.LVL128
 4182 0643 06000000 		.4byte	.LVL129
 4183 0647 0200     		.2byte	0x2
 4184 0649 30       		.byte	0x30
 4185 064a 9F       		.byte	0x9f
 4186 064b 06000000 		.4byte	.LVL129
 4187 064f 1E000000 		.4byte	.LVL133
 4188 0653 0100     		.2byte	0x1
 4189 0655 54       		.byte	0x54
 4190 0656 00000000 		.4byte	0
 4191 065a 00000000 		.4byte	0
 4192              	.LLST45:
 4193 065e 12000000 		.4byte	.LVL130
 4194 0662 17000000 		.4byte	.LVL131-1
 4195 0666 0100     		.2byte	0x1
 4196 0668 51       		.byte	0x51
 4197 0669 00000000 		.4byte	0
 4198 066d 00000000 		.4byte	0
 4199              		.section	.debug_aranges,"",%progbits
 4200 0000 A4000000 		.4byte	0xa4
 4201 0004 0200     		.2byte	0x2
 4202 0006 00000000 		.4byte	.Ldebug_info0
 4203 000a 04       		.byte	0x4
 4204 000b 00       		.byte	0
 4205 000c 0000     		.2byte	0
 4206 000e 0000     		.2byte	0
 4207 0010 00000000 		.4byte	.LFB1
 4208 0014 10000000 		.4byte	.LFE1-.LFB1
 4209 0018 00000000 		.4byte	.LFB2
 4210 001c 44000000 		.4byte	.LFE2-.LFB2
 4211 0020 00000000 		.4byte	.LFB3
 4212 0024 1C000000 		.4byte	.LFE3-.LFB3
 4213 0028 00000000 		.4byte	.LFB4
 4214 002c 48000000 		.4byte	.LFE4-.LFB4
 4215 0030 00000000 		.4byte	.LFB6
 4216 0034 90000000 		.4byte	.LFE6-.LFB6
 4217 0038 00000000 		.4byte	.LFB7
 4218 003c 68000000 		.4byte	.LFE7-.LFB7
 4219 0040 00000000 		.4byte	.LFB8
 4220 0044 08000000 		.4byte	.LFE8-.LFB8
 4221 0048 00000000 		.4byte	.LFB9
 4222 004c 30000000 		.4byte	.LFE9-.LFB9
 4223 0050 00000000 		.4byte	.LFB10
 4224 0054 14000000 		.4byte	.LFE10-.LFB10
 4225 0058 00000000 		.4byte	.LFB11
 4226 005c 12000000 		.4byte	.LFE11-.LFB11
 4227 0060 00000000 		.4byte	.LFB12
ARM GAS  C:\Users\Administrator\AppData\Local\Temp\ccPYRpEO.s 			page 128


 4228 0064 1C000000 		.4byte	.LFE12-.LFB12
 4229 0068 00000000 		.4byte	.LFB13
 4230 006c 1A000000 		.4byte	.LFE13-.LFB13
 4231 0070 00000000 		.4byte	.LFB18
 4232 0074 40000000 		.4byte	.LFE18-.LFB18
 4233 0078 00000000 		.4byte	.LFB19
 4234 007c 0C000000 		.4byte	.LFE19-.LFB19
 4235 0080 00000000 		.4byte	.LFB20
 4236 0084 26000000 		.4byte	.LFE20-.LFB20
 4237 0088 00000000 		.4byte	.LFB15
 4238 008c D8000000 		.4byte	.LFE15-.LFB15
 4239 0090 00000000 		.4byte	.LFB14
 4240 0094 24000000 		.4byte	.LFE14-.LFB14
 4241 0098 00000000 		.4byte	.LFB5
 4242 009c 0E000000 		.4byte	.LFE5-.LFB5
 4243 00a0 00000000 		.4byte	0
 4244 00a4 00000000 		.4byte	0
 4245              		.section	.debug_ranges,"",%progbits
 4246              	.Ldebug_ranges0:
 4247 0000 00000000 		.4byte	.LFB1
 4248 0004 10000000 		.4byte	.LFE1
 4249 0008 00000000 		.4byte	.LFB2
 4250 000c 44000000 		.4byte	.LFE2
 4251 0010 00000000 		.4byte	.LFB3
 4252 0014 1C000000 		.4byte	.LFE3
 4253 0018 00000000 		.4byte	.LFB4
 4254 001c 48000000 		.4byte	.LFE4
 4255 0020 00000000 		.4byte	.LFB6
 4256 0024 90000000 		.4byte	.LFE6
 4257 0028 00000000 		.4byte	.LFB7
 4258 002c 68000000 		.4byte	.LFE7
 4259 0030 00000000 		.4byte	.LFB8
 4260 0034 08000000 		.4byte	.LFE8
 4261 0038 00000000 		.4byte	.LFB9
 4262 003c 30000000 		.4byte	.LFE9
 4263 0040 00000000 		.4byte	.LFB10
 4264 0044 14000000 		.4byte	.LFE10
 4265 0048 00000000 		.4byte	.LFB11
 4266 004c 12000000 		.4byte	.LFE11
 4267 0050 00000000 		.4byte	.LFB12
 4268 0054 1C000000 		.4byte	.LFE12
 4269 0058 00000000 		.4byte	.LFB13
 4270 005c 1A000000 		.4byte	.LFE13
 4271 0060 00000000 		.4byte	.LFB18
 4272 0064 40000000 		.4byte	.LFE18
 4273 0068 00000000 		.4byte	.LFB19
 4274 006c 0C000000 		.4byte	.LFE19
 4275 0070 00000000 		.4byte	.LFB20
 4276 0074 26000000 		.4byte	.LFE20
 4277 0078 00000000 		.4byte	.LFB15
 4278 007c D8000000 		.4byte	.LFE15
 4279 0080 00000000 		.4byte	.LFB14
 4280 0084 24000000 		.4byte	.LFE14
 4281 0088 00000000 		.4byte	.LFB5
 4282 008c 0E000000 		.4byte	.LFE5
 4283 0090 00000000 		.4byte	0
 4284 0094 00000000 		.4byte	0
ARM GAS  C:\Users\Administrator\AppData\Local\Temp\ccPYRpEO.s 			page 129


 4285              		.section	.debug_line,"",%progbits
 4286              	.Ldebug_line0:
 4287 0000 2D030000 		.section	.debug_str,"MS",%progbits,1
 4287      0200BF00 
 4287      00000201 
 4287      FB0E0D00 
 4287      01010101 
 4288              	.LASF159:
 4289 0000 474E5520 		.ascii	"GNU C 4.9.3 20150303 (release) [ARM/embedded-4_9-br"
 4289      4320342E 
 4289      392E3320 
 4289      32303135 
 4289      30333033 
 4290 0033 616E6368 		.ascii	"anch revision 221220] -mcpu=cortex-m0plus -mthumb -"
 4290      20726576 
 4290      6973696F 
 4290      6E203232 
 4290      31323230 
 4291 0066 67202D4F 		.ascii	"g -Og -ffunction-sections -ffat-lto-objects\000"
 4291      67202D66 
 4291      66756E63 
 4291      74696F6E 
 4291      2D736563 
 4292              	.LASF120:
 4293 0092 6B65795F 		.ascii	"key_touch_SsSetClockDividers\000"
 4293      746F7563 
 4293      685F5373 
 4293      53657443 
 4293      6C6F636B 
 4294              	.LASF125:
 4295 00af 6B65795F 		.ascii	"key_touch_SsCSDGetColSnsClkDivider\000"
 4295      746F7563 
 4295      685F5373 
 4295      43534447 
 4295      6574436F 
 4296              	.LASF55:
 4297 00d2 6B65795F 		.ascii	"key_touch_RAM_SNS_STRUCT\000"
 4297      746F7563 
 4297      685F5241 
 4297      4D5F534E 
 4297      535F5354 
 4298              	.LASF100:
 4299 00eb 7363616E 		.ascii	"scanStatus\000"
 4299      53746174 
 4299      757300
 4300              	.LASF145:
 4301 00f6 6B65795F 		.ascii	"key_touch_widgetIndex\000"
 4301      746F7563 
 4301      685F7769 
 4301      64676574 
 4301      496E6465 
 4302              	.LASF22:
 4303 010c 6B65795F 		.ascii	"key_touch_SENSE_METHOD_CSX_E\000"
 4303      746F7563 
 4303      685F5345 
 4303      4E53455F 
 4303      4D455448 
ARM GAS  C:\Users\Administrator\AppData\Local\Temp\ccPYRpEO.s 			page 130


 4304              	.LASF70:
 4305 0129 736E7254 		.ascii	"snrTestWidgetId\000"
 4305      65737457 
 4305      69646765 
 4305      74496400 
 4306              	.LASF155:
 4307 0139 6B65795F 		.ascii	"key_touch_CSDCalibrateWidget\000"
 4307      746F7563 
 4307      685F4353 
 4307      4443616C 
 4307      69627261 
 4308              	.LASF139:
 4309 0156 6B65795F 		.ascii	"key_touch_SsInitializeSourceSenseClk\000"
 4309      746F7563 
 4309      685F5373 
 4309      496E6974 
 4309      69616C69 
 4310              	.LASF157:
 4311 017b 6B65795F 		.ascii	"key_touch_CSDScan\000"
 4311      746F7563 
 4311      685F4353 
 4311      44536361 
 4311      6E00
 4312              	.LASF8:
 4313 018d 756E7369 		.ascii	"unsigned int\000"
 4313      676E6564 
 4313      20696E74 
 4313      00
 4314              	.LASF60:
 4315 019a 7363616E 		.ascii	"scanCounter\000"
 4315      436F756E 
 4315      74657200 
 4316              	.LASF132:
 4317 01a6 6B65795F 		.ascii	"key_touch_SsCalcLfsrSize\000"
 4317      746F7563 
 4317      685F5373 
 4317      43616C63 
 4317      4C667372 
 4318              	.LASF141:
 4319 01bf 696E6974 		.ascii	"initStatus\000"
 4319      53746174 
 4319      757300
 4320              	.LASF107:
 4321 01ca 696E7465 		.ascii	"interruptState\000"
 4321      72727570 
 4321      74537461 
 4321      746500
 4322              	.LASF21:
 4323 01d9 6B65795F 		.ascii	"key_touch_SENSE_METHOD_CSD_E\000"
 4323      746F7563 
 4323      685F5345 
 4323      4E53455F 
 4323      4D455448 
 4324              	.LASF135:
 4325 01f6 6C667372 		.ascii	"lfsrScale\000"
 4325      5363616C 
 4325      6500
ARM GAS  C:\Users\Administrator\AppData\Local\Temp\ccPYRpEO.s 			page 131


 4326              	.LASF108:
 4327 0200 70696E48 		.ascii	"pinHSIOMShift\000"
 4327      53494F4D 
 4327      53686966 
 4327      7400
 4328              	.LASF19:
 4329 020e 6B65795F 		.ascii	"key_touch_LOW_BSLN_RST_TYPE\000"
 4329      746F7563 
 4329      685F4C4F 
 4329      575F4253 
 4329      4C4E5F52 
 4330              	.LASF136:
 4331 022a 6C667372 		.ascii	"lfsrRange\000"
 4331      52616E67 
 4331      6500
 4332              	.LASF96:
 4333 0234 6B65795F 		.ascii	"key_touch_FLASH_STRUCT\000"
 4333      746F7563 
 4333      685F464C 
 4333      4153485F 
 4333      53545255 
 4334              	.LASF109:
 4335 024b 70696E4D 		.ascii	"pinModeShift\000"
 4335      6F646553 
 4335      68696674 
 4335      00
 4336              	.LASF74:
 4337 0258 6B65795F 		.ascii	"key_touch_RAM_STRUCT\000"
 4337      746F7563 
 4337      685F5241 
 4337      4D5F5354 
 4337      52554354 
 4338              	.LASF20:
 4339 026d 6B65795F 		.ascii	"key_touch_UNDEFINED_E\000"
 4339      746F7563 
 4339      685F554E 
 4339      44454649 
 4339      4E45445F 
 4340              	.LASF138:
 4341 0283 70747257 		.ascii	"ptrWdgt\000"
 4341      64677400 
 4342              	.LASF127:
 4343 028b 6B65795F 		.ascii	"key_touch_SsCSDCalcPrsSize\000"
 4343      746F7563 
 4343      685F5373 
 4343      43534443 
 4343      616C6350 
 4344              	.LASF12:
 4345 02a6 666C6F61 		.ascii	"float\000"
 4345      7400
 4346              	.LASF83:
 4347 02ac 73686966 		.ascii	"shift\000"
 4347      7400
 4348              	.LASF95:
 4349 02b2 77646774 		.ascii	"wdgtArray\000"
 4349      41727261 
 4349      7900
ARM GAS  C:\Users\Administrator\AppData\Local\Temp\ccPYRpEO.s 			page 132


 4350              	.LASF69:
 4351 02bc 736E734C 		.ascii	"snsList\000"
 4351      69737400 
 4352              	.LASF7:
 4353 02c4 6C6F6E67 		.ascii	"long long unsigned int\000"
 4353      206C6F6E 
 4353      6720756E 
 4353      7369676E 
 4353      65642069 
 4354              	.LASF146:
 4355 02db 6B65795F 		.ascii	"key_touch_sensorIndex\000"
 4355      746F7563 
 4355      685F7365 
 4355      6E736F72 
 4355      496E6465 
 4356              	.LASF71:
 4357 02f1 736E7254 		.ascii	"snrTestSensorId\000"
 4357      65737453 
 4357      656E736F 
 4357      72496400 
 4358              	.LASF92:
 4359 0301 77646774 		.ascii	"wdgtType\000"
 4359      54797065 
 4359      00
 4360              	.LASF134:
 4361 030a 6C667372 		.ascii	"lfsrSize\000"
 4361      53697A65 
 4361      00
 4362              	.LASF106:
 4363 0313 6E657752 		.ascii	"newRegisterValue\000"
 4363      65676973 
 4363      74657256 
 4363      616C7565 
 4363      00
 4364              	.LASF67:
 4365 0324 736E7343 		.ascii	"snsCsdClk\000"
 4365      7364436C 
 4365      6B00
 4366              	.LASF66:
 4367 032e 6D6F6443 		.ascii	"modCsdClk\000"
 4367      7364436C 
 4367      6B00
 4368              	.LASF31:
 4369 0338 62736C6E 		.ascii	"bslnCoeff\000"
 4369      436F6566 
 4369      6600
 4370              	.LASF147:
 4371 0342 6B65795F 		.ascii	"key_touch_requestScanAllWidget\000"
 4371      746F7563 
 4371      685F7265 
 4371      71756573 
 4371      74536361 
 4372              	.LASF77:
 4373 0361 64725074 		.ascii	"drPtr\000"
 4373      7200
 4374              	.LASF36:
 4375 0367 6B65795F 		.ascii	"key_touch_RAM_WD_BUTTON_STRUCT\000"
ARM GAS  C:\Users\Administrator\AppData\Local\Temp\ccPYRpEO.s 			page 133


 4375      746F7563 
 4375      685F5241 
 4375      4D5F5744 
 4375      5F425554 
 4376              	.LASF116:
 4377 0386 6D6F6443 		.ascii	"modClk\000"
 4377      6C6B00
 4378              	.LASF28:
 4379 038d 68797374 		.ascii	"hysteresis\000"
 4379      65726573 
 4379      697300
 4380              	.LASF30:
 4381 0398 6C6F7742 		.ascii	"lowBslnRst\000"
 4381      736C6E52 
 4381      737400
 4382              	.LASF91:
 4383 03a3 746F7461 		.ascii	"totalNumSns\000"
 4383      6C4E756D 
 4383      536E7300 
 4384              	.LASF133:
 4385 03af 6B65795F 		.ascii	"key_touch_SsCalcLfsrScale\000"
 4385      746F7563 
 4385      685F5373 
 4385      43616C63 
 4385      4C667372 
 4386              	.LASF26:
 4387 03c9 6E6F6973 		.ascii	"noiseTh\000"
 4387      65546800 
 4388              	.LASF14:
 4389 03d1 63686172 		.ascii	"char\000"
 4389      00
 4390              	.LASF151:
 4391 03d6 43794578 		.ascii	"CyExitCriticalSection\000"
 4391      69744372 
 4391      69746963 
 4391      616C5365 
 4391      6374696F 
 4392              	.LASF150:
 4393 03ec 6B65795F 		.ascii	"key_touch_CSDSetupWidget\000"
 4393      746F7563 
 4393      685F4353 
 4393      44536574 
 4393      75705769 
 4394              	.LASF123:
 4395 0405 6B65795F 		.ascii	"key_touch_CalibrateAllWidgets\000"
 4395      746F7563 
 4395      685F4361 
 4395      6C696272 
 4395      61746541 
 4396              	.LASF81:
 4397 0423 6873696F 		.ascii	"hsiomShift\000"
 4397      6D536869 
 4397      667400
 4398              	.LASF111:
 4399 042e 6B65795F 		.ascii	"key_touch_SsPostAllWidgetsScan\000"
 4399      746F7563 
 4399      685F5373 
ARM GAS  C:\Users\Administrator\AppData\Local\Temp\ccPYRpEO.s 			page 134


 4399      506F7374 
 4399      416C6C57 
 4400              	.LASF10:
 4401 044d 75696E74 		.ascii	"uint16\000"
 4401      313600
 4402              	.LASF131:
 4403 0454 636F6E76 		.ascii	"conversionsNum\000"
 4403      65727369 
 4403      6F6E734E 
 4403      756D00
 4404              	.LASF94:
 4405 0463 6B65795F 		.ascii	"key_touch_FLASH_WD_STRUCT\000"
 4405      746F7563 
 4405      685F464C 
 4405      4153485F 
 4405      57445F53 
 4406              	.LASF84:
 4407 047d 6B65795F 		.ascii	"key_touch_FLASH_IO_STRUCT\000"
 4407      746F7563 
 4407      685F464C 
 4407      4153485F 
 4407      494F5F53 
 4408              	.LASF24:
 4409 0497 7265736F 		.ascii	"resolution\000"
 4409      6C757469 
 4409      6F6E00
 4410              	.LASF61:
 4411 04a2 73746174 		.ascii	"status\000"
 4411      757300
 4412              	.LASF115:
 4413 04a9 6B65795F 		.ascii	"key_touch_SsSetModClkClockDivider\000"
 4413      746F7563 
 4413      685F5373 
 4413      5365744D 
 4413      6F64436C 
 4414              	.LASF54:
 4415 04cb 69646163 		.ascii	"idacComp\000"
 4415      436F6D70 
 4415      00
 4416              	.LASF76:
 4417 04d4 70635074 		.ascii	"pcPtr\000"
 4417      7200
 4418              	.LASF6:
 4419 04da 6C6F6E67 		.ascii	"long long int\000"
 4419      206C6F6E 
 4419      6720696E 
 4419      7400
 4420              	.LASF93:
 4421 04e8 6E756D43 		.ascii	"numCols\000"
 4421      6F6C7300 
 4422              	.LASF49:
 4423 04f0 6B65795F 		.ascii	"key_touch_RAM_WD_LIST_STRUCT\000"
 4423      746F7563 
 4423      685F5241 
 4423      4D5F5744 
 4423      5F4C4953 
 4424              	.LASF29:
ARM GAS  C:\Users\Administrator\AppData\Local\Temp\ccPYRpEO.s 			page 135


 4425 050d 6F6E4465 		.ascii	"onDebounce\000"
 4425      626F756E 
 4425      636500
 4426              	.LASF156:
 4427 0518 6B65795F 		.ascii	"key_touch_SsCSDGetNumberOfConversions\000"
 4427      746F7563 
 4427      685F5373 
 4427      43534447 
 4427      65744E75 
 4428              	.LASF122:
 4429 053e 63616C69 		.ascii	"calibrateStatus\000"
 4429      62726174 
 4429      65537461 
 4429      74757300 
 4430              	.LASF68:
 4431 054e 77646774 		.ascii	"wdgtList\000"
 4431      4C697374 
 4431      00
 4432              	.LASF148:
 4433 0557 6B65795F 		.ascii	"key_touch_curRamSnsPtr\000"
 4433      746F7563 
 4433      685F6375 
 4433      7252616D 
 4433      536E7350 
 4434              	.LASF73:
 4435 056e 736E7254 		.ascii	"snrTestRawCount\000"
 4435      65737452 
 4435      6177436F 
 4435      756E7400 
 4436              	.LASF27:
 4437 057e 6E4E6F69 		.ascii	"nNoiseTh\000"
 4437      73655468 
 4437      00
 4438              	.LASF65:
 4439 0587 63736430 		.ascii	"csd0Config\000"
 4439      436F6E66 
 4439      696700
 4440              	.LASF17:
 4441 0592 63796973 		.ascii	"cyisraddress\000"
 4441      72616464 
 4441      72657373 
 4441      00
 4442              	.LASF75:
 4443 059f 6873696F 		.ascii	"hsiomPtr\000"
 4443      6D507472 
 4443      00
 4444              	.LASF11:
 4445 05a8 75696E74 		.ascii	"uint32\000"
 4445      333200
 4446              	.LASF88:
 4447 05af 70747232 		.ascii	"ptr2FltrHistory\000"
 4447      466C7472 
 4447      48697374 
 4447      6F727900 
 4448              	.LASF140:
 4449 05bf 6B65795F 		.ascii	"key_touch_SsInitialize\000"
 4449      746F7563 
ARM GAS  C:\Users\Administrator\AppData\Local\Temp\ccPYRpEO.s 			page 136


 4449      685F5373 
 4449      496E6974 
 4449      69616C69 
 4450              	.LASF80:
 4451 05d6 6D61736B 		.ascii	"mask\000"
 4451      00
 4452              	.LASF149:
 4453 05db 6B65795F 		.ascii	"key_touch_curSnsIOPtr\000"
 4453      746F7563 
 4453      685F6375 
 4453      72536E73 
 4453      494F5074 
 4454              	.LASF161:
 4455 05f1 443A5C41 		.ascii	"D:\\AYBR3000\\AYBR3000_V2.0_lable\\AYBR3000\\AYBR30"
 4455      59425233 
 4455      3030305C 
 4455      41594252 
 4455      33303030 
 4456 0620 30302E63 		.ascii	"00.cydsn\000"
 4456      7964736E 
 4456      00
 4457              	.LASF101:
 4458 0629 6B65795F 		.ascii	"key_touch_ScanAllWidgets\000"
 4458      746F7563 
 4458      685F5363 
 4458      616E416C 
 4458      6C576964 
 4459              	.LASF102:
 4460 0642 77646774 		.ascii	"wdgtIndex\000"
 4460      496E6465 
 4460      7800
 4461              	.LASF160:
 4462 064c 47656E65 		.ascii	"Generated_Source\\PSoC4\\key_touch_Sensing.c\000"
 4462      72617465 
 4462      645F536F 
 4462      75726365 
 4462      5C50536F 
 4463              	.LASF103:
 4464 0677 736E7349 		.ascii	"snsIndex\000"
 4464      6E646578 
 4464      00
 4465              	.LASF16:
 4466 0680 72656733 		.ascii	"reg32\000"
 4466      3200
 4467              	.LASF72:
 4468 0686 736E7254 		.ascii	"snrTestScanCounter\000"
 4468      65737453 
 4468      63616E43 
 4468      6F756E74 
 4468      657200
 4469              	.LASF57:
 4470 0699 636F6E66 		.ascii	"configId\000"
 4470      69674964 
 4470      00
 4471              	.LASF87:
 4472 06a2 70747232 		.ascii	"ptr2SnsRam\000"
 4472      536E7352 
ARM GAS  C:\Users\Administrator\AppData\Local\Temp\ccPYRpEO.s 			page 137


 4472      616D00
 4473              	.LASF121:
 4474 06ad 6B65795F 		.ascii	"key_touch_CalibrateWidget\000"
 4474      746F7563 
 4474      685F4361 
 4474      6C696272 
 4474      61746557 
 4475              	.LASF64:
 4476 06c7 736E7353 		.ascii	"snsStatus\000"
 4476      74617475 
 4476      7300
 4477              	.LASF112:
 4478 06d1 706F7374 		.ascii	"postScanStatus\000"
 4478      5363616E 
 4478      53746174 
 4478      757300
 4479              	.LASF33:
 4480 06e0 736E7343 		.ascii	"snsClkSource\000"
 4480      6C6B536F 
 4480      75726365 
 4480      00
 4481              	.LASF23:
 4482 06ed 6B65795F 		.ascii	"key_touch_SENSE_METHOD_BIST_E\000"
 4482      746F7563 
 4482      685F5345 
 4482      4E53455F 
 4482      4D455448 
 4483              	.LASF154:
 4484 070b 6B65795F 		.ascii	"key_touch_CSDDisconnectSns\000"
 4484      746F7563 
 4484      685F4353 
 4484      44446973 
 4484      636F6E6E 
 4485              	.LASF2:
 4486 0726 73686F72 		.ascii	"short int\000"
 4486      7420696E 
 4486      7400
 4487              	.LASF18:
 4488 0730 6B65795F 		.ascii	"key_touch_THRESHOLD_TYPE\000"
 4488      746F7563 
 4488      685F5448 
 4488      52455348 
 4488      4F4C445F 
 4489              	.LASF4:
 4490 0749 6C6F6E67 		.ascii	"long int\000"
 4490      20696E74 
 4490      00
 4491              	.LASF152:
 4492 0752 6B65795F 		.ascii	"key_touch_CSDConnectSns\000"
 4492      746F7563 
 4492      685F4353 
 4492      44436F6E 
 4492      6E656374 
 4493              	.LASF158:
 4494 076a 6B65795F 		.ascii	"key_touch_SsCSDInitialize\000"
 4494      746F7563 
 4494      685F5373 
ARM GAS  C:\Users\Administrator\AppData\Local\Temp\ccPYRpEO.s 			page 138


 4494      43534449 
 4494      6E697469 
 4495              	.LASF62:
 4496 0784 77646774 		.ascii	"wdgtEnable\000"
 4496      456E6162 
 4496      6C6500
 4497              	.LASF52:
 4498 078f 64696666 		.ascii	"diff\000"
 4498      00
 4499              	.LASF59:
 4500 0794 74756E65 		.ascii	"tunerCmd\000"
 4500      72436D64 
 4500      00
 4501              	.LASF78:
 4502 079d 70735074 		.ascii	"psPtr\000"
 4502      7200
 4503              	.LASF37:
 4504 07a3 62757474 		.ascii	"button0\000"
 4504      6F6E3000 
 4505              	.LASF38:
 4506 07ab 62757474 		.ascii	"button1\000"
 4506      6F6E3100 
 4507              	.LASF39:
 4508 07b3 62757474 		.ascii	"button2\000"
 4508      6F6E3200 
 4509              	.LASF40:
 4510 07bb 62757474 		.ascii	"button3\000"
 4510      6F6E3300 
 4511              	.LASF41:
 4512 07c3 62757474 		.ascii	"button4\000"
 4512      6F6E3400 
 4513              	.LASF42:
 4514 07cb 62757474 		.ascii	"button5\000"
 4514      6F6E3500 
 4515              	.LASF43:
 4516 07d3 62757474 		.ascii	"button6\000"
 4516      6F6E3600 
 4517              	.LASF44:
 4518 07db 62757474 		.ascii	"button7\000"
 4518      6F6E3700 
 4519              	.LASF45:
 4520 07e3 62757474 		.ascii	"button8\000"
 4520      6F6E3800 
 4521              	.LASF46:
 4522 07eb 62757474 		.ascii	"button9\000"
 4522      6F6E3900 
 4523              	.LASF63:
 4524 07f3 77646774 		.ascii	"wdgtStatus\000"
 4524      53746174 
 4524      757300
 4525              	.LASF97:
 4526 07fe 6B65795F 		.ascii	"key_touch_SetupWidget\000"
 4526      746F7563 
 4526      685F5365 
 4526      74757057 
 4526      69646765 
 4527              	.LASF129:
ARM GAS  C:\Users\Administrator\AppData\Local\Temp\ccPYRpEO.s 			page 139


 4528 0814 70727353 		.ascii	"prsSize\000"
 4528      697A6500 
 4529              	.LASF34:
 4530 081c 73697A65 		.ascii	"sizetype\000"
 4530      74797065 
 4530      00
 4531              	.LASF82:
 4532 0825 64725368 		.ascii	"drShift\000"
 4532      69667400 
 4533              	.LASF5:
 4534 082d 6C6F6E67 		.ascii	"long unsigned int\000"
 4534      20756E73 
 4534      69676E65 
 4534      6420696E 
 4534      7400
 4535              	.LASF126:
 4536 083f 72657456 		.ascii	"retVal\000"
 4536      616C00
 4537              	.LASF114:
 4538 0846 61646472 		.ascii	"address\000"
 4538      65737300 
 4539              	.LASF32:
 4540 084e 69646163 		.ascii	"idacMod\000"
 4540      4D6F6400 
 4541              	.LASF89:
 4542 0856 70747232 		.ascii	"ptr2DebounceArr\000"
 4542      4465626F 
 4542      756E6365 
 4542      41727200 
 4543              	.LASF153:
 4544 0866 6B65795F 		.ascii	"key_touch_ISR_StartEx\000"
 4544      746F7563 
 4544      685F4953 
 4544      525F5374 
 4544      61727445 
 4545              	.LASF25:
 4546 087c 66696E67 		.ascii	"fingerTh\000"
 4546      65725468 
 4546      00
 4547              	.LASF51:
 4548 0885 62736C6E 		.ascii	"bslnExt\000"
 4548      45787400 
 4549              	.LASF15:
 4550 088d 63797374 		.ascii	"cystatus\000"
 4550      61747573 
 4550      00
 4551              	.LASF1:
 4552 0896 756E7369 		.ascii	"unsigned char\000"
 4552      676E6564 
 4552      20636861 
 4552      7200
 4553              	.LASF90:
 4554 08a4 73746174 		.ascii	"staticConfig\000"
 4554      6963436F 
 4554      6E666967 
 4554      00
 4555              	.LASF98:
ARM GAS  C:\Users\Administrator\AppData\Local\Temp\ccPYRpEO.s 			page 140


 4556 08b1 6B65795F 		.ascii	"key_touch_Scan\000"
 4556      746F7563 
 4556      685F5363 
 4556      616E00
 4557              	.LASF86:
 4558 08c0 70747232 		.ascii	"ptr2WdgtRam\000"
 4558      57646774 
 4558      52616D00 
 4559              	.LASF113:
 4560 08cc 6B65795F 		.ascii	"key_touch_SsIsrInitialize\000"
 4560      746F7563 
 4560      685F5373 
 4560      49737249 
 4560      6E697469 
 4561              	.LASF144:
 4562 08e6 6B65795F 		.ascii	"key_touch_scanFreqIndex\000"
 4562      746F7563 
 4562      685F7363 
 4562      616E4672 
 4562      6571496E 
 4563              	.LASF110:
 4564 08fe 6B65795F 		.ascii	"key_touch_SetPinState\000"
 4564      746F7563 
 4564      685F5365 
 4564      7450696E 
 4564      53746174 
 4565              	.LASF117:
 4566 0914 6B65795F 		.ascii	"key_touch_SsSetSnsClockDivider\000"
 4566      746F7563 
 4566      685F5373 
 4566      53657453 
 4566      6E73436C 
 4567              	.LASF104:
 4568 0933 73746174 		.ascii	"state\000"
 4568      6500
 4569              	.LASF124:
 4570 0939 6B65795F 		.ascii	"key_touch_SsClearCSDSensors\000"
 4570      746F7563 
 4570      685F5373 
 4570      436C6561 
 4570      72435344 
 4571              	.LASF35:
 4572 0955 6B65795F 		.ascii	"key_touch_RAM_WD_BASE_STRUCT\000"
 4572      746F7563 
 4572      685F5241 
 4572      4D5F5744 
 4572      5F424153 
 4573              	.LASF56:
 4574 0972 6B65795F 		.ascii	"key_touch_RAM_SNS_LIST_STRUCT\000"
 4574      746F7563 
 4574      685F5241 
 4574      4D5F534E 
 4574      535F4C49 
 4575              	.LASF79:
 4576 0990 6873696F 		.ascii	"hsiomMask\000"
 4576      6D4D6173 
 4576      6B00
ARM GAS  C:\Users\Administrator\AppData\Local\Temp\ccPYRpEO.s 			page 141


 4577              	.LASF105:
 4578 099a 63757253 		.ascii	"curSnsIOPtr\000"
 4578      6E73494F 
 4578      50747200 
 4579              	.LASF118:
 4580 09a6 736E7343 		.ascii	"snsClk\000"
 4580      6C6B00
 4581              	.LASF164:
 4582 09ad 4379456E 		.ascii	"CyEnterCriticalSection\000"
 4582      74657243 
 4582      72697469 
 4582      63616C53 
 4582      65637469 
 4583              	.LASF0:
 4584 09c4 7369676E 		.ascii	"signed char\000"
 4584      65642063 
 4584      68617200 
 4585              	.LASF50:
 4586 09d0 62736C6E 		.ascii	"bsln\000"
 4586      00
 4587              	.LASF3:
 4588 09d5 73686F72 		.ascii	"short unsigned int\000"
 4588      7420756E 
 4588      7369676E 
 4588      65642069 
 4588      6E7400
 4589              	.LASF85:
 4590 09e8 70747232 		.ascii	"ptr2SnsFlash\000"
 4590      536E7346 
 4590      6C617368 
 4590      00
 4591              	.LASF137:
 4592 09f5 6C667372 		.ascii	"lfsrDither\000"
 4592      44697468 
 4592      657200
 4593              	.LASF119:
 4594 0a00 6E657752 		.ascii	"newRegValue\000"
 4594      65675661 
 4594      6C756500 
 4595              	.LASF9:
 4596 0a0c 75696E74 		.ascii	"uint8\000"
 4596      3800
 4597              	.LASF13:
 4598 0a12 646F7562 		.ascii	"double\000"
 4598      6C6500
 4599              	.LASF53:
 4600 0a19 6E656742 		.ascii	"negBslnRstCnt\000"
 4600      736C6E52 
 4600      7374436E 
 4600      7400
 4601              	.LASF142:
 4602 0a27 6B65795F 		.ascii	"key_touch_dsRam\000"
 4602      746F7563 
 4602      685F6473 
 4602      52616D00 
 4603              	.LASF162:
 4604 0a37 6B65795F 		.ascii	"key_touch_IsBusy\000"
ARM GAS  C:\Users\Administrator\AppData\Local\Temp\ccPYRpEO.s 			page 142


 4604      746F7563 
 4604      685F4973 
 4604      42757379 
 4604      00
 4605              	.LASF128:
 4606 0a48 736E7343 		.ascii	"snsClkDivider\000"
 4606      6C6B4469 
 4606      76696465 
 4606      7200
 4607              	.LASF143:
 4608 0a56 6B65795F 		.ascii	"key_touch_dsFlash\000"
 4608      746F7563 
 4608      685F6473 
 4608      466C6173 
 4608      6800
 4609              	.LASF130:
 4610 0a68 6D6F6443 		.ascii	"modClkDivider\000"
 4610      6C6B4469 
 4610      76696465 
 4610      7200
 4611              	.LASF58:
 4612 0a76 64657669 		.ascii	"deviceId\000"
 4612      63654964 
 4612      00
 4613              	.LASF163:
 4614 0a7f 6B65795F 		.ascii	"key_touch_SsSetWidgetSenseClkSrc\000"
 4614      746F7563 
 4614      685F5373 
 4614      53657457 
 4614      69646765 
 4615              	.LASF99:
 4616 0aa0 77696467 		.ascii	"widgetStatus\000"
 4616      65745374 
 4616      61747573 
 4616      00
 4617              	.LASF47:
 4618 0aad 62757474 		.ascii	"button10\000"
 4618      6F6E3130 
 4618      00
 4619              	.LASF48:
 4620 0ab6 62757474 		.ascii	"button11\000"
 4620      6F6E3131 
 4620      00
 4621              		.ident	"GCC: (GNU Tools for ARM Embedded Processors) 4.9.3 20150303 (release) [ARM/embedded-4_9-br
