ARM GAS  C:\Users\Administrator\AppData\Local\Temp\ccPYRpEO.s 			page 1


   1              		.cpu cortex-m0plus
   2              		.fpu softvfp
   3              		.eabi_attribute 20, 1
   4              		.eabi_attribute 21, 1
   5              		.eabi_attribute 23, 3
   6              		.eabi_attribute 24, 1
   7              		.eabi_attribute 25, 1
   8              		.eabi_attribute 26, 1
   9              		.eabi_attribute 30, 1
  10              		.eabi_attribute 34, 0
  11              		.eabi_attribute 18, 4
  12              		.code	16
  13              		.file	"key_touch_Sensing.c"
  14              		.text
  15              	.Ltext0:
  16              		.cfi_sections	.debug_frame
  17              		.section	.text.key_touch_IsBusy,"ax",%progbits
  18              		.align	2
  19              		.global	key_touch_IsBusy
  20              		.code	16
  21              		.thumb_func
  22              		.type	key_touch_IsBusy, %function
  23              	key_touch_IsBusy:
  24              	.LFB1:
  25              		.file 1 "Generated_Source\\PSoC4\\key_touch_Sensing.c"
   1:Generated_Source\PSoC4/key_touch_Sensing.c **** /***************************************************************************//**
   2:Generated_Source\PSoC4/key_touch_Sensing.c **** * \file key_touch_Sensing.c
   3:Generated_Source\PSoC4/key_touch_Sensing.c **** * \version 3.10
   4:Generated_Source\PSoC4/key_touch_Sensing.c **** *
   5:Generated_Source\PSoC4/key_touch_Sensing.c **** * \brief
   6:Generated_Source\PSoC4/key_touch_Sensing.c **** *   This file contains the source of functions common for
   7:Generated_Source\PSoC4/key_touch_Sensing.c **** *   different sensing methods.
   8:Generated_Source\PSoC4/key_touch_Sensing.c **** *
   9:Generated_Source\PSoC4/key_touch_Sensing.c **** * \see CapSense P4 v3.10 Datasheet
  10:Generated_Source\PSoC4/key_touch_Sensing.c **** *
  11:Generated_Source\PSoC4/key_touch_Sensing.c **** *//*****************************************************************************
  12:Generated_Source\PSoC4/key_touch_Sensing.c **** * Copyright (2016), Cypress Semiconductor Corporation.
  13:Generated_Source\PSoC4/key_touch_Sensing.c **** ********************************************************************************
  14:Generated_Source\PSoC4/key_touch_Sensing.c **** * This software is owned by Cypress Semiconductor Corporation (Cypress) and is
  15:Generated_Source\PSoC4/key_touch_Sensing.c **** * protected by and subject to worldwide patent protection (United States and
  16:Generated_Source\PSoC4/key_touch_Sensing.c **** * foreign), United States copyright laws and international treaty provisions.
  17:Generated_Source\PSoC4/key_touch_Sensing.c **** * Cypress hereby grants to licensee a personal, non-exclusive, non-transferable
  18:Generated_Source\PSoC4/key_touch_Sensing.c **** * license to copy, use, modify, create derivative works of, and compile the
  19:Generated_Source\PSoC4/key_touch_Sensing.c **** * Cypress Source Code and derivative works for the sole purpose of creating
  20:Generated_Source\PSoC4/key_touch_Sensing.c **** * custom software in support of licensee product to be used only in conjunction
  21:Generated_Source\PSoC4/key_touch_Sensing.c **** * with a Cypress integrated circuit as specified in the applicable agreement.
  22:Generated_Source\PSoC4/key_touch_Sensing.c **** * Any reproduction, modification, translation, compilation, or representation of
  23:Generated_Source\PSoC4/key_touch_Sensing.c **** * this software except as specified above is prohibited without the express
  24:Generated_Source\PSoC4/key_touch_Sensing.c **** * written permission of Cypress.
  25:Generated_Source\PSoC4/key_touch_Sensing.c **** *
  26:Generated_Source\PSoC4/key_touch_Sensing.c **** * Disclaimer: CYPRESS MAKES NO WARRANTY OF ANY KIND, EXPRESS OR IMPLIED, WITH
  27:Generated_Source\PSoC4/key_touch_Sensing.c **** * REGARD TO THIS MATERIAL, INCLUDING, BUT NOT LIMITED TO, THE IMPLIED
  28:Generated_Source\PSoC4/key_touch_Sensing.c **** * WARRANTIES OF MERCHANTABILITY AND FITNESS FOR A PARTICULAR PURPOSE.
  29:Generated_Source\PSoC4/key_touch_Sensing.c **** * Cypress reserves the right to make changes without further notice to the
  30:Generated_Source\PSoC4/key_touch_Sensing.c **** * materials described herein. Cypress does not assume any liability arising out
  31:Generated_Source\PSoC4/key_touch_Sensing.c **** * of the application or use of any product or circuit described herein. Cypress
  32:Generated_Source\PSoC4/key_touch_Sensing.c **** * does not authorize its products for use as critical components in life-support
ARM GAS  C:\Users\Administrator\AppData\Local\Temp\ccPYRpEO.s 			page 2


  33:Generated_Source\PSoC4/key_touch_Sensing.c **** * systems where a malfunction or failure may reasonably be expected to result in
  34:Generated_Source\PSoC4/key_touch_Sensing.c **** * significant injury to the user. The inclusion of Cypress' product in a life-
  35:Generated_Source\PSoC4/key_touch_Sensing.c **** * support systems application implies that the manufacturer assumes all risk of
  36:Generated_Source\PSoC4/key_touch_Sensing.c **** * such use and in doing so indemnifies Cypress against all charges. Use may be
  37:Generated_Source\PSoC4/key_touch_Sensing.c **** * limited by and subject to the applicable Cypress software license agreement.
  38:Generated_Source\PSoC4/key_touch_Sensing.c **** *******************************************************************************/
  39:Generated_Source\PSoC4/key_touch_Sensing.c **** 
  40:Generated_Source\PSoC4/key_touch_Sensing.c **** #include "cyfitter.h"
  41:Generated_Source\PSoC4/key_touch_Sensing.c **** #include "key_touch_Structure.h"
  42:Generated_Source\PSoC4/key_touch_Sensing.c **** #include "key_touch_Configuration.h"
  43:Generated_Source\PSoC4/key_touch_Sensing.c **** #include "key_touch_Sensing.h"
  44:Generated_Source\PSoC4/key_touch_Sensing.c **** #if (key_touch_ENABLE == key_touch_SELF_TEST_EN)
  45:Generated_Source\PSoC4/key_touch_Sensing.c ****     #include "key_touch_SelfTest.h"
  46:Generated_Source\PSoC4/key_touch_Sensing.c **** #endif
  47:Generated_Source\PSoC4/key_touch_Sensing.c **** 
  48:Generated_Source\PSoC4/key_touch_Sensing.c **** /***************************************
  49:Generated_Source\PSoC4/key_touch_Sensing.c **** * API Constants
  50:Generated_Source\PSoC4/key_touch_Sensing.c **** ***************************************/
  51:Generated_Source\PSoC4/key_touch_Sensing.c **** 
  52:Generated_Source\PSoC4/key_touch_Sensing.c **** #define key_touch_WIDGET_NUM_32                          (32u)
  53:Generated_Source\PSoC4/key_touch_Sensing.c **** #define key_touch_WIDGET_NUM_32_DIV_SHIFT                (5u)
  54:Generated_Source\PSoC4/key_touch_Sensing.c **** #define key_touch_WIDGET_NUM_32_MASK                     (0x0000001FLu)
  55:Generated_Source\PSoC4/key_touch_Sensing.c **** #define key_touch_CALIBRATION_RESOLUTION                 (12u)
  56:Generated_Source\PSoC4/key_touch_Sensing.c **** #define key_touch_COARSE_TRIM_THRESHOLD_1                (40u)
  57:Generated_Source\PSoC4/key_touch_Sensing.c **** #define key_touch_COARSE_TRIM_THRESHOLD_2                (215u)
  58:Generated_Source\PSoC4/key_touch_Sensing.c **** #define key_touch_FREQUENCY_OFFSET_5                     (20u)
  59:Generated_Source\PSoC4/key_touch_Sensing.c **** #define key_touch_FREQUENCY_OFFSET_10                    (40u)
  60:Generated_Source\PSoC4/key_touch_Sensing.c **** #define key_touch_CALIBRATION_FREQ_KHZ                   (1500u)
  61:Generated_Source\PSoC4/key_touch_Sensing.c **** #define key_touch_CALIBRATION_MD                         (2u)
  62:Generated_Source\PSoC4/key_touch_Sensing.c **** #define key_touch_MIN_IMO_FREQ_KHZ                       (6000u)
  63:Generated_Source\PSoC4/key_touch_Sensing.c **** #define key_touch_CSD_AUTOTUNE_CAL_LEVEL                 (key_touch_CSD_RAWCOUNT_CAL_LEVEL)
  64:Generated_Source\PSoC4/key_touch_Sensing.c **** #define key_touch_CP_MIN                                 (0u)
  65:Generated_Source\PSoC4/key_touch_Sensing.c **** #define key_touch_CP_MAX                                 (65000Lu)
  66:Generated_Source\PSoC4/key_touch_Sensing.c **** #define key_touch_CP_ERROR                               (4000Lu)
  67:Generated_Source\PSoC4/key_touch_Sensing.c **** #if (key_touch_ENABLE == key_touch_CSD2X_EN)
  68:Generated_Source\PSoC4/key_touch_Sensing.c ****     #define key_touch_TOTAL_SLOTS                        (key_touch_TOTAL_SCAN_SLOTS)
  69:Generated_Source\PSoC4/key_touch_Sensing.c **** #else
  70:Generated_Source\PSoC4/key_touch_Sensing.c ****     #define key_touch_TOTAL_SLOTS                        (key_touch_TOTAL_WIDGETS)
  71:Generated_Source\PSoC4/key_touch_Sensing.c **** #endif /* (key_touch_ENABLE == key_touch_CSD2X_EN) */
  72:Generated_Source\PSoC4/key_touch_Sensing.c **** 
  73:Generated_Source\PSoC4/key_touch_Sensing.c **** #define key_touch_CLK_SOURCE_LFSR_SCALE_OFFSET           (4u)
  74:Generated_Source\PSoC4/key_touch_Sensing.c **** 
  75:Generated_Source\PSoC4/key_touch_Sensing.c **** #if (key_touch_CLK_SOURCE_DIRECT != key_touch_CSD_SNS_CLK_SOURCE)
  76:Generated_Source\PSoC4/key_touch_Sensing.c ****     #if (key_touch_ENABLE == key_touch_CSDV2)
  77:Generated_Source\PSoC4/key_touch_Sensing.c ****         #define key_touch_PRS_FACTOR_DIV                 (2u)
  78:Generated_Source\PSoC4/key_touch_Sensing.c ****     #else
  79:Generated_Source\PSoC4/key_touch_Sensing.c ****         #define key_touch_PRS_FACTOR_DIV                 (1u)
  80:Generated_Source\PSoC4/key_touch_Sensing.c ****     #endif /* (key_touch_ENABLE == key_touch_CSDV2) */
  81:Generated_Source\PSoC4/key_touch_Sensing.c **** #else
  82:Generated_Source\PSoC4/key_touch_Sensing.c ****     #define key_touch_PRS_FACTOR_DIV                     (0u)
  83:Generated_Source\PSoC4/key_touch_Sensing.c **** #endif /* (key_touch_CLK_SOURCE_DIRECT != key_touch_CSD_SNS_CLK_SOURCE) */
  84:Generated_Source\PSoC4/key_touch_Sensing.c **** 
  85:Generated_Source\PSoC4/key_touch_Sensing.c **** #define key_touch_FLIP_FLOP_DIV                          (1u)
  86:Generated_Source\PSoC4/key_touch_Sensing.c **** 
  87:Generated_Source\PSoC4/key_touch_Sensing.c **** #define key_touch_MOD_CSD_CLK_12000KHZ                   (12000uL)
  88:Generated_Source\PSoC4/key_touch_Sensing.c **** #define key_touch_MOD_CSD_CLK_24000KHZ                   (24000uL)
  89:Generated_Source\PSoC4/key_touch_Sensing.c **** #define key_touch_MOD_CSD_CLK_48000KHZ                   (48000uL)
ARM GAS  C:\Users\Administrator\AppData\Local\Temp\ccPYRpEO.s 			page 3


  90:Generated_Source\PSoC4/key_touch_Sensing.c **** 
  91:Generated_Source\PSoC4/key_touch_Sensing.c **** #if ((key_touch_CLK_SOURCE_PRS8 == key_touch_CSD_SNS_CLK_SOURCE) || \
  92:Generated_Source\PSoC4/key_touch_Sensing.c ****     (key_touch_CLK_SOURCE_PRS12 == key_touch_CSD_SNS_CLK_SOURCE) || \
  93:Generated_Source\PSoC4/key_touch_Sensing.c ****     (key_touch_CLK_SOURCE_PRSAUTO == key_touch_CSD_SNS_CLK_SOURCE))
  94:Generated_Source\PSoC4/key_touch_Sensing.c ****     #define key_touch_FACTOR_FILTER_DELAY_12MHZ          (2u)
  95:Generated_Source\PSoC4/key_touch_Sensing.c **** #else
  96:Generated_Source\PSoC4/key_touch_Sensing.c ****     #define key_touch_FACTOR_FILTER_DELAY_12MHZ          (4u)
  97:Generated_Source\PSoC4/key_touch_Sensing.c **** #endif /* (key_touch_CLK_SOURCE_DIRECT != key_touch_CSD_SNS_CLK_SOURCE) */
  98:Generated_Source\PSoC4/key_touch_Sensing.c **** 
  99:Generated_Source\PSoC4/key_touch_Sensing.c **** #define key_touch_FACTOR_MOD_SNS                         (8u)
 100:Generated_Source\PSoC4/key_touch_Sensing.c **** #define key_touch_UINT8_MAX_VAL                          (0xFFu)
 101:Generated_Source\PSoC4/key_touch_Sensing.c **** #define key_touch_MSB_OFFSET                             (8u)
 102:Generated_Source\PSoC4/key_touch_Sensing.c **** 
 103:Generated_Source\PSoC4/key_touch_Sensing.c **** /*****************************************************************************/
 104:Generated_Source\PSoC4/key_touch_Sensing.c **** /* Enumeration types definition                                               */
 105:Generated_Source\PSoC4/key_touch_Sensing.c **** /*****************************************************************************/
 106:Generated_Source\PSoC4/key_touch_Sensing.c **** 
 107:Generated_Source\PSoC4/key_touch_Sensing.c **** typedef enum
 108:Generated_Source\PSoC4/key_touch_Sensing.c **** {
 109:Generated_Source\PSoC4/key_touch_Sensing.c ****     key_touch_RES_PULLUP_E   = 0x02u,
 110:Generated_Source\PSoC4/key_touch_Sensing.c ****     key_touch_RES_PULLDOWN_E = 0x03u
 111:Generated_Source\PSoC4/key_touch_Sensing.c **** } key_touch_PORT_TEST_DM;
 112:Generated_Source\PSoC4/key_touch_Sensing.c **** 
 113:Generated_Source\PSoC4/key_touch_Sensing.c **** typedef enum
 114:Generated_Source\PSoC4/key_touch_Sensing.c **** {
 115:Generated_Source\PSoC4/key_touch_Sensing.c ****     key_touch_STS_RESET      = 0x01u,
 116:Generated_Source\PSoC4/key_touch_Sensing.c ****     key_touch_STS_NO_RESET   = 0x02u
 117:Generated_Source\PSoC4/key_touch_Sensing.c **** } key_touch_TEST_TYPE;
 118:Generated_Source\PSoC4/key_touch_Sensing.c **** 
 119:Generated_Source\PSoC4/key_touch_Sensing.c **** 
 120:Generated_Source\PSoC4/key_touch_Sensing.c **** /*******************************************************************************
 121:Generated_Source\PSoC4/key_touch_Sensing.c **** * Static Function Prototypes
 122:Generated_Source\PSoC4/key_touch_Sensing.c **** *******************************************************************************/
 123:Generated_Source\PSoC4/key_touch_Sensing.c **** /**
 124:Generated_Source\PSoC4/key_touch_Sensing.c **** * \if SECTION_CAPSENSE_INTERNAL
 125:Generated_Source\PSoC4/key_touch_Sensing.c **** * \addtogroup group_capsense_internal
 126:Generated_Source\PSoC4/key_touch_Sensing.c **** * \{
 127:Generated_Source\PSoC4/key_touch_Sensing.c **** */
 128:Generated_Source\PSoC4/key_touch_Sensing.c **** 
 129:Generated_Source\PSoC4/key_touch_Sensing.c **** #if (key_touch_DISABLE == key_touch_CSDV2)
 130:Generated_Source\PSoC4/key_touch_Sensing.c ****     static void key_touch_SsTrimIdacs(void);
 131:Generated_Source\PSoC4/key_touch_Sensing.c ****     #if ((key_touch_ENABLE == key_touch_CSX_EN) || \
 132:Generated_Source\PSoC4/key_touch_Sensing.c ****          (key_touch_IDAC_SINKING == key_touch_CSD_IDAC_CONFIG))
 133:Generated_Source\PSoC4/key_touch_Sensing.c ****         static void key_touch_SsTrimIdacsSinking(void);
 134:Generated_Source\PSoC4/key_touch_Sensing.c ****     #endif /* ((key_touch_ENABLE == key_touch_CSX_EN) || \
 135:Generated_Source\PSoC4/key_touch_Sensing.c ****                (key_touch_IDAC_SINKING == key_touch_CSD_IDAC_CONFIG)) */
 136:Generated_Source\PSoC4/key_touch_Sensing.c ****     #if ((key_touch_ENABLE == key_touch_CSX_EN) || \
 137:Generated_Source\PSoC4/key_touch_Sensing.c ****          (key_touch_IDAC_SOURCING == key_touch_CSD_IDAC_CONFIG))
 138:Generated_Source\PSoC4/key_touch_Sensing.c ****         static void key_touch_SsTrimIdacsSourcing(void);
 139:Generated_Source\PSoC4/key_touch_Sensing.c ****     #endif /* ((key_touch_ENABLE == key_touch_CSX_EN) || \
 140:Generated_Source\PSoC4/key_touch_Sensing.c ****                (key_touch_IDAC_SOURCING == key_touch_CSD_IDAC_CONFIG)) */
 141:Generated_Source\PSoC4/key_touch_Sensing.c **** #endif /* (key_touch_ENABLE == key_touch_CSDV2) */
 142:Generated_Source\PSoC4/key_touch_Sensing.c **** #if ((key_touch_ENABLE == key_touch_CSD_CSX_EN) || \
 143:Generated_Source\PSoC4/key_touch_Sensing.c ****      (key_touch_ENABLE == key_touch_SELF_TEST_EN) || \
 144:Generated_Source\PSoC4/key_touch_Sensing.c ****      (key_touch_ENABLE == key_touch_ADC_EN))
 145:Generated_Source\PSoC4/key_touch_Sensing.c ****     #if (key_touch_ENABLE == key_touch_CSD_EN)
 146:Generated_Source\PSoC4/key_touch_Sensing.c ****         static void key_touch_SsCSDDisableMode(void);
ARM GAS  C:\Users\Administrator\AppData\Local\Temp\ccPYRpEO.s 			page 4


 147:Generated_Source\PSoC4/key_touch_Sensing.c ****     #endif /* (key_touch_ENABLE == key_touch_CSD_EN) */
 148:Generated_Source\PSoC4/key_touch_Sensing.c ****     #if (key_touch_ENABLE == key_touch_CSX_EN)
 149:Generated_Source\PSoC4/key_touch_Sensing.c ****         static void key_touch_SsDisableCSXMode(void);
 150:Generated_Source\PSoC4/key_touch_Sensing.c ****     #endif /* (key_touch_ENABLE == key_touch_CSX_EN) */
 151:Generated_Source\PSoC4/key_touch_Sensing.c **** #endif /* ((key_touch_ENABLE == key_touch_CSD_CSX_EN) || \
 152:Generated_Source\PSoC4/key_touch_Sensing.c ****            (key_touch_ENABLE == key_touch_SELF_TEST_EN) || \
 153:Generated_Source\PSoC4/key_touch_Sensing.c ****            (key_touch_ENABLE == key_touch_ADC_EN)) */
 154:Generated_Source\PSoC4/key_touch_Sensing.c **** #if (key_touch_CSD_SS_DIS != key_touch_CSD_AUTOTUNE)
 155:Generated_Source\PSoC4/key_touch_Sensing.c ****     #if (key_touch_ENABLE == key_touch_CSD2X_EN)
 156:Generated_Source\PSoC4/key_touch_Sensing.c ****         static void key_touch_SsSetCSD0DirectClockMode(void);
 157:Generated_Source\PSoC4/key_touch_Sensing.c ****         static void key_touch_SsSetCSD1DirectClockMode(void);
 158:Generated_Source\PSoC4/key_touch_Sensing.c ****     #else
 159:Generated_Source\PSoC4/key_touch_Sensing.c ****         static void key_touch_SsSetDirectClockMode(void);
 160:Generated_Source\PSoC4/key_touch_Sensing.c ****     #endif /* (key_touch_ENABLE == key_touch_CSD2X_EN) */
 161:Generated_Source\PSoC4/key_touch_Sensing.c **** #endif /* (key_touch_CSD_SS_DIS != key_touch_CSD_AUTOTUNE) */
 162:Generated_Source\PSoC4/key_touch_Sensing.c **** 
 163:Generated_Source\PSoC4/key_touch_Sensing.c **** #if(((key_touch_ENABLE == key_touch_CSX_EN) && \
 164:Generated_Source\PSoC4/key_touch_Sensing.c ****      (key_touch_ENABLE == key_touch_CSDV2) && \
 165:Generated_Source\PSoC4/key_touch_Sensing.c ****      (key_touch_CLK_SOURCE_PRSAUTO == key_touch_CSX_TX_CLK_SOURCE)) ||\
 166:Generated_Source\PSoC4/key_touch_Sensing.c ****     ((key_touch_ENABLE == key_touch_CSD_EN) && \
 167:Generated_Source\PSoC4/key_touch_Sensing.c ****      (key_touch_ENABLE == key_touch_CSDV2) && \
 168:Generated_Source\PSoC4/key_touch_Sensing.c ****      (key_touch_CLK_SOURCE_PRSAUTO == key_touch_CSD_SNS_CLK_SOURCE)))
 169:Generated_Source\PSoC4/key_touch_Sensing.c ****     static CY_INLINE uint8 key_touch_SsCalcLfsrSize(uint32 snsClkDivider, uint32 conversionsNum);
 170:Generated_Source\PSoC4/key_touch_Sensing.c ****     static CY_INLINE uint8 key_touch_SsCalcLfsrScale(uint32 snsClkDivider, uint8 lfsrSize);
 171:Generated_Source\PSoC4/key_touch_Sensing.c **** #endif /* (((key_touch_ENABLE == key_touch_CSX_EN) && \
 172:Generated_Source\PSoC4/key_touch_Sensing.c ****             (key_touch_ENABLE == key_touch_CSDV2) && \
 173:Generated_Source\PSoC4/key_touch_Sensing.c ****             (key_touch_CLK_SOURCE_PRSAUTO == key_touch_CSX_TX_CLK_SOURCE)) ||\
 174:Generated_Source\PSoC4/key_touch_Sensing.c ****            ((key_touch_ENABLE == key_touch_CSD_EN) && \
 175:Generated_Source\PSoC4/key_touch_Sensing.c ****             (key_touch_ENABLE == key_touch_CSDV2) && \
 176:Generated_Source\PSoC4/key_touch_Sensing.c ****             (key_touch_CLK_SOURCE_PRSAUTO == key_touch_CSD_SNS_CLK_SOURCE))) */
 177:Generated_Source\PSoC4/key_touch_Sensing.c **** #if ((key_touch_CSD_SS_DIS != key_touch_CSD_AUTOTUNE) && \
 178:Generated_Source\PSoC4/key_touch_Sensing.c ****     (key_touch_ENABLE == key_touch_CSD2X_EN))
 179:Generated_Source\PSoC4/key_touch_Sensing.c ****     static void key_touch_SsSetEqualSlotClock(void);
 180:Generated_Source\PSoC4/key_touch_Sensing.c **** #endif /* ((key_touch_CSD_SS_DIS != key_touch_CSD_AUTOTUNE) \
 181:Generated_Source\PSoC4/key_touch_Sensing.c ****            (key_touch_ENABLE == key_touch_CSD2X_EN)) */
 182:Generated_Source\PSoC4/key_touch_Sensing.c **** #if ((key_touch_ENABLE == key_touch_CSD_EN) || (key_touch_ENABLE == key_touch_CSD2X_EN))
 183:Generated_Source\PSoC4/key_touch_Sensing.c ****     static void key_touch_SsSetWidgetSenseClkSrc(uint32 wdgtIndex, key_touch_RAM_WD_BASE_STRUCT * p
 184:Generated_Source\PSoC4/key_touch_Sensing.c **** #endif /* ((key_touch_ENABLE == key_touch_CSD_EN) || (key_touch_ENABLE == key_touch_CSD2X_EN)) */
 185:Generated_Source\PSoC4/key_touch_Sensing.c **** 
 186:Generated_Source\PSoC4/key_touch_Sensing.c **** #if ((key_touch_ENABLE == key_touch_CSX_EN) && (key_touch_ENABLE == key_touch_CSDV2))
 187:Generated_Source\PSoC4/key_touch_Sensing.c ****     static void key_touch_SsSetWidgetTxClkSrc(uint32 wdgtIndex, key_touch_RAM_WD_BASE_STRUCT * ptrW
 188:Generated_Source\PSoC4/key_touch_Sensing.c **** #endif /* ((key_touch_ENABLE == key_touch_CSX_EN) && (key_touch_ENABLE == key_touch_CSDV2)) */
 189:Generated_Source\PSoC4/key_touch_Sensing.c **** 
 190:Generated_Source\PSoC4/key_touch_Sensing.c **** /** \}
 191:Generated_Source\PSoC4/key_touch_Sensing.c **** * \endif */
 192:Generated_Source\PSoC4/key_touch_Sensing.c **** 
 193:Generated_Source\PSoC4/key_touch_Sensing.c **** /*******************************************************************************
 194:Generated_Source\PSoC4/key_touch_Sensing.c **** * Define module variables
 195:Generated_Source\PSoC4/key_touch_Sensing.c **** *******************************************************************************/
 196:Generated_Source\PSoC4/key_touch_Sensing.c **** 
 197:Generated_Source\PSoC4/key_touch_Sensing.c **** #if ((key_touch_ENABLE == key_touch_CSD_CSX_EN) || \
 198:Generated_Source\PSoC4/key_touch_Sensing.c ****      (key_touch_ENABLE == key_touch_SELF_TEST_EN) || \
 199:Generated_Source\PSoC4/key_touch_Sensing.c ****      (key_touch_ENABLE == key_touch_ADC_EN))
 200:Generated_Source\PSoC4/key_touch_Sensing.c ****     key_touch_SENSE_METHOD_ENUM key_touch_currentSenseMethod = key_touch_UNDEFINED_E;
 201:Generated_Source\PSoC4/key_touch_Sensing.c **** #endif /* ((key_touch_ENABLE == key_touch_CSD_CSX_EN) || \
 202:Generated_Source\PSoC4/key_touch_Sensing.c ****            (key_touch_ENABLE == key_touch_SELF_TEST_EN) || \
 203:Generated_Source\PSoC4/key_touch_Sensing.c ****            (key_touch_ENABLE == key_touch_ADC_EN))) */
ARM GAS  C:\Users\Administrator\AppData\Local\Temp\ccPYRpEO.s 			page 5


 204:Generated_Source\PSoC4/key_touch_Sensing.c **** 
 205:Generated_Source\PSoC4/key_touch_Sensing.c **** #if(key_touch_ENABLE == key_touch_MULTI_FREQ_SCAN_EN)
 206:Generated_Source\PSoC4/key_touch_Sensing.c ****     /*  Module variable keep track of frequency hopping channel index   */
 207:Generated_Source\PSoC4/key_touch_Sensing.c ****     uint8 key_touch_scanFreqIndex = 0u;
 208:Generated_Source\PSoC4/key_touch_Sensing.c ****     /*  Variable keep frequency offsets */
 209:Generated_Source\PSoC4/key_touch_Sensing.c ****     uint8 key_touch_immunity[key_touch_NUM_SCAN_FREQS] = {0u, 0u, 0u};
 210:Generated_Source\PSoC4/key_touch_Sensing.c **** #else
 211:Generated_Source\PSoC4/key_touch_Sensing.c ****     /* const allows C-compiler to do optimization */
 212:Generated_Source\PSoC4/key_touch_Sensing.c ****     const uint8 key_touch_scanFreqIndex = 0u;
 213:Generated_Source\PSoC4/key_touch_Sensing.c **** #endif /* (key_touch_ENABLE == key_touch_MULTI_FREQ_SCAN_EN) */
 214:Generated_Source\PSoC4/key_touch_Sensing.c **** 
 215:Generated_Source\PSoC4/key_touch_Sensing.c **** /* Global software variables */
 216:Generated_Source\PSoC4/key_touch_Sensing.c **** #if (key_touch_ENABLE == key_touch_CSD2X_EN)
 217:Generated_Source\PSoC4/key_touch_Sensing.c ****     volatile uint8 key_touch_widgetIndex0 = 0u;    /* Index of the scanning widget0 */
 218:Generated_Source\PSoC4/key_touch_Sensing.c ****     volatile uint8 key_touch_sensorIndex0 = 0u;    /* Index of the scanning sensor0 */
 219:Generated_Source\PSoC4/key_touch_Sensing.c ****     volatile uint8 key_touch_widgetIndex1 = 0u;    /* Index of the scanning widget1 */
 220:Generated_Source\PSoC4/key_touch_Sensing.c ****     volatile uint8 key_touch_sensorIndex1 = 0u;    /* Index of the scanning sensor1 */
 221:Generated_Source\PSoC4/key_touch_Sensing.c **** #else
 222:Generated_Source\PSoC4/key_touch_Sensing.c ****     volatile uint8 key_touch_widgetIndex = 0u;    /* Index of the scanning widget */
 223:Generated_Source\PSoC4/key_touch_Sensing.c ****     volatile uint8 key_touch_sensorIndex = 0u;    /* Index of the scanning sensor */
 224:Generated_Source\PSoC4/key_touch_Sensing.c **** #endif /* (key_touch_ENABLE == key_touch_CSD2X_EN) */
 225:Generated_Source\PSoC4/key_touch_Sensing.c **** uint8 key_touch_requestScanAllWidget = 0u;
 226:Generated_Source\PSoC4/key_touch_Sensing.c **** #if (key_touch_CSD_SS_DIS != key_touch_CSD_AUTOTUNE)
 227:Generated_Source\PSoC4/key_touch_Sensing.c ****     uint8 key_touch_prescalersTuningDone = 0u;
 228:Generated_Source\PSoC4/key_touch_Sensing.c **** #endif /* (key_touch_CSD_SS_DIS != key_touch_CSD_AUTOTUNE) */
 229:Generated_Source\PSoC4/key_touch_Sensing.c **** 
 230:Generated_Source\PSoC4/key_touch_Sensing.c **** /* Pointer to RAM_SNS_STRUCT structure  */
 231:Generated_Source\PSoC4/key_touch_Sensing.c **** #if (key_touch_ENABLE == key_touch_CSD2X_EN)
 232:Generated_Source\PSoC4/key_touch_Sensing.c ****     key_touch_RAM_SNS_STRUCT *key_touch_curRamSnsPtr0;
 233:Generated_Source\PSoC4/key_touch_Sensing.c ****     key_touch_RAM_SNS_STRUCT *key_touch_curRamSnsPtr1;
 234:Generated_Source\PSoC4/key_touch_Sensing.c **** #else
 235:Generated_Source\PSoC4/key_touch_Sensing.c ****     key_touch_RAM_SNS_STRUCT *key_touch_curRamSnsPtr;
 236:Generated_Source\PSoC4/key_touch_Sensing.c **** #endif /* (key_touch_ENABLE == key_touch_CSD2X_EN) */
 237:Generated_Source\PSoC4/key_touch_Sensing.c **** 
 238:Generated_Source\PSoC4/key_touch_Sensing.c **** #if ((key_touch_ENABLE == key_touch_CSD_GANGED_SNS_EN) || \
 239:Generated_Source\PSoC4/key_touch_Sensing.c ****      (key_touch_ENABLE == key_touch_CSX_EN))
 240:Generated_Source\PSoC4/key_touch_Sensing.c ****     /*  Pointer to Flash structure holding configuration of widget to be scanned  */
 241:Generated_Source\PSoC4/key_touch_Sensing.c ****     #if (key_touch_ENABLE == key_touch_CSD2X_EN)
 242:Generated_Source\PSoC4/key_touch_Sensing.c ****          key_touch_FLASH_WD_STRUCT const *key_touch_curFlashWdgtPtr0 = 0u;
 243:Generated_Source\PSoC4/key_touch_Sensing.c ****          key_touch_FLASH_WD_STRUCT const *key_touch_curFlashWdgtPtr1 = 0u;
 244:Generated_Source\PSoC4/key_touch_Sensing.c ****     #else
 245:Generated_Source\PSoC4/key_touch_Sensing.c ****          key_touch_FLASH_WD_STRUCT const *key_touch_curFlashWdgtPtr = 0u;
 246:Generated_Source\PSoC4/key_touch_Sensing.c ****     #endif /* (key_touch_ENABLE == key_touch_CSD2X_EN) */
 247:Generated_Source\PSoC4/key_touch_Sensing.c **** #endif /* ((key_touch_ENABLE == key_touch_CSD_GANGED_SNS_EN) || \
 248:Generated_Source\PSoC4/key_touch_Sensing.c ****            (key_touch_ENABLE == key_touch_CSX_EN))  */
 249:Generated_Source\PSoC4/key_touch_Sensing.c **** #if (key_touch_ENABLE == key_touch_CSD_GANGED_SNS_EN)
 250:Generated_Source\PSoC4/key_touch_Sensing.c ****     /*  Pointer to Flash structure holding info of sensor to be scanned  */
 251:Generated_Source\PSoC4/key_touch_Sensing.c ****     #if (key_touch_ENABLE == key_touch_CSD2X_EN)
 252:Generated_Source\PSoC4/key_touch_Sensing.c ****         key_touch_FLASH_SNS_STRUCT const *key_touch_curFlashSnsPtr0 = 0u;
 253:Generated_Source\PSoC4/key_touch_Sensing.c ****         key_touch_FLASH_SNS_STRUCT const *key_touch_curFlashSnsPtr1 = 0u;
 254:Generated_Source\PSoC4/key_touch_Sensing.c ****     #else
 255:Generated_Source\PSoC4/key_touch_Sensing.c ****         key_touch_FLASH_SNS_STRUCT const *key_touch_curFlashSnsPtr = 0u;
 256:Generated_Source\PSoC4/key_touch_Sensing.c ****     #endif /* (key_touch_ENABLE == key_touch_CSD2X_EN) */
 257:Generated_Source\PSoC4/key_touch_Sensing.c **** #endif /* (key_touch_ENABLE == key_touch_CSD_GANGED_SNS_EN) */
 258:Generated_Source\PSoC4/key_touch_Sensing.c **** /*  Pointer to Flash structure to hold Sns electrode that was connected previously  */
 259:Generated_Source\PSoC4/key_touch_Sensing.c **** #if (key_touch_ENABLE == key_touch_CSD2X_EN)
 260:Generated_Source\PSoC4/key_touch_Sensing.c ****     key_touch_FLASH_IO_STRUCT const *key_touch_curSnsIOPtr0;
ARM GAS  C:\Users\Administrator\AppData\Local\Temp\ccPYRpEO.s 			page 6


 261:Generated_Source\PSoC4/key_touch_Sensing.c ****     key_touch_FLASH_IO_STRUCT const *key_touch_curSnsIOPtr1;
 262:Generated_Source\PSoC4/key_touch_Sensing.c **** #else
 263:Generated_Source\PSoC4/key_touch_Sensing.c ****     key_touch_FLASH_IO_STRUCT const *key_touch_curSnsIOPtr;
 264:Generated_Source\PSoC4/key_touch_Sensing.c **** #endif /* (key_touch_ENABLE == key_touch_CSD2X_EN) */
 265:Generated_Source\PSoC4/key_touch_Sensing.c **** 
 266:Generated_Source\PSoC4/key_touch_Sensing.c **** /*******************************************************************************
 267:Generated_Source\PSoC4/key_touch_Sensing.c **** * Function Name: key_touch_IsBusy
 268:Generated_Source\PSoC4/key_touch_Sensing.c **** ****************************************************************************//**
 269:Generated_Source\PSoC4/key_touch_Sensing.c **** *
 270:Generated_Source\PSoC4/key_touch_Sensing.c **** * \brief
 271:Generated_Source\PSoC4/key_touch_Sensing.c **** *  Returns the current status of the component (scan completed or scan in
 272:Generated_Source\PSoC4/key_touch_Sensing.c **** *  progress).
 273:Generated_Source\PSoC4/key_touch_Sensing.c **** *
 274:Generated_Source\PSoC4/key_touch_Sensing.c **** * \details
 275:Generated_Source\PSoC4/key_touch_Sensing.c **** *  This function returns the status of the hardware block whether a scan is
 276:Generated_Source\PSoC4/key_touch_Sensing.c **** *  currently in progress or not. If the component is busy, no new scan or setup
 277:Generated_Source\PSoC4/key_touch_Sensing.c **** *  widgets should be made. It is recommended using the critical section (i.e.
 278:Generated_Source\PSoC4/key_touch_Sensing.c **** *  disable global interrupt) in the application when the device transitions from
 279:Generated_Source\PSoC4/key_touch_Sensing.c **** *  the active mode to sleep or deep sleep mode.
 280:Generated_Source\PSoC4/key_touch_Sensing.c **** *
 281:Generated_Source\PSoC4/key_touch_Sensing.c **** * \return
 282:Generated_Source\PSoC4/key_touch_Sensing.c **** *  Returns the current status of the component:
 283:Generated_Source\PSoC4/key_touch_Sensing.c **** *    - key_touch_NOT_BUSY if there is no scan in progress and a next scan
 284:Generated_Source\PSoC4/key_touch_Sensing.c **** *      can be initiated.
 285:Generated_Source\PSoC4/key_touch_Sensing.c **** *    - key_touch_SW_STS_BUSY if the previous scanning is not completed
 286:Generated_Source\PSoC4/key_touch_Sensing.c **** *      and the hardware block is busy.
 287:Generated_Source\PSoC4/key_touch_Sensing.c **** *
 288:Generated_Source\PSoC4/key_touch_Sensing.c **** *******************************************************************************/
 289:Generated_Source\PSoC4/key_touch_Sensing.c **** uint32 key_touch_IsBusy(void)
 290:Generated_Source\PSoC4/key_touch_Sensing.c **** {
  26              		.loc 1 290 0
  27              		.cfi_startproc
 291:Generated_Source\PSoC4/key_touch_Sensing.c ****     return ((*(volatile uint32 *)&key_touch_dsRam.status) & key_touch_SW_STS_BUSY);
  28              		.loc 1 291 0
  29 0000 024B     		ldr	r3, .L2
  30 0002 9B68     		ldr	r3, [r3, #8]
  31 0004 8020     		mov	r0, #128
  32 0006 1840     		and	r0, r3
 292:Generated_Source\PSoC4/key_touch_Sensing.c **** }
  33              		.loc 1 292 0
  34              		@ sp needed
  35 0008 7047     		bx	lr
  36              	.L3:
  37 000a C046     		.align	2
  38              	.L2:
  39 000c 00000000 		.word	key_touch_dsRam
  40              		.cfi_endproc
  41              	.LFE1:
  42              		.size	key_touch_IsBusy, .-key_touch_IsBusy
  43              		.section	.text.key_touch_SetupWidget,"ax",%progbits
  44              		.align	2
  45              		.global	key_touch_SetupWidget
  46              		.code	16
  47              		.thumb_func
  48              		.type	key_touch_SetupWidget, %function
  49              	key_touch_SetupWidget:
  50              	.LFB2:
ARM GAS  C:\Users\Administrator\AppData\Local\Temp\ccPYRpEO.s 			page 7


 293:Generated_Source\PSoC4/key_touch_Sensing.c **** 
 294:Generated_Source\PSoC4/key_touch_Sensing.c **** /*******************************************************************************
 295:Generated_Source\PSoC4/key_touch_Sensing.c **** * Function Name: key_touch_SetupWidget
 296:Generated_Source\PSoC4/key_touch_Sensing.c **** ****************************************************************************//**
 297:Generated_Source\PSoC4/key_touch_Sensing.c **** *
 298:Generated_Source\PSoC4/key_touch_Sensing.c **** * \brief
 299:Generated_Source\PSoC4/key_touch_Sensing.c **** *  Performs the initialization required to scan the specified widget.
 300:Generated_Source\PSoC4/key_touch_Sensing.c **** *
 301:Generated_Source\PSoC4/key_touch_Sensing.c **** * \details
 302:Generated_Source\PSoC4/key_touch_Sensing.c **** *  This function prepares the component to scan all sensors in the specified
 303:Generated_Source\PSoC4/key_touch_Sensing.c **** *  widget, by executing the following tasks.
 304:Generated_Source\PSoC4/key_touch_Sensing.c **** *    1. Re-initialize the hardware if it is not configured to perform the
 305:Generated_Source\PSoC4/key_touch_Sensing.c **** *       sensing method used by the specified widget, this happens only if the
 306:Generated_Source\PSoC4/key_touch_Sensing.c **** *       CSD and CSX methods are used in the component.
 307:Generated_Source\PSoC4/key_touch_Sensing.c **** *    2. Initialize the hardware with specific sensing configuration (e.g.
 308:Generated_Source\PSoC4/key_touch_Sensing.c **** *       sensor clock, scan resolution) used by the widget.
 309:Generated_Source\PSoC4/key_touch_Sensing.c **** *    3. Disconnect all previously connected electrodes, if the electrodes
 310:Generated_Source\PSoC4/key_touch_Sensing.c **** *       connected by the key_touch_CSDSetupWidgetExt(),
 311:Generated_Source\PSoC4/key_touch_Sensing.c **** *       key_touch_CSXSetupWidgetExt() or key_touch_CSDConnectSns()
 312:Generated_Source\PSoC4/key_touch_Sensing.c **** *       functions and not disconnected.
 313:Generated_Source\PSoC4/key_touch_Sensing.c **** *
 314:Generated_Source\PSoC4/key_touch_Sensing.c **** *  This function does not start sensor scanning, the key_touch_Scan()
 315:Generated_Source\PSoC4/key_touch_Sensing.c **** *  function must be called to start the scan sensors in the widget. If this
 316:Generated_Source\PSoC4/key_touch_Sensing.c **** *  function is called more than once, it does not break the component operation,
 317:Generated_Source\PSoC4/key_touch_Sensing.c **** *  but only the last initialized widget is in effect.
 318:Generated_Source\PSoC4/key_touch_Sensing.c **** 
 319:Generated_Source\PSoC4/key_touch_Sensing.c **** *
 320:Generated_Source\PSoC4/key_touch_Sensing.c **** * \param wdgtIndex
 321:Generated_Source\PSoC4/key_touch_Sensing.c **** *  Specify the ID number of the widget to be initialized for scanning.
 322:Generated_Source\PSoC4/key_touch_Sensing.c **** *  A macro for the widget ID can be found in the
 323:Generated_Source\PSoC4/key_touch_Sensing.c **** *  key_touch Configuration header file defined as
 324:Generated_Source\PSoC4/key_touch_Sensing.c **** *  key_touch_<WidgetName>_WDGT_ID
 325:Generated_Source\PSoC4/key_touch_Sensing.c **** *
 326:Generated_Source\PSoC4/key_touch_Sensing.c **** * \return
 327:Generated_Source\PSoC4/key_touch_Sensing.c **** *  Returns the status of the widget setting up operation:
 328:Generated_Source\PSoC4/key_touch_Sensing.c **** *    - CYRET_SUCCESS if the operation is successfully completed.
 329:Generated_Source\PSoC4/key_touch_Sensing.c **** *    - CYRET_BAD_PARAM if the widget is invalid or if the specified widget is
 330:Generated_Source\PSoC4/key_touch_Sensing.c **** *      disabled
 331:Generated_Source\PSoC4/key_touch_Sensing.c **** *    - CYRET_INVALID_STATE if the previous scanning is not completed and the
 332:Generated_Source\PSoC4/key_touch_Sensing.c **** *      hardware block is busy.
 333:Generated_Source\PSoC4/key_touch_Sensing.c **** *    - CYRET_UNKNOWN if an unknown sensing method is used by the widget or
 334:Generated_Source\PSoC4/key_touch_Sensing.c **** *      other spurious errors.
 335:Generated_Source\PSoC4/key_touch_Sensing.c **** *
 336:Generated_Source\PSoC4/key_touch_Sensing.c **** **********************************************************************************/
 337:Generated_Source\PSoC4/key_touch_Sensing.c **** cystatus key_touch_SetupWidget(uint32 wdgtIndex)
 338:Generated_Source\PSoC4/key_touch_Sensing.c **** {
  51              		.loc 1 338 0
  52              		.cfi_startproc
  53              	.LVL0:
  54 0000 10B5     		push	{r4, lr}
  55              		.cfi_def_cfa_offset 8
  56              		.cfi_offset 4, -8
  57              		.cfi_offset 14, -4
 339:Generated_Source\PSoC4/key_touch_Sensing.c ****     cystatus widgetStatus;
 340:Generated_Source\PSoC4/key_touch_Sensing.c **** 
 341:Generated_Source\PSoC4/key_touch_Sensing.c ****     if (key_touch_WDGT_SW_STS_BUSY == (key_touch_dsRam.status & key_touch_WDGT_SW_STS_BUSY))
  58              		.loc 1 341 0
ARM GAS  C:\Users\Administrator\AppData\Local\Temp\ccPYRpEO.s 			page 8


  59 0002 0F4B     		ldr	r3, .L10
  60 0004 9B68     		ldr	r3, [r3, #8]
  61 0006 DB03     		lsl	r3, r3, #15
  62 0008 0FD4     		bmi	.L7
 342:Generated_Source\PSoC4/key_touch_Sensing.c ****     {
 343:Generated_Source\PSoC4/key_touch_Sensing.c ****         /* Previous widget is being scanned. Return error. */
 344:Generated_Source\PSoC4/key_touch_Sensing.c ****         widgetStatus = CYRET_INVALID_STATE;
 345:Generated_Source\PSoC4/key_touch_Sensing.c ****     }
 346:Generated_Source\PSoC4/key_touch_Sensing.c ****     /*
 347:Generated_Source\PSoC4/key_touch_Sensing.c ****      *  Check if widget id is valid, specified widget is enabled and widget did not
 348:Generated_Source\PSoC4/key_touch_Sensing.c ****      *  detect any fault conditions if BIST is enabled. If all conditions are met,
 349:Generated_Source\PSoC4/key_touch_Sensing.c ****      *  set widgetStatus as good, if not, set widgetStatus as bad.
 350:Generated_Source\PSoC4/key_touch_Sensing.c ****      */
 351:Generated_Source\PSoC4/key_touch_Sensing.c ****     else if ((key_touch_TOTAL_SLOTS > wdgtIndex) &&
  63              		.loc 1 351 0
  64 000a 0B28     		cmp	r0, #11
  65 000c 0FD8     		bhi	.L8
 352:Generated_Source\PSoC4/key_touch_Sensing.c ****         (0uL != key_touch_GET_WIDGET_EN_STATUS(wdgtIndex)))
  66              		.loc 1 352 0 discriminator 1
  67 000e 4309     		lsr	r3, r0, #5
  68 0010 0233     		add	r3, r3, #2
  69 0012 9B00     		lsl	r3, r3, #2
  70 0014 0A4A     		ldr	r2, .L10
  71 0016 D318     		add	r3, r2, r3
  72 0018 5A68     		ldr	r2, [r3, #4]
  73 001a 1F23     		mov	r3, #31
  74 001c 0340     		and	r3, r0
  75 001e DA40     		lsr	r2, r2, r3
  76 0020 131C     		mov	r3, r2
 351:Generated_Source\PSoC4/key_touch_Sensing.c ****         (0uL != key_touch_GET_WIDGET_EN_STATUS(wdgtIndex)))
  77              		.loc 1 351 0 discriminator 1
  78 0022 DB07     		lsl	r3, r3, #31
  79 0024 05D4     		bmi	.L9
 353:Generated_Source\PSoC4/key_touch_Sensing.c **** 
 354:Generated_Source\PSoC4/key_touch_Sensing.c ****     {
 355:Generated_Source\PSoC4/key_touch_Sensing.c ****         widgetStatus = CYRET_SUCCESS;
 356:Generated_Source\PSoC4/key_touch_Sensing.c ****     }
 357:Generated_Source\PSoC4/key_touch_Sensing.c ****     else
 358:Generated_Source\PSoC4/key_touch_Sensing.c ****     {
 359:Generated_Source\PSoC4/key_touch_Sensing.c ****         widgetStatus = CYRET_BAD_PARAM;
  80              		.loc 1 359 0
  81 0026 0124     		mov	r4, #1
  82 0028 04E0     		b	.L5
  83              	.L7:
 344:Generated_Source\PSoC4/key_touch_Sensing.c ****     }
  84              		.loc 1 344 0
  85 002a 1124     		mov	r4, #17
  86 002c 02E0     		b	.L5
  87              	.L8:
  88              		.loc 1 359 0
  89 002e 0124     		mov	r4, #1
  90 0030 00E0     		b	.L5
  91              	.L9:
 355:Generated_Source\PSoC4/key_touch_Sensing.c ****     }
  92              		.loc 1 355 0
  93 0032 0024     		mov	r4, #0
  94              	.L5:
ARM GAS  C:\Users\Administrator\AppData\Local\Temp\ccPYRpEO.s 			page 9


  95              	.LVL1:
 360:Generated_Source\PSoC4/key_touch_Sensing.c ****     }
 361:Generated_Source\PSoC4/key_touch_Sensing.c **** 
 362:Generated_Source\PSoC4/key_touch_Sensing.c ****     /*
 363:Generated_Source\PSoC4/key_touch_Sensing.c ****      * Check widgetStatus flag that is set earlier, if flag is good, then set up only
 364:Generated_Source\PSoC4/key_touch_Sensing.c ****      * widget
 365:Generated_Source\PSoC4/key_touch_Sensing.c ****      */
 366:Generated_Source\PSoC4/key_touch_Sensing.c ****     if (CYRET_SUCCESS == widgetStatus)
  96              		.loc 1 366 0
  97 0034 002C     		cmp	r4, #0
  98 0036 01D1     		bne	.L6
 367:Generated_Source\PSoC4/key_touch_Sensing.c ****     {
 368:Generated_Source\PSoC4/key_touch_Sensing.c ****         /*  Check if CSD2X is enabled   */
 369:Generated_Source\PSoC4/key_touch_Sensing.c ****         #if (key_touch_ENABLE == key_touch_CSD2X_EN)
 370:Generated_Source\PSoC4/key_touch_Sensing.c **** 
 371:Generated_Source\PSoC4/key_touch_Sensing.c ****             widgetStatus = key_touch_SetupWidget2x(wdgtIndex);
 372:Generated_Source\PSoC4/key_touch_Sensing.c **** 
 373:Generated_Source\PSoC4/key_touch_Sensing.c ****         #elif (key_touch_ENABLE == key_touch_CSD_CSX_EN)
 374:Generated_Source\PSoC4/key_touch_Sensing.c ****             /*  Check widget sensing method is CSX and call CSX APIs    */
 375:Generated_Source\PSoC4/key_touch_Sensing.c ****             if (key_touch_SENSE_METHOD_CSX_E ==
 376:Generated_Source\PSoC4/key_touch_Sensing.c ****                 key_touch_GET_SENSE_METHOD(&key_touch_dsFlash.wdgtArray[wdgtIndex]))
 377:Generated_Source\PSoC4/key_touch_Sensing.c ****             {
 378:Generated_Source\PSoC4/key_touch_Sensing.c ****                 /*  Set up widget for CSX scan  */
 379:Generated_Source\PSoC4/key_touch_Sensing.c ****                 key_touch_CSXSetupWidget(wdgtIndex);
 380:Generated_Source\PSoC4/key_touch_Sensing.c ****             }
 381:Generated_Source\PSoC4/key_touch_Sensing.c ****             /*  Check widget sensing method is CSD and call appropriate API */
 382:Generated_Source\PSoC4/key_touch_Sensing.c ****             else if (key_touch_SENSE_METHOD_CSD_E ==
 383:Generated_Source\PSoC4/key_touch_Sensing.c ****                      key_touch_GET_SENSE_METHOD(&key_touch_dsFlash.wdgtArray[wdgtIndex]))
 384:Generated_Source\PSoC4/key_touch_Sensing.c ****             {
 385:Generated_Source\PSoC4/key_touch_Sensing.c ****                 /*  Set up widget for CSD scan  */
 386:Generated_Source\PSoC4/key_touch_Sensing.c ****                 key_touch_CSDSetupWidget(wdgtIndex);
 387:Generated_Source\PSoC4/key_touch_Sensing.c ****             }
 388:Generated_Source\PSoC4/key_touch_Sensing.c ****             else
 389:Generated_Source\PSoC4/key_touch_Sensing.c ****             {
 390:Generated_Source\PSoC4/key_touch_Sensing.c ****                 /*  Sensing method is invalid, return error to caller  */
 391:Generated_Source\PSoC4/key_touch_Sensing.c ****                 widgetStatus = CYRET_UNKNOWN;
 392:Generated_Source\PSoC4/key_touch_Sensing.c ****             }
 393:Generated_Source\PSoC4/key_touch_Sensing.c ****         #elif (key_touch_ENABLE == key_touch_CSD_EN)
 394:Generated_Source\PSoC4/key_touch_Sensing.c ****             /*  Set up widget for scan */
 395:Generated_Source\PSoC4/key_touch_Sensing.c ****             key_touch_CSDSetupWidget(wdgtIndex);
  99              		.loc 1 395 0
 100 0038 FFF7FEFF 		bl	key_touch_CSDSetupWidget
 101              	.LVL2:
 102              	.L6:
 396:Generated_Source\PSoC4/key_touch_Sensing.c ****         #elif (key_touch_ENABLE == key_touch_CSX_EN)
 397:Generated_Source\PSoC4/key_touch_Sensing.c ****             /*  Set up widgets for scan     */
 398:Generated_Source\PSoC4/key_touch_Sensing.c ****             key_touch_CSXSetupWidget(wdgtIndex);
 399:Generated_Source\PSoC4/key_touch_Sensing.c ****         #else
 400:Generated_Source\PSoC4/key_touch_Sensing.c ****             widgetStatus = CYRET_UNKNOWN;
 401:Generated_Source\PSoC4/key_touch_Sensing.c ****             #error "No sensing method enabled, component cannot work in this mode"
 402:Generated_Source\PSoC4/key_touch_Sensing.c ****         #endif  /* (key_touch_ENABLE == key_touch_CSD2X_EN) */
 403:Generated_Source\PSoC4/key_touch_Sensing.c ****     }
 404:Generated_Source\PSoC4/key_touch_Sensing.c **** 
 405:Generated_Source\PSoC4/key_touch_Sensing.c ****     return (widgetStatus);
 406:Generated_Source\PSoC4/key_touch_Sensing.c **** }
 103              		.loc 1 406 0
 104 003c 201C     		mov	r0, r4
ARM GAS  C:\Users\Administrator\AppData\Local\Temp\ccPYRpEO.s 			page 10


 105              		@ sp needed
 106              	.LVL3:
 107 003e 10BD     		pop	{r4, pc}
 108              	.L11:
 109              		.align	2
 110              	.L10:
 111 0040 00000000 		.word	key_touch_dsRam
 112              		.cfi_endproc
 113              	.LFE2:
 114              		.size	key_touch_SetupWidget, .-key_touch_SetupWidget
 115              		.section	.text.key_touch_Scan,"ax",%progbits
 116              		.align	2
 117              		.global	key_touch_Scan
 118              		.code	16
 119              		.thumb_func
 120              		.type	key_touch_Scan, %function
 121              	key_touch_Scan:
 122              	.LFB3:
 407:Generated_Source\PSoC4/key_touch_Sensing.c **** 
 408:Generated_Source\PSoC4/key_touch_Sensing.c **** 
 409:Generated_Source\PSoC4/key_touch_Sensing.c **** /*******************************************************************************
 410:Generated_Source\PSoC4/key_touch_Sensing.c **** * Function Name: key_touch_Scan
 411:Generated_Source\PSoC4/key_touch_Sensing.c **** ****************************************************************************//**
 412:Generated_Source\PSoC4/key_touch_Sensing.c **** *
 413:Generated_Source\PSoC4/key_touch_Sensing.c **** * \brief
 414:Generated_Source\PSoC4/key_touch_Sensing.c **** *  Initiates scan of all sensors in the widget which is initialized by
 415:Generated_Source\PSoC4/key_touch_Sensing.c **** *  key_touch_SetupWidget(), if the no scan is in progress.
 416:Generated_Source\PSoC4/key_touch_Sensing.c **** *
 417:Generated_Source\PSoC4/key_touch_Sensing.c **** * \details
 418:Generated_Source\PSoC4/key_touch_Sensing.c **** *  This function should be called only after the key_touch_SetupWidget()
 419:Generated_Source\PSoC4/key_touch_Sensing.c **** *  function is called to start the scanning of the sensors in the widget. The
 420:Generated_Source\PSoC4/key_touch_Sensing.c **** *  status of a sensor scan must be checked using the key_touch_IsBusy()
 421:Generated_Source\PSoC4/key_touch_Sensing.c **** *  API prior to starting a next scan or setting up another widget.
 422:Generated_Source\PSoC4/key_touch_Sensing.c **** *
 423:Generated_Source\PSoC4/key_touch_Sensing.c **** * \return
 424:Generated_Source\PSoC4/key_touch_Sensing.c **** *  Returns the status of the scan initiation operation:
 425:Generated_Source\PSoC4/key_touch_Sensing.c **** *    - CYRET_SUCCESS if scanning is successfully started.
 426:Generated_Source\PSoC4/key_touch_Sensing.c **** *    - CYRET_INVALID_STATE if the previous scanning is not completed and the
 427:Generated_Source\PSoC4/key_touch_Sensing.c **** *      hardware block is busy.
 428:Generated_Source\PSoC4/key_touch_Sensing.c **** *    - CYRET_UNKNOWN if an unknown sensing method is used by the widget.
 429:Generated_Source\PSoC4/key_touch_Sensing.c **** *
 430:Generated_Source\PSoC4/key_touch_Sensing.c **** ********************************************************************************/
 431:Generated_Source\PSoC4/key_touch_Sensing.c **** cystatus key_touch_Scan(void)
 432:Generated_Source\PSoC4/key_touch_Sensing.c **** {
 123              		.loc 1 432 0
 124              		.cfi_startproc
 125 0000 08B5     		push	{r3, lr}
 126              		.cfi_def_cfa_offset 8
 127              		.cfi_offset 3, -8
 128              		.cfi_offset 14, -4
 129              	.LVL4:
 433:Generated_Source\PSoC4/key_touch_Sensing.c ****     cystatus scanStatus = CYRET_SUCCESS;
 434:Generated_Source\PSoC4/key_touch_Sensing.c **** 
 435:Generated_Source\PSoC4/key_touch_Sensing.c ****     if (key_touch_WDGT_SW_STS_BUSY == (key_touch_dsRam.status & key_touch_WDGT_SW_STS_BUSY))
 130              		.loc 1 435 0
 131 0002 054B     		ldr	r3, .L15
 132 0004 9B68     		ldr	r3, [r3, #8]
ARM GAS  C:\Users\Administrator\AppData\Local\Temp\ccPYRpEO.s 			page 11


 133 0006 DB03     		lsl	r3, r3, #15
 134 0008 03D4     		bmi	.L14
 436:Generated_Source\PSoC4/key_touch_Sensing.c ****     {
 437:Generated_Source\PSoC4/key_touch_Sensing.c ****         /* Previous widget is being scanned. Return error. */
 438:Generated_Source\PSoC4/key_touch_Sensing.c ****         scanStatus = CYRET_INVALID_STATE;
 439:Generated_Source\PSoC4/key_touch_Sensing.c ****     }
 440:Generated_Source\PSoC4/key_touch_Sensing.c ****     else
 441:Generated_Source\PSoC4/key_touch_Sensing.c ****     {
 442:Generated_Source\PSoC4/key_touch_Sensing.c ****         /*  If CSD2X is enabled, call CSD2X scan    */
 443:Generated_Source\PSoC4/key_touch_Sensing.c ****     #if (key_touch_ENABLE == key_touch_CSD2X_EN)
 444:Generated_Source\PSoC4/key_touch_Sensing.c ****         scanStatus = key_touch_Scan2x();
 445:Generated_Source\PSoC4/key_touch_Sensing.c **** 
 446:Generated_Source\PSoC4/key_touch_Sensing.c ****     /*  If both CSD and CSX are enabled, call scan API based on widget sensing method    */
 447:Generated_Source\PSoC4/key_touch_Sensing.c ****     #elif (key_touch_ENABLE == key_touch_CSD_CSX_EN)
 448:Generated_Source\PSoC4/key_touch_Sensing.c ****         /*  Check widget sensing method and call appropriate APIs   */
 449:Generated_Source\PSoC4/key_touch_Sensing.c ****         switch (key_touch_currentSenseMethod)
 450:Generated_Source\PSoC4/key_touch_Sensing.c ****         {
 451:Generated_Source\PSoC4/key_touch_Sensing.c ****             case key_touch_SENSE_METHOD_CSX_E:
 452:Generated_Source\PSoC4/key_touch_Sensing.c ****                 key_touch_CSXScan();
 453:Generated_Source\PSoC4/key_touch_Sensing.c ****                 break;
 454:Generated_Source\PSoC4/key_touch_Sensing.c **** 
 455:Generated_Source\PSoC4/key_touch_Sensing.c ****             case key_touch_SENSE_METHOD_CSD_E:
 456:Generated_Source\PSoC4/key_touch_Sensing.c ****                  key_touch_CSDScan();
 457:Generated_Source\PSoC4/key_touch_Sensing.c ****                 break;
 458:Generated_Source\PSoC4/key_touch_Sensing.c **** 
 459:Generated_Source\PSoC4/key_touch_Sensing.c ****             default:
 460:Generated_Source\PSoC4/key_touch_Sensing.c ****                 scanStatus = CYRET_UNKNOWN;
 461:Generated_Source\PSoC4/key_touch_Sensing.c ****                 break;
 462:Generated_Source\PSoC4/key_touch_Sensing.c ****         }
 463:Generated_Source\PSoC4/key_touch_Sensing.c **** 
 464:Generated_Source\PSoC4/key_touch_Sensing.c ****     /*  If only CSD is enabled, call CSD scan   */
 465:Generated_Source\PSoC4/key_touch_Sensing.c ****     #elif (key_touch_ENABLE == key_touch_CSD_EN)
 466:Generated_Source\PSoC4/key_touch_Sensing.c ****         key_touch_CSDScan();
 135              		.loc 1 466 0
 136 000a FFF7FEFF 		bl	key_touch_CSDScan
 137              	.LVL5:
 433:Generated_Source\PSoC4/key_touch_Sensing.c ****     cystatus scanStatus = CYRET_SUCCESS;
 138              		.loc 1 433 0
 139 000e 0020     		mov	r0, #0
 140 0010 00E0     		b	.L13
 141              	.L14:
 438:Generated_Source\PSoC4/key_touch_Sensing.c ****     }
 142              		.loc 1 438 0
 143 0012 1120     		mov	r0, #17
 144              	.L13:
 145              	.LVL6:
 467:Generated_Source\PSoC4/key_touch_Sensing.c **** 
 468:Generated_Source\PSoC4/key_touch_Sensing.c ****     /*  If only CSX is enabled, call CSX scan   */
 469:Generated_Source\PSoC4/key_touch_Sensing.c ****     #elif (key_touch_ENABLE == key_touch_CSX_EN)
 470:Generated_Source\PSoC4/key_touch_Sensing.c ****         key_touch_CSXScan();
 471:Generated_Source\PSoC4/key_touch_Sensing.c **** 
 472:Generated_Source\PSoC4/key_touch_Sensing.c ****     #else
 473:Generated_Source\PSoC4/key_touch_Sensing.c ****         scanStatus = CYRET_UNKNOWN;
 474:Generated_Source\PSoC4/key_touch_Sensing.c ****         #error "No sensing method enabled, component cannot work in this mode"
 475:Generated_Source\PSoC4/key_touch_Sensing.c ****     #endif  /* (key_touch_ENABLE == key_touch_CSD2X_EN) */
 476:Generated_Source\PSoC4/key_touch_Sensing.c ****     }
 477:Generated_Source\PSoC4/key_touch_Sensing.c **** 
ARM GAS  C:\Users\Administrator\AppData\Local\Temp\ccPYRpEO.s 			page 12


 478:Generated_Source\PSoC4/key_touch_Sensing.c ****     return (scanStatus);
 479:Generated_Source\PSoC4/key_touch_Sensing.c **** }
 146              		.loc 1 479 0
 147              		@ sp needed
 148 0014 08BD     		pop	{r3, pc}
 149              	.L16:
 150 0016 C046     		.align	2
 151              	.L15:
 152 0018 00000000 		.word	key_touch_dsRam
 153              		.cfi_endproc
 154              	.LFE3:
 155              		.size	key_touch_Scan, .-key_touch_Scan
 156              		.section	.text.key_touch_ScanAllWidgets,"ax",%progbits
 157              		.align	2
 158              		.global	key_touch_ScanAllWidgets
 159              		.code	16
 160              		.thumb_func
 161              		.type	key_touch_ScanAllWidgets, %function
 162              	key_touch_ScanAllWidgets:
 163              	.LFB4:
 480:Generated_Source\PSoC4/key_touch_Sensing.c **** 
 481:Generated_Source\PSoC4/key_touch_Sensing.c **** 
 482:Generated_Source\PSoC4/key_touch_Sensing.c **** /*******************************************************************************
 483:Generated_Source\PSoC4/key_touch_Sensing.c **** * Function Name: key_touch_ScanAllWidgets
 484:Generated_Source\PSoC4/key_touch_Sensing.c **** ****************************************************************************//**
 485:Generated_Source\PSoC4/key_touch_Sensing.c **** *
 486:Generated_Source\PSoC4/key_touch_Sensing.c **** * \brief
 487:Generated_Source\PSoC4/key_touch_Sensing.c **** *  Initializes the first enabled widget and scans of all the sensors in the
 488:Generated_Source\PSoC4/key_touch_Sensing.c **** *  widget, then the same process is repeated for all widgets in the component.
 489:Generated_Source\PSoC4/key_touch_Sensing.c **** *  I.e. scan all the widgets in the component.
 490:Generated_Source\PSoC4/key_touch_Sensing.c **** *
 491:Generated_Source\PSoC4/key_touch_Sensing.c **** * \details
 492:Generated_Source\PSoC4/key_touch_Sensing.c **** *  This function initializes a widget and scans all the sensors in the widget,
 493:Generated_Source\PSoC4/key_touch_Sensing.c **** *  and then repeats the same for all the widgets in the component. The tasks of
 494:Generated_Source\PSoC4/key_touch_Sensing.c **** *  the key_touch_SetupWidget() and key_touch_Scan() functions are
 495:Generated_Source\PSoC4/key_touch_Sensing.c **** *  executed by these functions. The status of a sensor scan must be checked
 496:Generated_Source\PSoC4/key_touch_Sensing.c **** *  using the key_touch_IsBusy() API prior to starting a next scan
 497:Generated_Source\PSoC4/key_touch_Sensing.c **** *  or setting up another widget.
 498:Generated_Source\PSoC4/key_touch_Sensing.c **** *
 499:Generated_Source\PSoC4/key_touch_Sensing.c **** * \return
 500:Generated_Source\PSoC4/key_touch_Sensing.c **** *  Returns the status of operation:
 501:Generated_Source\PSoC4/key_touch_Sensing.c **** *    - CYRET_SUCCESS if scanning is successfully started.
 502:Generated_Source\PSoC4/key_touch_Sensing.c **** *    - CYRET_BAD_PARAM if all the widgets are disabled.
 503:Generated_Source\PSoC4/key_touch_Sensing.c **** *    - CYRET_INVALID_STATE if the previous scanning is not completed and the HW block is busy.
 504:Generated_Source\PSoC4/key_touch_Sensing.c **** *    - CYRET_UNKNOWN if there are unknown errors.
 505:Generated_Source\PSoC4/key_touch_Sensing.c **** *
 506:Generated_Source\PSoC4/key_touch_Sensing.c **** *******************************************************************************/
 507:Generated_Source\PSoC4/key_touch_Sensing.c **** cystatus key_touch_ScanAllWidgets(void)
 508:Generated_Source\PSoC4/key_touch_Sensing.c **** {
 164              		.loc 1 508 0
 165              		.cfi_startproc
 166 0000 10B5     		push	{r4, lr}
 167              		.cfi_def_cfa_offset 8
 168              		.cfi_offset 4, -8
 169              		.cfi_offset 14, -4
 170              	.LVL7:
 509:Generated_Source\PSoC4/key_touch_Sensing.c ****     cystatus scanStatus = CYRET_UNKNOWN;
ARM GAS  C:\Users\Administrator\AppData\Local\Temp\ccPYRpEO.s 			page 13


 510:Generated_Source\PSoC4/key_touch_Sensing.c **** 
 511:Generated_Source\PSoC4/key_touch_Sensing.c ****     uint32 wdgtIndex;
 512:Generated_Source\PSoC4/key_touch_Sensing.c **** 
 513:Generated_Source\PSoC4/key_touch_Sensing.c ****     if (key_touch_SW_STS_BUSY == (key_touch_dsRam.status & key_touch_SW_STS_BUSY))
 171              		.loc 1 513 0
 172 0002 0F4B     		ldr	r3, .L25
 173 0004 9B68     		ldr	r3, [r3, #8]
 174 0006 1B06     		lsl	r3, r3, #24
 175 0008 18D4     		bmi	.L24
 176 000a 0024     		mov	r4, #0
 177 000c 0120     		mov	r0, #1
 178 000e 4042     		neg	r0, r0
 179 0010 11E0     		b	.L19
 180              	.LVL8:
 181              	.L23:
 514:Generated_Source\PSoC4/key_touch_Sensing.c ****     {
 515:Generated_Source\PSoC4/key_touch_Sensing.c ****         /* Previous widget is being scanned. Return error. */
 516:Generated_Source\PSoC4/key_touch_Sensing.c ****         scanStatus = CYRET_INVALID_STATE;
 517:Generated_Source\PSoC4/key_touch_Sensing.c ****     }
 518:Generated_Source\PSoC4/key_touch_Sensing.c ****     else
 519:Generated_Source\PSoC4/key_touch_Sensing.c ****     {
 520:Generated_Source\PSoC4/key_touch_Sensing.c ****         /*
 521:Generated_Source\PSoC4/key_touch_Sensing.c ****          *  Set up widget first widget.
 522:Generated_Source\PSoC4/key_touch_Sensing.c ****          *  If widget returned error, set up next, continue same until widget does not return error
 523:Generated_Source\PSoC4/key_touch_Sensing.c ****          */
 524:Generated_Source\PSoC4/key_touch_Sensing.c ****         for (wdgtIndex = 0u;
 525:Generated_Source\PSoC4/key_touch_Sensing.c ****              wdgtIndex < key_touch_TOTAL_SLOTS;
 526:Generated_Source\PSoC4/key_touch_Sensing.c ****              wdgtIndex++)
 527:Generated_Source\PSoC4/key_touch_Sensing.c ****         {
 528:Generated_Source\PSoC4/key_touch_Sensing.c **** 
 529:Generated_Source\PSoC4/key_touch_Sensing.c ****             scanStatus = key_touch_SetupWidget(wdgtIndex);
 182              		.loc 1 529 0
 183 0012 201C     		mov	r0, r4
 184              	.LVL9:
 185 0014 FFF7FEFF 		bl	key_touch_SetupWidget
 186              	.LVL10:
 530:Generated_Source\PSoC4/key_touch_Sensing.c **** 
 531:Generated_Source\PSoC4/key_touch_Sensing.c ****             if (CYRET_SUCCESS == scanStatus)
 187              		.loc 1 531 0
 188 0018 0028     		cmp	r0, #0
 189 001a 0BD1     		bne	.L20
 532:Generated_Source\PSoC4/key_touch_Sensing.c ****             {
 533:Generated_Source\PSoC4/key_touch_Sensing.c ****                 #if (0u != (key_touch_TOTAL_SLOTS - 1u))
 534:Generated_Source\PSoC4/key_touch_Sensing.c ****                     /* If there are more than one widget to be scanned, request callback to scan ne
 535:Generated_Source\PSoC4/key_touch_Sensing.c ****                     if ((key_touch_TOTAL_SLOTS - 1u) > wdgtIndex)
 190              		.loc 1 535 0
 191 001c 0A2C     		cmp	r4, #10
 192 001e 03D8     		bhi	.L21
 536:Generated_Source\PSoC4/key_touch_Sensing.c ****                     {
 537:Generated_Source\PSoC4/key_touch_Sensing.c ****                          /* Request callback to scan next widget in ISR */
 538:Generated_Source\PSoC4/key_touch_Sensing.c ****                         key_touch_requestScanAllWidget = key_touch_ENABLE;
 193              		.loc 1 538 0
 194 0020 0122     		mov	r2, #1
 195 0022 084B     		ldr	r3, .L25+4
 196 0024 1A70     		strb	r2, [r3]
 197 0026 02E0     		b	.L22
 198              	.L21:
ARM GAS  C:\Users\Administrator\AppData\Local\Temp\ccPYRpEO.s 			page 14


 539:Generated_Source\PSoC4/key_touch_Sensing.c ****                     }
 540:Generated_Source\PSoC4/key_touch_Sensing.c ****                     else
 541:Generated_Source\PSoC4/key_touch_Sensing.c ****                     {
 542:Generated_Source\PSoC4/key_touch_Sensing.c ****                         /* Request to exit in ISR (Do not scan the next widgets) */
 543:Generated_Source\PSoC4/key_touch_Sensing.c ****                         key_touch_requestScanAllWidget = key_touch_DISABLE;
 199              		.loc 1 543 0
 200 0028 0022     		mov	r2, #0
 201 002a 064B     		ldr	r3, .L25+4
 202 002c 1A70     		strb	r2, [r3]
 203              	.L22:
 544:Generated_Source\PSoC4/key_touch_Sensing.c ****                     }
 545:Generated_Source\PSoC4/key_touch_Sensing.c ****                 #else
 546:Generated_Source\PSoC4/key_touch_Sensing.c ****                     {
 547:Generated_Source\PSoC4/key_touch_Sensing.c ****                         /* Request to exit in ISR (We have only one widget) */
 548:Generated_Source\PSoC4/key_touch_Sensing.c ****                         key_touch_requestScanAllWidget = key_touch_DISABLE;
 549:Generated_Source\PSoC4/key_touch_Sensing.c ****                     }
 550:Generated_Source\PSoC4/key_touch_Sensing.c ****                 #endif  /* (0u != (key_touch_TOTAL_SLOTS - 1u)) */
 551:Generated_Source\PSoC4/key_touch_Sensing.c **** 
 552:Generated_Source\PSoC4/key_touch_Sensing.c ****                 /*  Initiate scan and quit loop */
 553:Generated_Source\PSoC4/key_touch_Sensing.c ****                 scanStatus = key_touch_Scan();
 204              		.loc 1 553 0
 205 002e FFF7FEFF 		bl	key_touch_Scan
 206              	.LVL11:
 554:Generated_Source\PSoC4/key_touch_Sensing.c **** 
 555:Generated_Source\PSoC4/key_touch_Sensing.c ****                 break;
 207              		.loc 1 555 0
 208 0032 04E0     		b	.L18
 209              	.L20:
 526:Generated_Source\PSoC4/key_touch_Sensing.c ****         {
 210              		.loc 1 526 0
 211 0034 0134     		add	r4, r4, #1
 212              	.LVL12:
 213              	.L19:
 524:Generated_Source\PSoC4/key_touch_Sensing.c ****              wdgtIndex < key_touch_TOTAL_SLOTS;
 214              		.loc 1 524 0 discriminator 1
 215 0036 0B2C     		cmp	r4, #11
 216 0038 EBD9     		bls	.L23
 217 003a 00E0     		b	.L18
 218              	.LVL13:
 219              	.L24:
 516:Generated_Source\PSoC4/key_touch_Sensing.c ****     }
 220              		.loc 1 516 0
 221 003c 1120     		mov	r0, #17
 222              	.LVL14:
 223              	.L18:
 556:Generated_Source\PSoC4/key_touch_Sensing.c ****             }
 557:Generated_Source\PSoC4/key_touch_Sensing.c ****         }
 558:Generated_Source\PSoC4/key_touch_Sensing.c ****     }
 559:Generated_Source\PSoC4/key_touch_Sensing.c **** 
 560:Generated_Source\PSoC4/key_touch_Sensing.c ****     return (scanStatus);
 561:Generated_Source\PSoC4/key_touch_Sensing.c **** }
 224              		.loc 1 561 0
 225              		@ sp needed
 226 003e 10BD     		pop	{r4, pc}
 227              	.L26:
 228              		.align	2
 229              	.L25:
ARM GAS  C:\Users\Administrator\AppData\Local\Temp\ccPYRpEO.s 			page 15


 230 0040 00000000 		.word	key_touch_dsRam
 231 0044 00000000 		.word	.LANCHOR0
 232              		.cfi_endproc
 233              	.LFE4:
 234              		.size	key_touch_ScanAllWidgets, .-key_touch_ScanAllWidgets
 235              		.section	.text.key_touch_SetPinState,"ax",%progbits
 236              		.align	2
 237              		.global	key_touch_SetPinState
 238              		.code	16
 239              		.thumb_func
 240              		.type	key_touch_SetPinState, %function
 241              	key_touch_SetPinState:
 242              	.LFB6:
 562:Generated_Source\PSoC4/key_touch_Sensing.c **** 
 563:Generated_Source\PSoC4/key_touch_Sensing.c **** 
 564:Generated_Source\PSoC4/key_touch_Sensing.c **** /*******************************************************************************
 565:Generated_Source\PSoC4/key_touch_Sensing.c **** * Function Name: key_touch_SsInitialize
 566:Generated_Source\PSoC4/key_touch_Sensing.c **** ****************************************************************************//**
 567:Generated_Source\PSoC4/key_touch_Sensing.c **** *
 568:Generated_Source\PSoC4/key_touch_Sensing.c **** * \brief
 569:Generated_Source\PSoC4/key_touch_Sensing.c **** *   Performs hardware and firmware initialization required for proper operation
 570:Generated_Source\PSoC4/key_touch_Sensing.c **** *   of the key_touch component. This function is called from
 571:Generated_Source\PSoC4/key_touch_Sensing.c **** *   the key_touch_Start() API prior to calling any other APIs of the component.
 572:Generated_Source\PSoC4/key_touch_Sensing.c **** *
 573:Generated_Source\PSoC4/key_touch_Sensing.c **** * \details
 574:Generated_Source\PSoC4/key_touch_Sensing.c **** *   Performs hardware and firmware initialization required for proper operation
 575:Generated_Source\PSoC4/key_touch_Sensing.c **** *   of the key_touch component. This function is called from
 576:Generated_Source\PSoC4/key_touch_Sensing.c **** *   the key_touch_Start() API prior to calling any other APIs of the component.
 577:Generated_Source\PSoC4/key_touch_Sensing.c **** *   1. The function initializes immunity offsets when the frequency hopping is
 578:Generated_Source\PSoC4/key_touch_Sensing.c **** *      enabled.
 579:Generated_Source\PSoC4/key_touch_Sensing.c **** *   2. Depending on the configuration, the function initializes the CSD block
 580:Generated_Source\PSoC4/key_touch_Sensing.c **** *      for the CSD2X, CSD, CSX, or CSD+CSX modes.
 581:Generated_Source\PSoC4/key_touch_Sensing.c **** *   3. The function updates the dsRam.wdgtWorking variable with 1 when Self Test
 582:Generated_Source\PSoC4/key_touch_Sensing.c **** *      is enabled.
 583:Generated_Source\PSoC4/key_touch_Sensing.c **** *
 584:Generated_Source\PSoC4/key_touch_Sensing.c **** *   Calling the key_touch_Start API is the recommended method to initialize
 585:Generated_Source\PSoC4/key_touch_Sensing.c **** *   the key_touch component at power-up. The key_touch_SsInitialize()
 586:Generated_Source\PSoC4/key_touch_Sensing.c **** *   API should not be used for initialization, resume, or wake-up operations.
 587:Generated_Source\PSoC4/key_touch_Sensing.c **** *   The dsRam.wdgtWorking variable is updated.
 588:Generated_Source\PSoC4/key_touch_Sensing.c **** *
 589:Generated_Source\PSoC4/key_touch_Sensing.c **** * \return status
 590:Generated_Source\PSoC4/key_touch_Sensing.c **** *   Returns status of operation:
 591:Generated_Source\PSoC4/key_touch_Sensing.c **** *   - Zero        - Indicates successful initialization.
 592:Generated_Source\PSoC4/key_touch_Sensing.c **** *   - Non-zero    - One or more errors occurred in the initialization process.
 593:Generated_Source\PSoC4/key_touch_Sensing.c **** *
 594:Generated_Source\PSoC4/key_touch_Sensing.c **** *******************************************************************************/
 595:Generated_Source\PSoC4/key_touch_Sensing.c **** cystatus key_touch_SsInitialize(void)
 596:Generated_Source\PSoC4/key_touch_Sensing.c **** {
 597:Generated_Source\PSoC4/key_touch_Sensing.c ****     cystatus initStatus = CYRET_SUCCESS;
 598:Generated_Source\PSoC4/key_touch_Sensing.c **** 
 599:Generated_Source\PSoC4/key_touch_Sensing.c ****     #if (key_touch_ENABLE == key_touch_MULTI_FREQ_SCAN_EN)
 600:Generated_Source\PSoC4/key_touch_Sensing.c ****         key_touch_immunity[key_touch_FREQ_CHANNEL_0] = (uint8)CY_GET_REG32(CY_SYS_CLK_IMO_TRIM1_PTR
 601:Generated_Source\PSoC4/key_touch_Sensing.c ****         if (key_touch_COARSE_TRIM_THRESHOLD_1 > key_touch_immunity[key_touch_FREQ_CHANNEL_0])
 602:Generated_Source\PSoC4/key_touch_Sensing.c ****         {
 603:Generated_Source\PSoC4/key_touch_Sensing.c ****             key_touch_immunity[key_touch_FREQ_CHANNEL_1] =
 604:Generated_Source\PSoC4/key_touch_Sensing.c ****             key_touch_immunity[key_touch_FREQ_CHANNEL_0] + key_touch_FREQUENCY_OFFSET_5;
 605:Generated_Source\PSoC4/key_touch_Sensing.c ****             key_touch_immunity[key_touch_FREQ_CHANNEL_2] =
ARM GAS  C:\Users\Administrator\AppData\Local\Temp\ccPYRpEO.s 			page 16


 606:Generated_Source\PSoC4/key_touch_Sensing.c ****             key_touch_immunity[key_touch_FREQ_CHANNEL_0] + key_touch_FREQUENCY_OFFSET_10;
 607:Generated_Source\PSoC4/key_touch_Sensing.c ****         }
 608:Generated_Source\PSoC4/key_touch_Sensing.c ****         else if (key_touch_COARSE_TRIM_THRESHOLD_2 > key_touch_immunity[key_touch_FREQ_CHANNEL_0])
 609:Generated_Source\PSoC4/key_touch_Sensing.c ****         {
 610:Generated_Source\PSoC4/key_touch_Sensing.c ****             key_touch_immunity[key_touch_FREQ_CHANNEL_1] =
 611:Generated_Source\PSoC4/key_touch_Sensing.c ****             key_touch_immunity[key_touch_FREQ_CHANNEL_0] - key_touch_FREQUENCY_OFFSET_5;
 612:Generated_Source\PSoC4/key_touch_Sensing.c ****             key_touch_immunity[key_touch_FREQ_CHANNEL_2] =
 613:Generated_Source\PSoC4/key_touch_Sensing.c ****             key_touch_immunity[key_touch_FREQ_CHANNEL_0] + key_touch_FREQUENCY_OFFSET_5;
 614:Generated_Source\PSoC4/key_touch_Sensing.c ****         }
 615:Generated_Source\PSoC4/key_touch_Sensing.c ****         else
 616:Generated_Source\PSoC4/key_touch_Sensing.c ****         {
 617:Generated_Source\PSoC4/key_touch_Sensing.c ****             key_touch_immunity[key_touch_FREQ_CHANNEL_1] =
 618:Generated_Source\PSoC4/key_touch_Sensing.c ****             key_touch_immunity[key_touch_FREQ_CHANNEL_0] - key_touch_FREQUENCY_OFFSET_5;
 619:Generated_Source\PSoC4/key_touch_Sensing.c ****             key_touch_immunity[key_touch_FREQ_CHANNEL_2] =
 620:Generated_Source\PSoC4/key_touch_Sensing.c ****             key_touch_immunity[key_touch_FREQ_CHANNEL_0] - key_touch_FREQUENCY_OFFSET_10;
 621:Generated_Source\PSoC4/key_touch_Sensing.c ****         }
 622:Generated_Source\PSoC4/key_touch_Sensing.c ****     #endif /* (key_touch_ENABLE == key_touch_MULTI_FREQ_SCAN_EN) */
 623:Generated_Source\PSoC4/key_touch_Sensing.c **** 
 624:Generated_Source\PSoC4/key_touch_Sensing.c ****     #if (key_touch_DISABLE == key_touch_CSDV2)
 625:Generated_Source\PSoC4/key_touch_Sensing.c ****         key_touch_SsTrimIdacs();
 626:Generated_Source\PSoC4/key_touch_Sensing.c ****     #endif /* (key_touch_ENABLE == key_touch_CSDV2) */
 627:Generated_Source\PSoC4/key_touch_Sensing.c **** 
 628:Generated_Source\PSoC4/key_touch_Sensing.c ****     #if((key_touch_ENABLE == key_touch_CSD_EN) ||\
 629:Generated_Source\PSoC4/key_touch_Sensing.c ****     ((key_touch_ENABLE == key_touch_CSX_EN) && (key_touch_ENABLE == key_touch_CSDV2)))
 630:Generated_Source\PSoC4/key_touch_Sensing.c ****         key_touch_SsInitializeSourceSenseClk();
 631:Generated_Source\PSoC4/key_touch_Sensing.c ****     #endif /* ((key_touch_ENABLE == key_touch_CSD_EN) ||\
 632:Generated_Source\PSoC4/key_touch_Sensing.c ****               ((key_touch_ENABLE == key_touch_CSX_EN) && (key_touch_ENABLE == key_touch_CSDV2))) */
 633:Generated_Source\PSoC4/key_touch_Sensing.c **** 
 634:Generated_Source\PSoC4/key_touch_Sensing.c ****     /*
 635:Generated_Source\PSoC4/key_touch_Sensing.c ****      *  Check if CSD2X is enabled, if yes, initialize key_touch component
 636:Generated_Source\PSoC4/key_touch_Sensing.c ****      *  for CSD2x operation
 637:Generated_Source\PSoC4/key_touch_Sensing.c ****      */
 638:Generated_Source\PSoC4/key_touch_Sensing.c ****     #if (key_touch_ENABLE == key_touch_CSD2X_EN)
 639:Generated_Source\PSoC4/key_touch_Sensing.c ****         /*
 640:Generated_Source\PSoC4/key_touch_Sensing.c ****          *  Check if CSX or CSD enable along with CSD2X, if yes, provide the error
 641:Generated_Source\PSoC4/key_touch_Sensing.c ****          *  message as CSD2X can not coexist with CSD or CSX
 642:Generated_Source\PSoC4/key_touch_Sensing.c ****          */
 643:Generated_Source\PSoC4/key_touch_Sensing.c ****         #if (key_touch_ENABLE == key_touch_CSX_EN)
 644:Generated_Source\PSoC4/key_touch_Sensing.c ****             #error "CSD2X and CSX can not be enabled together"
 645:Generated_Source\PSoC4/key_touch_Sensing.c ****             initStatus = CYRET_UNKNOWN;
 646:Generated_Source\PSoC4/key_touch_Sensing.c ****         #elif (key_touch_ENABLE == key_touch_CSD_EN)
 647:Generated_Source\PSoC4/key_touch_Sensing.c ****             #error "CSD2X and CSD can not be enabled together"
 648:Generated_Source\PSoC4/key_touch_Sensing.c ****             initStatus = CYRET_UNKNOWN;
 649:Generated_Source\PSoC4/key_touch_Sensing.c ****         #endif /* (key_touch_CSX_EN == key_touch_ENABLE) */
 650:Generated_Source\PSoC4/key_touch_Sensing.c **** 
 651:Generated_Source\PSoC4/key_touch_Sensing.c ****         /* Initialize both CSD blocks for CSD2X scanning    */
 652:Generated_Source\PSoC4/key_touch_Sensing.c ****         key_touch_CSD2XInitialize();
 653:Generated_Source\PSoC4/key_touch_Sensing.c **** 
 654:Generated_Source\PSoC4/key_touch_Sensing.c ****     #elif ((key_touch_ENABLE == key_touch_CSD_CSX_EN) || \
 655:Generated_Source\PSoC4/key_touch_Sensing.c ****             (key_touch_ENABLE == key_touch_SELF_TEST_EN) || \
 656:Generated_Source\PSoC4/key_touch_Sensing.c ****             (key_touch_ENABLE == key_touch_ADC_EN))
 657:Generated_Source\PSoC4/key_touch_Sensing.c **** 
 658:Generated_Source\PSoC4/key_touch_Sensing.c ****         /* Set all IO states to default state  */
 659:Generated_Source\PSoC4/key_touch_Sensing.c ****         key_touch_SsSetIOsInDefaultState();
 660:Generated_Source\PSoC4/key_touch_Sensing.c ****         /*
 661:Generated_Source\PSoC4/key_touch_Sensing.c ****          * CSD hardware block is initialized in the Setup Widget based
 662:Generated_Source\PSoC4/key_touch_Sensing.c ****          * on widget sensing method. Release previously captured HW resources
ARM GAS  C:\Users\Administrator\AppData\Local\Temp\ccPYRpEO.s 			page 17


 663:Generated_Source\PSoC4/key_touch_Sensing.c ****          * if it is second call of key_touch_Start() function.
 664:Generated_Source\PSoC4/key_touch_Sensing.c ****          */
 665:Generated_Source\PSoC4/key_touch_Sensing.c ****         key_touch_SsSwitchSensingMode(key_touch_UNDEFINED_E);
 666:Generated_Source\PSoC4/key_touch_Sensing.c ****     #elif (key_touch_ENABLE == key_touch_CSD_EN)
 667:Generated_Source\PSoC4/key_touch_Sensing.c ****         /*  Initialize CSD block for CSD scanning   */
 668:Generated_Source\PSoC4/key_touch_Sensing.c ****         key_touch_SsCSDInitialize();
 669:Generated_Source\PSoC4/key_touch_Sensing.c **** 
 670:Generated_Source\PSoC4/key_touch_Sensing.c ****     #elif (key_touch_ENABLE == key_touch_CSX_EN)
 671:Generated_Source\PSoC4/key_touch_Sensing.c ****         /*  Initialize CSD block for CSX scanning   */
 672:Generated_Source\PSoC4/key_touch_Sensing.c ****         key_touch_CSXInitialize();
 673:Generated_Source\PSoC4/key_touch_Sensing.c **** 
 674:Generated_Source\PSoC4/key_touch_Sensing.c ****     #else
 675:Generated_Source\PSoC4/key_touch_Sensing.c ****         #error "No sensing method enabled, component cannot work in this mode"
 676:Generated_Source\PSoC4/key_touch_Sensing.c ****         initStatus = CYRET_UNKNOWN;
 677:Generated_Source\PSoC4/key_touch_Sensing.c ****     #endif  /* (key_touch_ENABLE == key_touch_CSD2X_EN) */
 678:Generated_Source\PSoC4/key_touch_Sensing.c **** 
 679:Generated_Source\PSoC4/key_touch_Sensing.c ****     return (initStatus);
 680:Generated_Source\PSoC4/key_touch_Sensing.c **** }
 681:Generated_Source\PSoC4/key_touch_Sensing.c **** 
 682:Generated_Source\PSoC4/key_touch_Sensing.c **** 
 683:Generated_Source\PSoC4/key_touch_Sensing.c **** /*******************************************************************************
 684:Generated_Source\PSoC4/key_touch_Sensing.c **** * Function Name: key_touch_SetPinState
 685:Generated_Source\PSoC4/key_touch_Sensing.c **** ****************************************************************************//**
 686:Generated_Source\PSoC4/key_touch_Sensing.c **** *
 687:Generated_Source\PSoC4/key_touch_Sensing.c **** * \brief
 688:Generated_Source\PSoC4/key_touch_Sensing.c **** *  Sets the state (drive mode and output state) of port pin used by a sensor.
 689:Generated_Source\PSoC4/key_touch_Sensing.c **** *  The possible states are GND, Shield, High-Z, Tx or Rx, sensor. If the sensor
 690:Generated_Source\PSoC4/key_touch_Sensing.c **** *  specified in the input parameter is a ganged sensor, then state of all pins
 691:Generated_Source\PSoC4/key_touch_Sensing.c **** *  associated with ganged sensor is updated.
 692:Generated_Source\PSoC4/key_touch_Sensing.c **** *
 693:Generated_Source\PSoC4/key_touch_Sensing.c **** * \details
 694:Generated_Source\PSoC4/key_touch_Sensing.c **** *  This function sets a specified state to the specified sensor pin. If the
 695:Generated_Source\PSoC4/key_touch_Sensing.c **** *  sensor is a ganged sensor, then the specified state is also set for all
 696:Generated_Source\PSoC4/key_touch_Sensing.c **** *  ganged pins of this sensor. Scanning should be completed before calling
 697:Generated_Source\PSoC4/key_touch_Sensing.c **** *  this API.
 698:Generated_Source\PSoC4/key_touch_Sensing.c **** *
 699:Generated_Source\PSoC4/key_touch_Sensing.c **** *  The key_touch_SHIELD and key_touch_SENSOR states are not
 700:Generated_Source\PSoC4/key_touch_Sensing.c **** *  allowed if there is no CSD widget configured in the users project.
 701:Generated_Source\PSoC4/key_touch_Sensing.c **** *  The key_touch_TX_PIN and key_touch_RX_PIN states are not
 702:Generated_Source\PSoC4/key_touch_Sensing.c **** *  allowed if there is no CSX widget configured in the users project.
 703:Generated_Source\PSoC4/key_touch_Sensing.c **** *
 704:Generated_Source\PSoC4/key_touch_Sensing.c **** *  It is not recommended to call this function directly from the application
 705:Generated_Source\PSoC4/key_touch_Sensing.c **** *  layer. This function should be used to implement only the users specific
 706:Generated_Source\PSoC4/key_touch_Sensing.c **** *  use cases. Functions that perform a setup and scan of the sensor/widget
 707:Generated_Source\PSoC4/key_touch_Sensing.c **** *  automatically set needed pin states. They do not take into account changes
 708:Generated_Source\PSoC4/key_touch_Sensing.c **** *  in the design made by the key_touch_SetPinState() function.
 709:Generated_Source\PSoC4/key_touch_Sensing.c **** *
 710:Generated_Source\PSoC4/key_touch_Sensing.c **** *  \param wdgtIndex
 711:Generated_Source\PSoC4/key_touch_Sensing.c **** *  Specify the ID number of the widget to change the pin state of the specified
 712:Generated_Source\PSoC4/key_touch_Sensing.c **** *  sensor.
 713:Generated_Source\PSoC4/key_touch_Sensing.c **** *  A macro for the widget ID can be found in the key_touch Configuration header
 714:Generated_Source\PSoC4/key_touch_Sensing.c **** *  file defined as key_touch_<WidgetName>_WDGT_ID.
 715:Generated_Source\PSoC4/key_touch_Sensing.c **** *
 716:Generated_Source\PSoC4/key_touch_Sensing.c **** *  \param snsIndex
 717:Generated_Source\PSoC4/key_touch_Sensing.c **** *  Specify the ID number of the sensor within the widget to change its pin
 718:Generated_Source\PSoC4/key_touch_Sensing.c **** *  state.
 719:Generated_Source\PSoC4/key_touch_Sensing.c **** *  A macro for the sensor ID within a specified widget can be found in the
ARM GAS  C:\Users\Administrator\AppData\Local\Temp\ccPYRpEO.s 			page 18


 720:Generated_Source\PSoC4/key_touch_Sensing.c **** *  key_touch Configuration header file defined as
 721:Generated_Source\PSoC4/key_touch_Sensing.c **** *  key_touch_<WidgetName>_SNS<SensorNumber>_ID
 722:Generated_Source\PSoC4/key_touch_Sensing.c **** *
 723:Generated_Source\PSoC4/key_touch_Sensing.c **** *  \param state
 724:Generated_Source\PSoC4/key_touch_Sensing.c **** *   Specify the state of the sensor that needs to be set:
 725:Generated_Source\PSoC4/key_touch_Sensing.c **** *     1. key_touch_GROUND - The pin is connected to ground.
 726:Generated_Source\PSoC4/key_touch_Sensing.c **** *     2. key_touch_HIGHZ - The drive mode of the pin is set to High-Z
 727:Generated_Source\PSoC4/key_touch_Sensing.c **** *        Analog.
 728:Generated_Source\PSoC4/key_touch_Sensing.c **** *     3. key_touch_SHIELD - The shield signal is routed to the pin (only
 729:Generated_Source\PSoC4/key_touch_Sensing.c **** *        in CSD sensing method when shield electrode is enabled).
 730:Generated_Source\PSoC4/key_touch_Sensing.c **** *     4. key_touch_SENSOR C The pin is connected to the scanning bus
 731:Generated_Source\PSoC4/key_touch_Sensing.c **** *        (only in CSD sensing method).
 732:Generated_Source\PSoC4/key_touch_Sensing.c **** *     5. key_touch_TX_PIN C The TX signal is routed to the sensor
 733:Generated_Source\PSoC4/key_touch_Sensing.c **** *        (only in CSX sensing method).
 734:Generated_Source\PSoC4/key_touch_Sensing.c **** *     6. key_touch_RX_PIN C The pin is connected to the scanning bus
 735:Generated_Source\PSoC4/key_touch_Sensing.c **** *        (only in CSX sensing method).
 736:Generated_Source\PSoC4/key_touch_Sensing.c **** *
 737:Generated_Source\PSoC4/key_touch_Sensing.c **** *******************************************************************************/
 738:Generated_Source\PSoC4/key_touch_Sensing.c **** void key_touch_SetPinState(uint32 wdgtIndex, uint32 snsIndex, uint32 state)
 739:Generated_Source\PSoC4/key_touch_Sensing.c **** {
 243              		.loc 1 739 0
 244              		.cfi_startproc
 245              	.LVL15:
 246 0000 70B5     		push	{r4, r5, r6, lr}
 247              		.cfi_def_cfa_offset 16
 248              		.cfi_offset 4, -16
 249              		.cfi_offset 5, -12
 250              		.cfi_offset 6, -8
 251              		.cfi_offset 14, -4
 740:Generated_Source\PSoC4/key_touch_Sensing.c ****     key_touch_FLASH_IO_STRUCT const *curSnsIOPtr;
 741:Generated_Source\PSoC4/key_touch_Sensing.c ****     #if (key_touch_ENABLE == key_touch_CSD_GANGED_SNS_EN)
 742:Generated_Source\PSoC4/key_touch_Sensing.c ****         key_touch_FLASH_SNS_STRUCT const *curFlashSnsPtr;
 743:Generated_Source\PSoC4/key_touch_Sensing.c ****         uint32 tempVal;
 744:Generated_Source\PSoC4/key_touch_Sensing.c ****     #endif /* (key_touch_ENABLE == key_touch_CSD_GANGED_SNS_EN) */
 745:Generated_Source\PSoC4/key_touch_Sensing.c ****     uint32 newRegisterValue;
 746:Generated_Source\PSoC4/key_touch_Sensing.c ****     uint8  interruptState;
 747:Generated_Source\PSoC4/key_touch_Sensing.c ****     uint32 pinHSIOMShift;
 748:Generated_Source\PSoC4/key_touch_Sensing.c ****     uint32 pinModeShift;
 749:Generated_Source\PSoC4/key_touch_Sensing.c **** 
 750:Generated_Source\PSoC4/key_touch_Sensing.c ****     #if (key_touch_ENABLE == key_touch_CSD_GANGED_SNS_EN)
 751:Generated_Source\PSoC4/key_touch_Sensing.c ****         /* Check ganged sns flag  */
 752:Generated_Source\PSoC4/key_touch_Sensing.c ****         if (key_touch_GANGED_SNS_MASK == (key_touch_dsFlash.wdgtArray[wdgtIndex].staticConfig &
 753:Generated_Source\PSoC4/key_touch_Sensing.c ****             key_touch_GANGED_SNS_MASK))
 754:Generated_Source\PSoC4/key_touch_Sensing.c ****         {
 755:Generated_Source\PSoC4/key_touch_Sensing.c ****             curFlashSnsPtr = key_touch_dsFlash.wdgtArray[wdgtIndex].ptr2SnsFlash;
 756:Generated_Source\PSoC4/key_touch_Sensing.c ****             curFlashSnsPtr += snsIndex;
 757:Generated_Source\PSoC4/key_touch_Sensing.c ****             curSnsIOPtr = &key_touch_ioList[curFlashSnsPtr->firstPinId];
 758:Generated_Source\PSoC4/key_touch_Sensing.c **** 
 759:Generated_Source\PSoC4/key_touch_Sensing.c ****             /* Get number of ganged pins  */
 760:Generated_Source\PSoC4/key_touch_Sensing.c ****             tempVal = curFlashSnsPtr->numPins;
 761:Generated_Source\PSoC4/key_touch_Sensing.c ****         }
 762:Generated_Source\PSoC4/key_touch_Sensing.c ****         else
 763:Generated_Source\PSoC4/key_touch_Sensing.c ****         {
 764:Generated_Source\PSoC4/key_touch_Sensing.c ****             curSnsIOPtr = (key_touch_FLASH_IO_STRUCT const *)
 765:Generated_Source\PSoC4/key_touch_Sensing.c ****                                     key_touch_dsFlash.wdgtArray[wdgtIndex].ptr2SnsFlash + snsIndex;
 766:Generated_Source\PSoC4/key_touch_Sensing.c ****             /* There are no ganged pins */
 767:Generated_Source\PSoC4/key_touch_Sensing.c ****             tempVal = 1u;
ARM GAS  C:\Users\Administrator\AppData\Local\Temp\ccPYRpEO.s 			page 19


 768:Generated_Source\PSoC4/key_touch_Sensing.c ****         }
 769:Generated_Source\PSoC4/key_touch_Sensing.c ****     #else
 770:Generated_Source\PSoC4/key_touch_Sensing.c ****         curSnsIOPtr = (key_touch_FLASH_IO_STRUCT const *)
 771:Generated_Source\PSoC4/key_touch_Sensing.c ****                                     key_touch_dsFlash.wdgtArray[wdgtIndex].ptr2SnsFlash + snsIndex;
 252              		.loc 1 771 0
 253 0002 C300     		lsl	r3, r0, #3
 254 0004 181A     		sub	r0, r3, r0
 255              	.LVL16:
 256 0006 8000     		lsl	r0, r0, #2
 257 0008 204B     		ldr	r3, .L32
 258 000a C458     		ldr	r4, [r0, r3]
 259 000c CB00     		lsl	r3, r1, #3
 260 000e 591A     		sub	r1, r3, r1
 261              	.LVL17:
 262 0010 8900     		lsl	r1, r1, #2
 770:Generated_Source\PSoC4/key_touch_Sensing.c ****                                     key_touch_dsFlash.wdgtArray[wdgtIndex].ptr2SnsFlash + snsIndex;
 263              		.loc 1 770 0
 264 0012 6418     		add	r4, r4, r1
 265              	.LVL18:
 772:Generated_Source\PSoC4/key_touch_Sensing.c ****     #endif  /* (key_touch_ENABLE == key_touch_CSD_GANGED_SNS_EN) */
 773:Generated_Source\PSoC4/key_touch_Sensing.c **** 
 774:Generated_Source\PSoC4/key_touch_Sensing.c ****     #if (key_touch_ENABLE == key_touch_CSD_GANGED_SNS_EN)
 775:Generated_Source\PSoC4/key_touch_Sensing.c ****         /* Reconfigure all ganged sensors  */
 776:Generated_Source\PSoC4/key_touch_Sensing.c ****         do
 777:Generated_Source\PSoC4/key_touch_Sensing.c ****         {
 778:Generated_Source\PSoC4/key_touch_Sensing.c ****     #endif  /* (key_touch_ENABLE == key_touch_CSD_GANGED_SNS_EN) */
 779:Generated_Source\PSoC4/key_touch_Sensing.c **** 
 780:Generated_Source\PSoC4/key_touch_Sensing.c ****             /* Get HSIOM and port mode shifts */
 781:Generated_Source\PSoC4/key_touch_Sensing.c ****             pinHSIOMShift = (uint32)curSnsIOPtr->hsiomShift;
 266              		.loc 1 781 0
 267 0014 267E     		ldrb	r6, [r4, #24]
 268              	.LVL19:
 782:Generated_Source\PSoC4/key_touch_Sensing.c ****             pinModeShift = (uint32)curSnsIOPtr->shift;
 269              		.loc 1 782 0
 270 0016 A57E     		ldrb	r5, [r4, #26]
 271              	.LVL20:
 783:Generated_Source\PSoC4/key_touch_Sensing.c **** 
 784:Generated_Source\PSoC4/key_touch_Sensing.c ****             /* Reset HSIOM register */
 785:Generated_Source\PSoC4/key_touch_Sensing.c ****             CY_SET_REG32(curSnsIOPtr->hsiomPtr, CY_GET_REG32(curSnsIOPtr->hsiomPtr) & ~(key_touch_H
 272              		.loc 1 785 0
 273 0018 2068     		ldr	r0, [r4]
 274 001a 0368     		ldr	r3, [r0]
 275 001c 0F21     		mov	r1, #15
 276 001e B140     		lsl	r1, r1, r6
 277 0020 8B43     		bic	r3, r1
 278 0022 0360     		str	r3, [r0]
 786:Generated_Source\PSoC4/key_touch_Sensing.c **** 
 787:Generated_Source\PSoC4/key_touch_Sensing.c ****             switch (state)
 279              		.loc 1 787 0
 280 0024 012A     		cmp	r2, #1
 281 0026 1AD0     		beq	.L29
 282 0028 002A     		cmp	r2, #0
 283 002a 02D0     		beq	.L30
 284 002c 032A     		cmp	r2, #3
 285 002e 28D0     		beq	.L31
 286 0030 2AE0     		b	.L27
 287              	.L30:
ARM GAS  C:\Users\Administrator\AppData\Local\Temp\ccPYRpEO.s 			page 20


 788:Generated_Source\PSoC4/key_touch_Sensing.c ****             {
 789:Generated_Source\PSoC4/key_touch_Sensing.c ****             case key_touch_GROUND:
 790:Generated_Source\PSoC4/key_touch_Sensing.c ****                 interruptState = CyEnterCriticalSection();
 288              		.loc 1 790 0
 289 0032 FFF7FEFF 		bl	CyEnterCriticalSection
 290              	.LVL21:
 791:Generated_Source\PSoC4/key_touch_Sensing.c **** 
 792:Generated_Source\PSoC4/key_touch_Sensing.c ****                 /* Update port configuration register (drive mode) for sensor */
 793:Generated_Source\PSoC4/key_touch_Sensing.c ****                 newRegisterValue = CY_GET_REG32(curSnsIOPtr->pcPtr);
 291              		.loc 1 793 0
 292 0036 6168     		ldr	r1, [r4, #4]
 293 0038 0B68     		ldr	r3, [r1]
 294              	.LVL22:
 794:Generated_Source\PSoC4/key_touch_Sensing.c ****                 newRegisterValue &= ~(key_touch_GPIO_PC_MASK << pinModeShift);
 295              		.loc 1 794 0
 296 003a 0722     		mov	r2, #7
 297 003c AA40     		lsl	r2, r2, r5
 298 003e 9343     		bic	r3, r2
 299              	.LVL23:
 795:Generated_Source\PSoC4/key_touch_Sensing.c ****                 newRegisterValue |= (key_touch_SNS_GROUND_CONNECT << pinModeShift);
 300              		.loc 1 795 0
 301 0040 0622     		mov	r2, #6
 302 0042 AA40     		lsl	r2, r2, r5
 303 0044 151C     		mov	r5, r2
 304              	.LVL24:
 305 0046 1D43     		orr	r5, r3
 306              	.LVL25:
 796:Generated_Source\PSoC4/key_touch_Sensing.c ****                 CY_SET_REG32(curSnsIOPtr->pcPtr, newRegisterValue);
 307              		.loc 1 796 0
 308 0048 0D60     		str	r5, [r1]
 797:Generated_Source\PSoC4/key_touch_Sensing.c **** 
 798:Generated_Source\PSoC4/key_touch_Sensing.c ****                 CyExitCriticalSection(interruptState);
 309              		.loc 1 798 0
 310 004a FFF7FEFF 		bl	CyExitCriticalSection
 311              	.LVL26:
 799:Generated_Source\PSoC4/key_touch_Sensing.c **** 
 800:Generated_Source\PSoC4/key_touch_Sensing.c ****                 /* Set logic 0 to port data register */
 801:Generated_Source\PSoC4/key_touch_Sensing.c ****                 CY_SET_REG32(curSnsIOPtr->drPtr, CY_GET_REG32(curSnsIOPtr->drPtr) & (uint32)~(uint3
 312              		.loc 1 801 0
 313 004e A168     		ldr	r1, [r4, #8]
 314 0050 0B68     		ldr	r3, [r1]
 315 0052 607E     		ldrb	r0, [r4, #25]
 316 0054 0122     		mov	r2, #1
 317 0056 8240     		lsl	r2, r2, r0
 318 0058 9343     		bic	r3, r2
 319 005a 0B60     		str	r3, [r1]
 802:Generated_Source\PSoC4/key_touch_Sensing.c ****                 break;
 320              		.loc 1 802 0
 321 005c 14E0     		b	.L27
 322              	.LVL27:
 323              	.L29:
 803:Generated_Source\PSoC4/key_touch_Sensing.c **** 
 804:Generated_Source\PSoC4/key_touch_Sensing.c ****             case key_touch_HIGHZ:
 805:Generated_Source\PSoC4/key_touch_Sensing.c ****                 interruptState = CyEnterCriticalSection();
 324              		.loc 1 805 0
 325 005e FFF7FEFF 		bl	CyEnterCriticalSection
 326              	.LVL28:
ARM GAS  C:\Users\Administrator\AppData\Local\Temp\ccPYRpEO.s 			page 21


 806:Generated_Source\PSoC4/key_touch_Sensing.c **** 
 807:Generated_Source\PSoC4/key_touch_Sensing.c ****                 /* Update port configuration register (drive mode) for sensor */
 808:Generated_Source\PSoC4/key_touch_Sensing.c ****                 newRegisterValue = CY_GET_REG32(curSnsIOPtr->pcPtr);
 327              		.loc 1 808 0
 328 0062 6168     		ldr	r1, [r4, #4]
 329 0064 0B68     		ldr	r3, [r1]
 330              	.LVL29:
 809:Generated_Source\PSoC4/key_touch_Sensing.c ****                 newRegisterValue &= ~(key_touch_GPIO_PC_MASK << pinModeShift);
 331              		.loc 1 809 0
 332 0066 0722     		mov	r2, #7
 333 0068 AA40     		lsl	r2, r2, r5
 334 006a 9343     		bic	r3, r2
 335              	.LVL30:
 810:Generated_Source\PSoC4/key_touch_Sensing.c ****                 CY_SET_REG32(curSnsIOPtr->pcPtr, newRegisterValue);
 336              		.loc 1 810 0
 337 006c 0B60     		str	r3, [r1]
 811:Generated_Source\PSoC4/key_touch_Sensing.c **** 
 812:Generated_Source\PSoC4/key_touch_Sensing.c ****                 CyExitCriticalSection(interruptState);
 338              		.loc 1 812 0
 339 006e FFF7FEFF 		bl	CyExitCriticalSection
 340              	.LVL31:
 813:Generated_Source\PSoC4/key_touch_Sensing.c **** 
 814:Generated_Source\PSoC4/key_touch_Sensing.c ****                 /* Set logic 0 to port data register */
 815:Generated_Source\PSoC4/key_touch_Sensing.c ****                 CY_SET_REG32(curSnsIOPtr->drPtr, CY_GET_REG32(curSnsIOPtr->drPtr) & (uint32)~(uint3
 341              		.loc 1 815 0
 342 0072 A168     		ldr	r1, [r4, #8]
 343 0074 0B68     		ldr	r3, [r1]
 344 0076 607E     		ldrb	r0, [r4, #25]
 345 0078 0122     		mov	r2, #1
 346 007a 8240     		lsl	r2, r2, r0
 347 007c 9343     		bic	r3, r2
 348 007e 0B60     		str	r3, [r1]
 816:Generated_Source\PSoC4/key_touch_Sensing.c ****                 break;
 349              		.loc 1 816 0
 350 0080 02E0     		b	.L27
 351              	.LVL32:
 352              	.L31:
 817:Generated_Source\PSoC4/key_touch_Sensing.c **** 
 818:Generated_Source\PSoC4/key_touch_Sensing.c ****             #if (key_touch_ENABLE == key_touch_CSD_SHIELD_EN)
 819:Generated_Source\PSoC4/key_touch_Sensing.c ****                 case key_touch_SHIELD:
 820:Generated_Source\PSoC4/key_touch_Sensing.c ****                     /* Set drive mode to Analog */
 821:Generated_Source\PSoC4/key_touch_Sensing.c ****                     CY_SET_REG32(curSnsIOPtr->pcPtr, CY_GET_REG32(curSnsIOPtr->pcPtr) &
 822:Generated_Source\PSoC4/key_touch_Sensing.c ****                                ~(key_touch_GPIO_PC_MASK <<(curSnsIOPtr->shift)));
 823:Generated_Source\PSoC4/key_touch_Sensing.c **** 
 824:Generated_Source\PSoC4/key_touch_Sensing.c ****                     /* Set appropriate bit in HSIOM register to configure pin to shield mode */
 825:Generated_Source\PSoC4/key_touch_Sensing.c ****                     CY_SET_REG32(curSnsIOPtr->hsiomPtr, CY_GET_REG32(curSnsIOPtr->hsiomPtr) |
 826:Generated_Source\PSoC4/key_touch_Sensing.c ****                                                        (key_touch_HSIOM_SEL_CSD_SHIELD << pinHSIOMS
 827:Generated_Source\PSoC4/key_touch_Sensing.c ****                     break;
 828:Generated_Source\PSoC4/key_touch_Sensing.c ****             #endif  /* (key_touch_ENABLE == key_touch_CSD_SHIELD_EN) */
 829:Generated_Source\PSoC4/key_touch_Sensing.c **** 
 830:Generated_Source\PSoC4/key_touch_Sensing.c ****             #if ((key_touch_ENABLE == key_touch_CSD_EN) || \
 831:Generated_Source\PSoC4/key_touch_Sensing.c ****                  (key_touch_ENABLE == key_touch_CSD_CSX_EN))
 832:Generated_Source\PSoC4/key_touch_Sensing.c ****                 case key_touch_SENSOR:
 833:Generated_Source\PSoC4/key_touch_Sensing.c ****                     /* Enable sensor */
 834:Generated_Source\PSoC4/key_touch_Sensing.c ****                     key_touch_CSDConnectSns(curSnsIOPtr);
 353              		.loc 1 834 0
 354 0082 201C     		mov	r0, r4
ARM GAS  C:\Users\Administrator\AppData\Local\Temp\ccPYRpEO.s 			page 22


 355 0084 FFF7FEFF 		bl	key_touch_CSDConnectSns
 356              	.LVL33:
 357              	.L27:
 835:Generated_Source\PSoC4/key_touch_Sensing.c ****                     break;
 836:Generated_Source\PSoC4/key_touch_Sensing.c ****             #endif  /* ((key_touch_ENABLE == key_touch_CSD_EN) || \
 837:Generated_Source\PSoC4/key_touch_Sensing.c ****                         (key_touch_ENABLE == key_touch_CSD_CSX_EN)) */
 838:Generated_Source\PSoC4/key_touch_Sensing.c **** 
 839:Generated_Source\PSoC4/key_touch_Sensing.c ****             #if ((key_touch_ENABLE == key_touch_CSX_EN) || \
 840:Generated_Source\PSoC4/key_touch_Sensing.c ****                  (key_touch_ENABLE == key_touch_CSD_CSX_EN))
 841:Generated_Source\PSoC4/key_touch_Sensing.c ****                 case key_touch_TX_PIN:
 842:Generated_Source\PSoC4/key_touch_Sensing.c ****                     CY_SET_REG32(curSnsIOPtr->hsiomPtr, CY_GET_REG32(curSnsIOPtr->hsiomPtr) | (key_
 843:Generated_Source\PSoC4/key_touch_Sensing.c ****                     CY_SET_REG32(curSnsIOPtr->pcPtr, CY_GET_REG32(curSnsIOPtr->pcPtr) | (key_touch_
 844:Generated_Source\PSoC4/key_touch_Sensing.c ****                     break;
 845:Generated_Source\PSoC4/key_touch_Sensing.c **** 
 846:Generated_Source\PSoC4/key_touch_Sensing.c ****                 case key_touch_RX_PIN:
 847:Generated_Source\PSoC4/key_touch_Sensing.c ****                     CY_SET_REG32(curSnsIOPtr->hsiomPtr, CY_GET_REG32(curSnsIOPtr->hsiomPtr) | (key_
 848:Generated_Source\PSoC4/key_touch_Sensing.c ****                     CY_SET_REG32(curSnsIOPtr->pcPtr, CY_GET_REG32(curSnsIOPtr->pcPtr) & ~(key_touch
 849:Generated_Source\PSoC4/key_touch_Sensing.c ****                     break;
 850:Generated_Source\PSoC4/key_touch_Sensing.c ****             #endif  /* ((key_touch_ENABLE == key_touch_CSX_EN) || \
 851:Generated_Source\PSoC4/key_touch_Sensing.c ****                         (key_touch_ENABLE == key_touch_CSD_CSX_EN)) */
 852:Generated_Source\PSoC4/key_touch_Sensing.c **** 
 853:Generated_Source\PSoC4/key_touch_Sensing.c ****             default:
 854:Generated_Source\PSoC4/key_touch_Sensing.c ****                 /* Wrong input */
 855:Generated_Source\PSoC4/key_touch_Sensing.c ****                 break;
 856:Generated_Source\PSoC4/key_touch_Sensing.c ****             }
 857:Generated_Source\PSoC4/key_touch_Sensing.c **** 
 858:Generated_Source\PSoC4/key_touch_Sensing.c ****     #if (key_touch_ENABLE == key_touch_CSD_GANGED_SNS_EN)
 859:Generated_Source\PSoC4/key_touch_Sensing.c ****             curSnsIOPtr++;
 860:Generated_Source\PSoC4/key_touch_Sensing.c ****             tempVal--;
 861:Generated_Source\PSoC4/key_touch_Sensing.c ****         } while (0u != tempVal);
 862:Generated_Source\PSoC4/key_touch_Sensing.c ****     #endif  /* (key_touch_ENABLE == key_touch_CSD_GANGED_SNS_EN) */
 863:Generated_Source\PSoC4/key_touch_Sensing.c **** }
 358              		.loc 1 863 0
 359              		@ sp needed
 360              	.LVL34:
 361              	.LVL35:
 362 0088 70BD     		pop	{r4, r5, r6, pc}
 363              	.L33:
 364 008a C046     		.align	2
 365              	.L32:
 366 008c 00000000 		.word	key_touch_dsFlash
 367              		.cfi_endproc
 368              	.LFE6:
 369              		.size	key_touch_SetPinState, .-key_touch_SetPinState
 370              		.section	.text.key_touch_SsPostAllWidgetsScan,"ax",%progbits
 371              		.align	2
 372              		.global	key_touch_SsPostAllWidgetsScan
 373              		.code	16
 374              		.thumb_func
 375              		.type	key_touch_SsPostAllWidgetsScan, %function
 376              	key_touch_SsPostAllWidgetsScan:
 377              	.LFB7:
 864:Generated_Source\PSoC4/key_touch_Sensing.c **** 
 865:Generated_Source\PSoC4/key_touch_Sensing.c **** 
 866:Generated_Source\PSoC4/key_touch_Sensing.c **** #if ((key_touch_ENABLE == key_touch_CSD_CSX_EN) || \
 867:Generated_Source\PSoC4/key_touch_Sensing.c ****      (key_touch_ENABLE == key_touch_SELF_TEST_EN) || \
 868:Generated_Source\PSoC4/key_touch_Sensing.c ****      (key_touch_ENABLE == key_touch_ADC_EN))
ARM GAS  C:\Users\Administrator\AppData\Local\Temp\ccPYRpEO.s 			page 23


 869:Generated_Source\PSoC4/key_touch_Sensing.c **** 
 870:Generated_Source\PSoC4/key_touch_Sensing.c ****     #if (key_touch_ENABLE == key_touch_CSD_EN)
 871:Generated_Source\PSoC4/key_touch_Sensing.c ****         /*******************************************************************************
 872:Generated_Source\PSoC4/key_touch_Sensing.c ****         * Function Name: key_touch_SsCSDDisableMode
 873:Generated_Source\PSoC4/key_touch_Sensing.c ****         ****************************************************************************//**
 874:Generated_Source\PSoC4/key_touch_Sensing.c ****         *
 875:Generated_Source\PSoC4/key_touch_Sensing.c ****         * \brief
 876:Generated_Source\PSoC4/key_touch_Sensing.c ****         *  This function disables CSD mode.
 877:Generated_Source\PSoC4/key_touch_Sensing.c ****         *
 878:Generated_Source\PSoC4/key_touch_Sensing.c ****         * \details
 879:Generated_Source\PSoC4/key_touch_Sensing.c ****         *  To disable CSD mode the following tasks are performed:
 880:Generated_Source\PSoC4/key_touch_Sensing.c ****         *  1. Disconnect Cmod from AMUXBUS-A;
 881:Generated_Source\PSoC4/key_touch_Sensing.c ****         *  2. Disconnect previous CSX electrode if it has been connected;
 882:Generated_Source\PSoC4/key_touch_Sensing.c ****         *  3. Disconnect Csh from AMUXBUS-B;
 883:Generated_Source\PSoC4/key_touch_Sensing.c ****         *  4. Disable Shield Electrodes.
 884:Generated_Source\PSoC4/key_touch_Sensing.c ****         *
 885:Generated_Source\PSoC4/key_touch_Sensing.c ****         *******************************************************************************/
 886:Generated_Source\PSoC4/key_touch_Sensing.c ****         static void key_touch_SsCSDDisableMode(void)
 887:Generated_Source\PSoC4/key_touch_Sensing.c ****         {
 888:Generated_Source\PSoC4/key_touch_Sensing.c ****             uint32 newRegValue;
 889:Generated_Source\PSoC4/key_touch_Sensing.c **** 
 890:Generated_Source\PSoC4/key_touch_Sensing.c ****             /* Disconnect Cmod from AMUXBUS-A using HSIOM registers */
 891:Generated_Source\PSoC4/key_touch_Sensing.c ****             newRegValue = CY_GET_REG32(key_touch_CMOD_HSIOM_PTR);
 892:Generated_Source\PSoC4/key_touch_Sensing.c ****             newRegValue &= (uint32)(~(uint32)key_touch_CMOD_HSIOM_MASK);
 893:Generated_Source\PSoC4/key_touch_Sensing.c ****             CY_SET_REG32(key_touch_CMOD_HSIOM_PTR, newRegValue);
 894:Generated_Source\PSoC4/key_touch_Sensing.c **** 
 895:Generated_Source\PSoC4/key_touch_Sensing.c ****             #if ((key_touch_ENABLE == key_touch_CSDV2) && \
 896:Generated_Source\PSoC4/key_touch_Sensing.c ****                  ((key_touch_ENABLE == key_touch_CSD_IDAC_COMP_EN) && \
 897:Generated_Source\PSoC4/key_touch_Sensing.c ****                  (key_touch_ENABLE == key_touch_CSD_DEDICATED_IDAC_COMP_EN)))
 898:Generated_Source\PSoC4/key_touch_Sensing.c ****                 /* Disconnect IDACA and IDACB */
 899:Generated_Source\PSoC4/key_touch_Sensing.c ****                 newRegValue = CY_GET_REG32(key_touch_SW_REFGEN_SEL_PTR);
 900:Generated_Source\PSoC4/key_touch_Sensing.c ****                 newRegValue &= (uint32)(~key_touch_SW_REFGEN_SEL_SW_IAIB_MASK);
 901:Generated_Source\PSoC4/key_touch_Sensing.c ****                 CY_SET_REG32(key_touch_SW_REFGEN_SEL_PTR, newRegValue);
 902:Generated_Source\PSoC4/key_touch_Sensing.c ****             #endif /* ((key_touch_ENABLE == key_touch_CSDV2) && \
 903:Generated_Source\PSoC4/key_touch_Sensing.c ****                        ((key_touch_ENABLE == key_touch_CSD_IDAC_COMP_EN) && \
 904:Generated_Source\PSoC4/key_touch_Sensing.c ****                        (key_touch_ENABLE == key_touch_CSD_DEDICATED_IDAC_COMP_EN))) */
 905:Generated_Source\PSoC4/key_touch_Sensing.c **** 
 906:Generated_Source\PSoC4/key_touch_Sensing.c ****             /* Disconnect previous CSD electrode if it has been connected */
 907:Generated_Source\PSoC4/key_touch_Sensing.c ****             key_touch_SsCSDElectrodeCheck();
 908:Generated_Source\PSoC4/key_touch_Sensing.c **** 
 909:Generated_Source\PSoC4/key_touch_Sensing.c ****             /* Disconnect Csh from AMUXBUS-B */
 910:Generated_Source\PSoC4/key_touch_Sensing.c ****             #if ((key_touch_ENABLE == key_touch_CSD_SHIELD_EN) && \
 911:Generated_Source\PSoC4/key_touch_Sensing.c ****                  (key_touch_ENABLE == key_touch_CSD_SHIELD_TANK_EN))
 912:Generated_Source\PSoC4/key_touch_Sensing.c ****                 newRegValue = CY_GET_REG32(key_touch_CSH_HSIOM_PTR);
 913:Generated_Source\PSoC4/key_touch_Sensing.c ****                 newRegValue &= (uint32)(~(uint32)(key_touch_CSH_TO_AMUXBUS_B_MASK << key_touch_CSH_
 914:Generated_Source\PSoC4/key_touch_Sensing.c ****                 CY_SET_REG32(key_touch_CSH_HSIOM_PTR, newRegValue);
 915:Generated_Source\PSoC4/key_touch_Sensing.c ****             #endif /* ((key_touch_ENABLE == key_touch_CSD_SHIELD_EN) && \
 916:Generated_Source\PSoC4/key_touch_Sensing.c ****                        (key_touch_ENABLE == key_touch_CSD_SHIELD_TANK_EN)) */
 917:Generated_Source\PSoC4/key_touch_Sensing.c **** 
 918:Generated_Source\PSoC4/key_touch_Sensing.c ****             #if ((key_touch_ENABLE == key_touch_CSD_SHIELD_EN) && \
 919:Generated_Source\PSoC4/key_touch_Sensing.c ****                  (0u != key_touch_CSD_TOTAL_SHIELD_COUNT))
 920:Generated_Source\PSoC4/key_touch_Sensing.c ****                 key_touch_SsCSDDisableShieldElectrodes();
 921:Generated_Source\PSoC4/key_touch_Sensing.c ****             #endif /* ((key_touch_ENABLE == key_touch_CSD_SHIELD_EN) && \
 922:Generated_Source\PSoC4/key_touch_Sensing.c ****                        (0u != key_touch_CSD_TOTAL_SHIELD_COUNT)) */
 923:Generated_Source\PSoC4/key_touch_Sensing.c ****         }
 924:Generated_Source\PSoC4/key_touch_Sensing.c ****     #endif /* (key_touch_ENABLE == key_touch_CSD_EN) */
 925:Generated_Source\PSoC4/key_touch_Sensing.c **** 
ARM GAS  C:\Users\Administrator\AppData\Local\Temp\ccPYRpEO.s 			page 24


 926:Generated_Source\PSoC4/key_touch_Sensing.c **** 
 927:Generated_Source\PSoC4/key_touch_Sensing.c ****     #if (key_touch_ENABLE == key_touch_CSX_EN)
 928:Generated_Source\PSoC4/key_touch_Sensing.c ****         /*******************************************************************************
 929:Generated_Source\PSoC4/key_touch_Sensing.c ****         * Function Name: key_touch_SsDisableCSXMode
 930:Generated_Source\PSoC4/key_touch_Sensing.c ****         ****************************************************************************//**
 931:Generated_Source\PSoC4/key_touch_Sensing.c ****         *
 932:Generated_Source\PSoC4/key_touch_Sensing.c ****         * \brief
 933:Generated_Source\PSoC4/key_touch_Sensing.c ****         *  This function disables CSX mode.
 934:Generated_Source\PSoC4/key_touch_Sensing.c ****         *
 935:Generated_Source\PSoC4/key_touch_Sensing.c ****         * \details
 936:Generated_Source\PSoC4/key_touch_Sensing.c ****         *  To disable CSX mode the following tasks are performed:
 937:Generated_Source\PSoC4/key_touch_Sensing.c ****         *  1. Disconnect CintA and CintB from AMUXBUS-A
 938:Generated_Source\PSoC4/key_touch_Sensing.c ****         *  2. Disconnect previous CSX electrode if it has been connected
 939:Generated_Source\PSoC4/key_touch_Sensing.c ****         *
 940:Generated_Source\PSoC4/key_touch_Sensing.c ****         *******************************************************************************/
 941:Generated_Source\PSoC4/key_touch_Sensing.c ****         static void key_touch_SsDisableCSXMode(void)
 942:Generated_Source\PSoC4/key_touch_Sensing.c ****         {
 943:Generated_Source\PSoC4/key_touch_Sensing.c ****             uint32 newRegValue;
 944:Generated_Source\PSoC4/key_touch_Sensing.c **** 
 945:Generated_Source\PSoC4/key_touch_Sensing.c ****             /*  Disconnect CintA from AMUXBUS-A using HSIOM registers.   */
 946:Generated_Source\PSoC4/key_touch_Sensing.c ****             newRegValue = CY_GET_REG32(key_touch_CintA_HSIOM_PTR);
 947:Generated_Source\PSoC4/key_touch_Sensing.c ****             newRegValue &= (uint32)(~(uint32)key_touch_CintA_HSIOM_MASK);
 948:Generated_Source\PSoC4/key_touch_Sensing.c ****             CY_SET_REG32(key_touch_CintA_HSIOM_PTR, newRegValue);
 949:Generated_Source\PSoC4/key_touch_Sensing.c **** 
 950:Generated_Source\PSoC4/key_touch_Sensing.c ****             /*  Disconnect CintB from AMUXBUS-A using HSIOM registers.   */
 951:Generated_Source\PSoC4/key_touch_Sensing.c ****             newRegValue = CY_GET_REG32(key_touch_CintB_HSIOM_PTR);
 952:Generated_Source\PSoC4/key_touch_Sensing.c ****             newRegValue &= (uint32)(~(uint32)key_touch_CintB_HSIOM_MASK);
 953:Generated_Source\PSoC4/key_touch_Sensing.c ****             CY_SET_REG32(key_touch_CintB_HSIOM_PTR, newRegValue);
 954:Generated_Source\PSoC4/key_touch_Sensing.c **** 
 955:Generated_Source\PSoC4/key_touch_Sensing.c ****             /* Disconnect previous CSX electrode if it has been connected */
 956:Generated_Source\PSoC4/key_touch_Sensing.c ****             key_touch_CSXElectrodeCheck();
 957:Generated_Source\PSoC4/key_touch_Sensing.c ****         }
 958:Generated_Source\PSoC4/key_touch_Sensing.c ****     #endif /* (key_touch_ENABLE == key_touch_CSX_EN) */
 959:Generated_Source\PSoC4/key_touch_Sensing.c **** 
 960:Generated_Source\PSoC4/key_touch_Sensing.c **** 
 961:Generated_Source\PSoC4/key_touch_Sensing.c ****     /*******************************************************************************
 962:Generated_Source\PSoC4/key_touch_Sensing.c ****     * Function Name: key_touch_SsSwitchSensingMode
 963:Generated_Source\PSoC4/key_touch_Sensing.c ****     ****************************************************************************//**
 964:Generated_Source\PSoC4/key_touch_Sensing.c ****     *
 965:Generated_Source\PSoC4/key_touch_Sensing.c ****     * \brief
 966:Generated_Source\PSoC4/key_touch_Sensing.c ****     *  This function changes the mode for case when both CSD and CSX widgets are
 967:Generated_Source\PSoC4/key_touch_Sensing.c ****     *  scanned.
 968:Generated_Source\PSoC4/key_touch_Sensing.c ****     *
 969:Generated_Source\PSoC4/key_touch_Sensing.c ****     * \details
 970:Generated_Source\PSoC4/key_touch_Sensing.c ****     *  To switch to the CSD mode the following tasks are performed:
 971:Generated_Source\PSoC4/key_touch_Sensing.c ****     *  1. Disconnect CintA and CintB from AMUXBUS-A;
 972:Generated_Source\PSoC4/key_touch_Sensing.c ****     *  2. Disconnect previous CSD electrode if it has been connected;
 973:Generated_Source\PSoC4/key_touch_Sensing.c ****     *  3. Initialize CSD mode.
 974:Generated_Source\PSoC4/key_touch_Sensing.c ****     *
 975:Generated_Source\PSoC4/key_touch_Sensing.c ****     *  To switch to the CSX mode the following tasks are performed:
 976:Generated_Source\PSoC4/key_touch_Sensing.c ****     *  1. Disconnect Cmod from AMUXBUS-A;
 977:Generated_Source\PSoC4/key_touch_Sensing.c ****     *  2. Disconnect previous CSX electrode if it has been connected;
 978:Generated_Source\PSoC4/key_touch_Sensing.c ****     *  3. Initialize CSX mode.
 979:Generated_Source\PSoC4/key_touch_Sensing.c ****     *
 980:Generated_Source\PSoC4/key_touch_Sensing.c ****     * \param mode Specifies the scan mode:
 981:Generated_Source\PSoC4/key_touch_Sensing.c ****     *           -  (1) key_touch_SENSE_METHOD_CSD_E
 982:Generated_Source\PSoC4/key_touch_Sensing.c ****     *           -  (2) key_touch_SENSE_METHOD_CSX_E
ARM GAS  C:\Users\Administrator\AppData\Local\Temp\ccPYRpEO.s 			page 25


 983:Generated_Source\PSoC4/key_touch_Sensing.c ****     *           -  (3) key_touch_SENSE_METHOD_BIST_E
 984:Generated_Source\PSoC4/key_touch_Sensing.c ****     *
 985:Generated_Source\PSoC4/key_touch_Sensing.c ****     *******************************************************************************/
 986:Generated_Source\PSoC4/key_touch_Sensing.c ****     void key_touch_SsSwitchSensingMode(key_touch_SENSE_METHOD_ENUM mode)
 987:Generated_Source\PSoC4/key_touch_Sensing.c ****     {
 988:Generated_Source\PSoC4/key_touch_Sensing.c ****         if (key_touch_currentSenseMethod != mode)
 989:Generated_Source\PSoC4/key_touch_Sensing.c ****         {
 990:Generated_Source\PSoC4/key_touch_Sensing.c ****             /* The requested mode differes to the current one. Disable the current mode */
 991:Generated_Source\PSoC4/key_touch_Sensing.c ****             if (key_touch_SENSE_METHOD_CSD_E ==  key_touch_currentSenseMethod)
 992:Generated_Source\PSoC4/key_touch_Sensing.c ****             {
 993:Generated_Source\PSoC4/key_touch_Sensing.c ****                 #if (key_touch_ENABLE == key_touch_CSD_EN)
 994:Generated_Source\PSoC4/key_touch_Sensing.c ****                     key_touch_SsCSDDisableMode();
 995:Generated_Source\PSoC4/key_touch_Sensing.c ****                 #endif /* (key_touch_ENABLE == key_touch_CSD_EN) */
 996:Generated_Source\PSoC4/key_touch_Sensing.c ****             }
 997:Generated_Source\PSoC4/key_touch_Sensing.c ****             else if (key_touch_SENSE_METHOD_CSX_E ==  key_touch_currentSenseMethod)
 998:Generated_Source\PSoC4/key_touch_Sensing.c ****             {
 999:Generated_Source\PSoC4/key_touch_Sensing.c ****                 #if (key_touch_ENABLE == key_touch_CSX_EN)
1000:Generated_Source\PSoC4/key_touch_Sensing.c ****                     key_touch_SsDisableCSXMode();
1001:Generated_Source\PSoC4/key_touch_Sensing.c ****                 #endif /* (key_touch_ENABLE == key_touch_CSX_EN) */
1002:Generated_Source\PSoC4/key_touch_Sensing.c ****             }
1003:Generated_Source\PSoC4/key_touch_Sensing.c ****             else if (key_touch_SENSE_METHOD_BIST_E ==  key_touch_currentSenseMethod)
1004:Generated_Source\PSoC4/key_touch_Sensing.c ****             {
1005:Generated_Source\PSoC4/key_touch_Sensing.c ****                 #if (key_touch_ENABLE == key_touch_SELF_TEST_EN)
1006:Generated_Source\PSoC4/key_touch_Sensing.c ****                     key_touch_BistDisableMode();
1007:Generated_Source\PSoC4/key_touch_Sensing.c ****                 #endif /* (key_touch_ENABLE == key_touch_CSX_EN) */
1008:Generated_Source\PSoC4/key_touch_Sensing.c ****             }
1009:Generated_Source\PSoC4/key_touch_Sensing.c ****             else
1010:Generated_Source\PSoC4/key_touch_Sensing.c ****             {
1011:Generated_Source\PSoC4/key_touch_Sensing.c ****                 #if (key_touch_ENABLE == key_touch_ADC_EN)
1012:Generated_Source\PSoC4/key_touch_Sensing.c ****                     /* Release ADC resources */
1013:Generated_Source\PSoC4/key_touch_Sensing.c ****                     (void)key_touch_AdcReleaseResources();
1014:Generated_Source\PSoC4/key_touch_Sensing.c ****                 #endif /* (key_touch_ENABLE == key_touch_ADC_EN) */
1015:Generated_Source\PSoC4/key_touch_Sensing.c ****             }
1016:Generated_Source\PSoC4/key_touch_Sensing.c **** 
1017:Generated_Source\PSoC4/key_touch_Sensing.c ****             /* Enable the specified mode */
1018:Generated_Source\PSoC4/key_touch_Sensing.c ****             if (key_touch_SENSE_METHOD_CSD_E == mode)
1019:Generated_Source\PSoC4/key_touch_Sensing.c ****             {
1020:Generated_Source\PSoC4/key_touch_Sensing.c ****                 #if (key_touch_ENABLE == key_touch_CSD_EN)
1021:Generated_Source\PSoC4/key_touch_Sensing.c ****                     /* Initialize CSD mode to guarantee configured CSD mode */
1022:Generated_Source\PSoC4/key_touch_Sensing.c ****                     key_touch_SsCSDInitialize();
1023:Generated_Source\PSoC4/key_touch_Sensing.c ****                     key_touch_currentSenseMethod = key_touch_SENSE_METHOD_CSD_E;
1024:Generated_Source\PSoC4/key_touch_Sensing.c ****                 #endif /* (key_touch_ENABLE == key_touch_CSD_EN) */
1025:Generated_Source\PSoC4/key_touch_Sensing.c ****             }
1026:Generated_Source\PSoC4/key_touch_Sensing.c ****             else if (key_touch_SENSE_METHOD_CSX_E == mode)
1027:Generated_Source\PSoC4/key_touch_Sensing.c ****             {
1028:Generated_Source\PSoC4/key_touch_Sensing.c ****                 #if (key_touch_ENABLE == key_touch_CSX_EN)
1029:Generated_Source\PSoC4/key_touch_Sensing.c ****                     /* Initialize CSX mode to guarantee configured CSX mode */
1030:Generated_Source\PSoC4/key_touch_Sensing.c ****                     key_touch_CSXInitialize();
1031:Generated_Source\PSoC4/key_touch_Sensing.c ****                     key_touch_currentSenseMethod = key_touch_SENSE_METHOD_CSX_E;
1032:Generated_Source\PSoC4/key_touch_Sensing.c ****                 #endif /* (key_touch_ENABLE == key_touch_CSX_EN) */
1033:Generated_Source\PSoC4/key_touch_Sensing.c ****             }
1034:Generated_Source\PSoC4/key_touch_Sensing.c ****             else if (key_touch_SENSE_METHOD_BIST_E == mode)
1035:Generated_Source\PSoC4/key_touch_Sensing.c ****             {
1036:Generated_Source\PSoC4/key_touch_Sensing.c ****                 #if (key_touch_ENABLE == key_touch_SELF_TEST_EN)
1037:Generated_Source\PSoC4/key_touch_Sensing.c ****                     /* Initialize CSX mode to guarantee configured CSX mode */
1038:Generated_Source\PSoC4/key_touch_Sensing.c ****                     key_touch_BistInitialize();
1039:Generated_Source\PSoC4/key_touch_Sensing.c ****                     key_touch_currentSenseMethod = key_touch_SENSE_METHOD_BIST_E;
ARM GAS  C:\Users\Administrator\AppData\Local\Temp\ccPYRpEO.s 			page 26


1040:Generated_Source\PSoC4/key_touch_Sensing.c ****                 #endif /* (key_touch_ENABLE == key_touch_CSX_EN) */
1041:Generated_Source\PSoC4/key_touch_Sensing.c ****             }
1042:Generated_Source\PSoC4/key_touch_Sensing.c ****             else
1043:Generated_Source\PSoC4/key_touch_Sensing.c ****             {
1044:Generated_Source\PSoC4/key_touch_Sensing.c ****                 key_touch_currentSenseMethod = key_touch_UNDEFINED_E;
1045:Generated_Source\PSoC4/key_touch_Sensing.c ****             }
1046:Generated_Source\PSoC4/key_touch_Sensing.c ****         }
1047:Generated_Source\PSoC4/key_touch_Sensing.c ****     }
1048:Generated_Source\PSoC4/key_touch_Sensing.c **** #endif  /* ((key_touch_ENABLE == key_touch_CSD_CSX_EN) || \
1049:Generated_Source\PSoC4/key_touch_Sensing.c ****             (key_touch_ENABLE == key_touch_SELF_TEST_EN) || \
1050:Generated_Source\PSoC4/key_touch_Sensing.c ****             (key_touch_ENABLE == key_touch_ADC_EN)) */
1051:Generated_Source\PSoC4/key_touch_Sensing.c **** 
1052:Generated_Source\PSoC4/key_touch_Sensing.c **** #if ((key_touch_ENABLE == key_touch_CSX_EN) || \
1053:Generated_Source\PSoC4/key_touch_Sensing.c ****      (key_touch_ENABLE == key_touch_SELF_TEST_EN) || \
1054:Generated_Source\PSoC4/key_touch_Sensing.c ****      (key_touch_ENABLE == key_touch_ADC_EN))
1055:Generated_Source\PSoC4/key_touch_Sensing.c ****     /*******************************************************************************
1056:Generated_Source\PSoC4/key_touch_Sensing.c ****     * Function Name: key_touch_SsSetIOsInDefaultState
1057:Generated_Source\PSoC4/key_touch_Sensing.c ****     ****************************************************************************//**
1058:Generated_Source\PSoC4/key_touch_Sensing.c ****     *
1059:Generated_Source\PSoC4/key_touch_Sensing.c ****     * \brief
1060:Generated_Source\PSoC4/key_touch_Sensing.c ****     *   Sets all electrodes into a default state.
1061:Generated_Source\PSoC4/key_touch_Sensing.c ****     *
1062:Generated_Source\PSoC4/key_touch_Sensing.c ****     * \details
1063:Generated_Source\PSoC4/key_touch_Sensing.c ****     *   Sets all IOs into a default state:
1064:Generated_Source\PSoC4/key_touch_Sensing.c ****     *   - HSIOM   - Disconnected, the GPIO mode.
1065:Generated_Source\PSoC4/key_touch_Sensing.c ****     *   - DM      - Strong drive.
1066:Generated_Source\PSoC4/key_touch_Sensing.c ****     *   - State   - Zero.
1067:Generated_Source\PSoC4/key_touch_Sensing.c ****     *
1068:Generated_Source\PSoC4/key_touch_Sensing.c ****     *   It is not recommended to call this function directly from the application
1069:Generated_Source\PSoC4/key_touch_Sensing.c ****     *   layer.
1070:Generated_Source\PSoC4/key_touch_Sensing.c ****     *
1071:Generated_Source\PSoC4/key_touch_Sensing.c ****     *******************************************************************************/
1072:Generated_Source\PSoC4/key_touch_Sensing.c ****     void key_touch_SsSetIOsInDefaultState(void)
1073:Generated_Source\PSoC4/key_touch_Sensing.c ****     {
1074:Generated_Source\PSoC4/key_touch_Sensing.c ****         key_touch_FLASH_IO_STRUCT const *ioPtr = &key_touch_ioList[0u];
1075:Generated_Source\PSoC4/key_touch_Sensing.c ****         uint32 loopIndex;
1076:Generated_Source\PSoC4/key_touch_Sensing.c ****         uint32 regValue;
1077:Generated_Source\PSoC4/key_touch_Sensing.c **** 
1078:Generated_Source\PSoC4/key_touch_Sensing.c ****         /*  Loop through all electrodes */
1079:Generated_Source\PSoC4/key_touch_Sensing.c ****         for (loopIndex = 0u; loopIndex < key_touch_TOTAL_ELECTRODES; loopIndex++)
1080:Generated_Source\PSoC4/key_touch_Sensing.c ****         {
1081:Generated_Source\PSoC4/key_touch_Sensing.c ****             /*  1. Disconnect HSIOM
1082:Generated_Source\PSoC4/key_touch_Sensing.c ****                 2. Set strong DM
1083:Generated_Source\PSoC4/key_touch_Sensing.c ****                 3. Set pin state to logic 0     */
1084:Generated_Source\PSoC4/key_touch_Sensing.c ****             regValue = CY_GET_REG32 (ioPtr->hsiomPtr);
1085:Generated_Source\PSoC4/key_touch_Sensing.c ****             regValue &= ~(ioPtr->hsiomMask);
1086:Generated_Source\PSoC4/key_touch_Sensing.c ****             CY_SET_REG32 (ioPtr->hsiomPtr, regValue);
1087:Generated_Source\PSoC4/key_touch_Sensing.c **** 
1088:Generated_Source\PSoC4/key_touch_Sensing.c ****             regValue = CY_GET_REG32 (ioPtr->pcPtr);
1089:Generated_Source\PSoC4/key_touch_Sensing.c ****             regValue &= ~(key_touch_GPIO_PC_MASK << ioPtr->shift);
1090:Generated_Source\PSoC4/key_touch_Sensing.c ****             regValue |=  (key_touch_GPIO_STRGDRV << ioPtr->shift);
1091:Generated_Source\PSoC4/key_touch_Sensing.c ****             CY_SET_REG32 (ioPtr->pcPtr, regValue);
1092:Generated_Source\PSoC4/key_touch_Sensing.c **** 
1093:Generated_Source\PSoC4/key_touch_Sensing.c ****             regValue = CY_GET_REG32 (ioPtr->drPtr);
1094:Generated_Source\PSoC4/key_touch_Sensing.c ****             regValue &= ~(ioPtr->mask);
1095:Generated_Source\PSoC4/key_touch_Sensing.c ****             CY_SET_REG32 (ioPtr->drPtr, regValue);
1096:Generated_Source\PSoC4/key_touch_Sensing.c **** 
ARM GAS  C:\Users\Administrator\AppData\Local\Temp\ccPYRpEO.s 			page 27


1097:Generated_Source\PSoC4/key_touch_Sensing.c ****             /*  Get next electrode  */
1098:Generated_Source\PSoC4/key_touch_Sensing.c ****             ioPtr++;
1099:Generated_Source\PSoC4/key_touch_Sensing.c ****         }
1100:Generated_Source\PSoC4/key_touch_Sensing.c ****     }
1101:Generated_Source\PSoC4/key_touch_Sensing.c **** #endif /* ((key_touch_ENABLE == key_touch_CSX_EN) || \
1102:Generated_Source\PSoC4/key_touch_Sensing.c ****           (key_touch_ENABLE == key_touch_SELF_TEST_EN) || \
1103:Generated_Source\PSoC4/key_touch_Sensing.c ****           (key_touch_ENABLE == key_touch_ADC_EN)) */
1104:Generated_Source\PSoC4/key_touch_Sensing.c **** 
1105:Generated_Source\PSoC4/key_touch_Sensing.c **** 
1106:Generated_Source\PSoC4/key_touch_Sensing.c **** #if (key_touch_ENABLE == key_touch_ADC_EN)
1107:Generated_Source\PSoC4/key_touch_Sensing.c **** /*******************************************************************************
1108:Generated_Source\PSoC4/key_touch_Sensing.c **** * Function Name: key_touch_SsReleaseResources()
1109:Generated_Source\PSoC4/key_touch_Sensing.c **** ****************************************************************************//**
1110:Generated_Source\PSoC4/key_touch_Sensing.c **** *
1111:Generated_Source\PSoC4/key_touch_Sensing.c **** * \brief
1112:Generated_Source\PSoC4/key_touch_Sensing.c **** *  This function sets the resources that do not belong to the CSDv2 HW block to
1113:Generated_Source\PSoC4/key_touch_Sensing.c **** *  default state.
1114:Generated_Source\PSoC4/key_touch_Sensing.c **** *
1115:Generated_Source\PSoC4/key_touch_Sensing.c **** * \details
1116:Generated_Source\PSoC4/key_touch_Sensing.c **** *  The function performs following tasks:
1117:Generated_Source\PSoC4/key_touch_Sensing.c **** *  1. Checks if CSD block busy and returns error if it is busy
1118:Generated_Source\PSoC4/key_touch_Sensing.c **** *  2. Disconnects integration capacitors (CintA, CintB for CSX mode and
1119:Generated_Source\PSoC4/key_touch_Sensing.c **** *     Cmod for CSD mode)
1120:Generated_Source\PSoC4/key_touch_Sensing.c **** *  3. Disconnect electroded if they have been connected.
1121:Generated_Source\PSoC4/key_touch_Sensing.c **** *
1122:Generated_Source\PSoC4/key_touch_Sensing.c **** * \return
1123:Generated_Source\PSoC4/key_touch_Sensing.c **** *   Returns the status of operation:
1124:Generated_Source\PSoC4/key_touch_Sensing.c **** *   - Zero        - Resources released successfully.
1125:Generated_Source\PSoC4/key_touch_Sensing.c **** *   - Non-zero    - One or more errors occurred in releasing process.
1126:Generated_Source\PSoC4/key_touch_Sensing.c **** *
1127:Generated_Source\PSoC4/key_touch_Sensing.c **** *******************************************************************************/
1128:Generated_Source\PSoC4/key_touch_Sensing.c **** cystatus key_touch_SsReleaseResources(void)
1129:Generated_Source\PSoC4/key_touch_Sensing.c **** {
1130:Generated_Source\PSoC4/key_touch_Sensing.c ****     cystatus busyStatus = CYRET_SUCCESS;
1131:Generated_Source\PSoC4/key_touch_Sensing.c **** 
1132:Generated_Source\PSoC4/key_touch_Sensing.c ****     if (key_touch_SW_STS_BUSY == (key_touch_dsRam.status & key_touch_SW_STS_BUSY))
1133:Generated_Source\PSoC4/key_touch_Sensing.c ****     {
1134:Generated_Source\PSoC4/key_touch_Sensing.c ****         /* Previous widget is being scanned. Return error. */
1135:Generated_Source\PSoC4/key_touch_Sensing.c ****         busyStatus = CYRET_INVALID_STATE;
1136:Generated_Source\PSoC4/key_touch_Sensing.c ****     }
1137:Generated_Source\PSoC4/key_touch_Sensing.c ****     else
1138:Generated_Source\PSoC4/key_touch_Sensing.c ****     {
1139:Generated_Source\PSoC4/key_touch_Sensing.c ****         #if (key_touch_ENABLE == key_touch_CSX_EN)
1140:Generated_Source\PSoC4/key_touch_Sensing.c ****             key_touch_SsDisableCSXMode();
1141:Generated_Source\PSoC4/key_touch_Sensing.c ****         #endif /* (key_touch_ENABLE == key_touch_CSX_EN) */
1142:Generated_Source\PSoC4/key_touch_Sensing.c **** 
1143:Generated_Source\PSoC4/key_touch_Sensing.c ****         #if (key_touch_ENABLE == key_touch_CSD_EN)
1144:Generated_Source\PSoC4/key_touch_Sensing.c ****             key_touch_SsCSDDisableMode();
1145:Generated_Source\PSoC4/key_touch_Sensing.c ****         #endif /* (key_touch_ENABLE == key_touch_CSD_EN) */
1146:Generated_Source\PSoC4/key_touch_Sensing.c **** 
1147:Generated_Source\PSoC4/key_touch_Sensing.c ****         #if (key_touch_ENABLE == key_touch_SELF_TEST_EN)
1148:Generated_Source\PSoC4/key_touch_Sensing.c ****             key_touch_BistDisableMode();
1149:Generated_Source\PSoC4/key_touch_Sensing.c ****         #endif /* (key_touch_ENABLE == key_touch_SELF_TEST_EN) */
1150:Generated_Source\PSoC4/key_touch_Sensing.c **** 
1151:Generated_Source\PSoC4/key_touch_Sensing.c ****         #if ((key_touch_ENABLE == key_touch_CSD_EN) && \
1152:Generated_Source\PSoC4/key_touch_Sensing.c ****              (key_touch_ENABLE == key_touch_CSD_SHIELD_EN) &&  \
1153:Generated_Source\PSoC4/key_touch_Sensing.c ****              (key_touch_SNS_CONNECTION_SHIELD == key_touch_CSD_INACTIVE_SNS_CONNECTION))
ARM GAS  C:\Users\Administrator\AppData\Local\Temp\ccPYRpEO.s 			page 28


1154:Generated_Source\PSoC4/key_touch_Sensing.c ****             key_touch_SsSetIOsInDefaultState();
1155:Generated_Source\PSoC4/key_touch_Sensing.c ****         #endif /* ((key_touch_ENABLE == key_touch_CSD_EN) && \
1156:Generated_Source\PSoC4/key_touch_Sensing.c ****              (key_touch_DISABLE != key_touch_CSD_SHIELD_EN) &&  \
1157:Generated_Source\PSoC4/key_touch_Sensing.c ****              (key_touch_SNS_CONNECTION_SHIELD == key_touch_CSD_INACTIVE_SNS_CONNECTION)) */
1158:Generated_Source\PSoC4/key_touch_Sensing.c **** 
1159:Generated_Source\PSoC4/key_touch_Sensing.c ****         /*
1160:Generated_Source\PSoC4/key_touch_Sensing.c ****          * Reset of the currentSenseMethod variable to make sure that the next
1161:Generated_Source\PSoC4/key_touch_Sensing.c ****          * call of SetupWidget() API setups the correct widget mode
1162:Generated_Source\PSoC4/key_touch_Sensing.c ****          */
1163:Generated_Source\PSoC4/key_touch_Sensing.c ****         key_touch_currentSenseMethod = key_touch_UNDEFINED_E;
1164:Generated_Source\PSoC4/key_touch_Sensing.c ****     }
1165:Generated_Source\PSoC4/key_touch_Sensing.c **** 
1166:Generated_Source\PSoC4/key_touch_Sensing.c ****     return busyStatus;
1167:Generated_Source\PSoC4/key_touch_Sensing.c **** }
1168:Generated_Source\PSoC4/key_touch_Sensing.c **** #endif /* (key_touch_ENABLE == key_touch_ADC_EN) */
1169:Generated_Source\PSoC4/key_touch_Sensing.c **** 
1170:Generated_Source\PSoC4/key_touch_Sensing.c **** 
1171:Generated_Source\PSoC4/key_touch_Sensing.c **** /*******************************************************************************
1172:Generated_Source\PSoC4/key_touch_Sensing.c **** * Function Name: key_touch_SsPostAllWidgetsScan
1173:Generated_Source\PSoC4/key_touch_Sensing.c **** ****************************************************************************//**
1174:Generated_Source\PSoC4/key_touch_Sensing.c **** *
1175:Generated_Source\PSoC4/key_touch_Sensing.c **** * \brief
1176:Generated_Source\PSoC4/key_touch_Sensing.c **** *   The ISR function for multiple widget scanning implementation.
1177:Generated_Source\PSoC4/key_touch_Sensing.c **** *
1178:Generated_Source\PSoC4/key_touch_Sensing.c **** * \details
1179:Generated_Source\PSoC4/key_touch_Sensing.c **** *   This is the function used by the key_touch ISR to implement multiple widget
1180:Generated_Source\PSoC4/key_touch_Sensing.c **** *   scanning.
1181:Generated_Source\PSoC4/key_touch_Sensing.c **** *   Should not be used by the application layer.
1182:Generated_Source\PSoC4/key_touch_Sensing.c **** *
1183:Generated_Source\PSoC4/key_touch_Sensing.c **** *******************************************************************************/
1184:Generated_Source\PSoC4/key_touch_Sensing.c **** void key_touch_SsPostAllWidgetsScan(void)
1185:Generated_Source\PSoC4/key_touch_Sensing.c **** {
 378              		.loc 1 1185 0
 379              		.cfi_startproc
 380 0000 10B5     		push	{r4, lr}
 381              		.cfi_def_cfa_offset 8
 382              		.cfi_offset 4, -8
 383              		.cfi_offset 14, -4
 384              	.L39:
1186:Generated_Source\PSoC4/key_touch_Sensing.c ****     #if (key_touch_DISABLE == key_touch_CSD2X_EN)
1187:Generated_Source\PSoC4/key_touch_Sensing.c ****         /*
1188:Generated_Source\PSoC4/key_touch_Sensing.c ****         *   1. Increment widget index
1189:Generated_Source\PSoC4/key_touch_Sensing.c ****         *   2. Check if all widgets are scanned
1190:Generated_Source\PSoC4/key_touch_Sensing.c ****         *   3. If all widgets are not scanned, set up and scan next widget
1191:Generated_Source\PSoC4/key_touch_Sensing.c ****         */
1192:Generated_Source\PSoC4/key_touch_Sensing.c ****         #if (1u != key_touch_TOTAL_WIDGETS)
1193:Generated_Source\PSoC4/key_touch_Sensing.c ****             cystatus postScanStatus;
1194:Generated_Source\PSoC4/key_touch_Sensing.c **** 
1195:Generated_Source\PSoC4/key_touch_Sensing.c ****             do
1196:Generated_Source\PSoC4/key_touch_Sensing.c ****             {
1197:Generated_Source\PSoC4/key_touch_Sensing.c ****                 key_touch_widgetIndex++;
 385              		.loc 1 1197 0
 386 0002 174A     		ldr	r2, .L40
 387 0004 5378     		ldrb	r3, [r2, #1]
 388 0006 0133     		add	r3, r3, #1
 389 0008 DBB2     		uxtb	r3, r3
 390 000a 5370     		strb	r3, [r2, #1]
ARM GAS  C:\Users\Administrator\AppData\Local\Temp\ccPYRpEO.s 			page 29


1198:Generated_Source\PSoC4/key_touch_Sensing.c **** 
1199:Generated_Source\PSoC4/key_touch_Sensing.c ****                 postScanStatus = key_touch_SetupWidget((uint32)key_touch_widgetIndex);
 391              		.loc 1 1199 0
 392 000c 5078     		ldrb	r0, [r2, #1]
 393 000e C0B2     		uxtb	r0, r0
 394 0010 FFF7FEFF 		bl	key_touch_SetupWidget
 395              	.LVL36:
 396 0014 041E     		sub	r4, r0, #0
 397              	.LVL37:
1200:Generated_Source\PSoC4/key_touch_Sensing.c **** 
1201:Generated_Source\PSoC4/key_touch_Sensing.c ****                 if (CYRET_SUCCESS == postScanStatus)
 398              		.loc 1 1201 0
 399 0016 09D1     		bne	.L35
1202:Generated_Source\PSoC4/key_touch_Sensing.c ****                 {
1203:Generated_Source\PSoC4/key_touch_Sensing.c ****                     if((key_touch_TOTAL_WIDGETS - 1u) == key_touch_widgetIndex)
 400              		.loc 1 1203 0
 401 0018 114B     		ldr	r3, .L40
 402 001a 5B78     		ldrb	r3, [r3, #1]
 403 001c 0B2B     		cmp	r3, #11
 404 001e 02D1     		bne	.L36
1204:Generated_Source\PSoC4/key_touch_Sensing.c ****                     {
1205:Generated_Source\PSoC4/key_touch_Sensing.c ****                         /* The last widget will be scanned. Reset flag to skip configuring the next
1206:Generated_Source\PSoC4/key_touch_Sensing.c ****                         key_touch_requestScanAllWidget = key_touch_DISABLE;
 405              		.loc 1 1206 0
 406 0020 0022     		mov	r2, #0
 407 0022 0F4B     		ldr	r3, .L40
 408 0024 1A70     		strb	r2, [r3]
 409              	.L36:
1207:Generated_Source\PSoC4/key_touch_Sensing.c ****                     }
1208:Generated_Source\PSoC4/key_touch_Sensing.c ****                     (void)key_touch_Scan();
 410              		.loc 1 1208 0
 411 0026 FFF7FEFF 		bl	key_touch_Scan
 412              	.LVL38:
 413 002a 15E0     		b	.L37
 414              	.LVL39:
 415              	.L35:
1209:Generated_Source\PSoC4/key_touch_Sensing.c ****                 }
1210:Generated_Source\PSoC4/key_touch_Sensing.c ****                 else if((key_touch_TOTAL_WIDGETS - 1u) == key_touch_widgetIndex)
 416              		.loc 1 1210 0
 417 002c 0C4B     		ldr	r3, .L40
 418 002e 5B78     		ldrb	r3, [r3, #1]
 419 0030 0B2B     		cmp	r3, #11
 420 0032 0AD1     		bne	.L38
1211:Generated_Source\PSoC4/key_touch_Sensing.c ****                 {
1212:Generated_Source\PSoC4/key_touch_Sensing.c ****                     #if ((key_touch_ENABLE == key_touch_BLOCK_OFF_AFTER_SCAN_EN) && \
1213:Generated_Source\PSoC4/key_touch_Sensing.c ****                          (key_touch_ENABLE == key_touch_CSD_EN))
1214:Generated_Source\PSoC4/key_touch_Sensing.c ****                         if (key_touch_SENSE_METHOD_CSD_E ==
1215:Generated_Source\PSoC4/key_touch_Sensing.c ****                              key_touch_GET_SENSE_METHOD(&key_touch_dsFlash.wdgtArray[key_touch_widg
1216:Generated_Source\PSoC4/key_touch_Sensing.c ****                         {
1217:Generated_Source\PSoC4/key_touch_Sensing.c ****                             /*  Disable the CSD block */
1218:Generated_Source\PSoC4/key_touch_Sensing.c ****                             CY_SET_REG32(key_touch_CONFIG_PTR, key_touch_configCsd);
1219:Generated_Source\PSoC4/key_touch_Sensing.c ****                         }
1220:Generated_Source\PSoC4/key_touch_Sensing.c ****                     #endif /* ((key_touch_ENABLE == key_touch_BLOCK_OFF_AFTER_SCAN_EN) && \
1221:Generated_Source\PSoC4/key_touch_Sensing.c ****                                (key_touch_ENABLE == key_touch_CSD_EN)) */
1222:Generated_Source\PSoC4/key_touch_Sensing.c **** 
1223:Generated_Source\PSoC4/key_touch_Sensing.c ****                     /* All widgets are totally processed. Reset BUSY flag */
1224:Generated_Source\PSoC4/key_touch_Sensing.c ****                     key_touch_dsRam.status &= ~key_touch_SW_STS_BUSY;
ARM GAS  C:\Users\Administrator\AppData\Local\Temp\ccPYRpEO.s 			page 30


 421              		.loc 1 1224 0
 422 0034 0B4A     		ldr	r2, .L40+4
 423 0036 7533     		add	r3, r3, #117
 424 0038 9168     		ldr	r1, [r2, #8]
 425 003a 9943     		bic	r1, r3
1225:Generated_Source\PSoC4/key_touch_Sensing.c **** 
1226:Generated_Source\PSoC4/key_touch_Sensing.c ****                     /* Update status with with the failure */
1227:Generated_Source\PSoC4/key_touch_Sensing.c ****                     key_touch_dsRam.status &= ~key_touch_STATUS_ERR_MASK;
 426              		.loc 1 1227 0
 427 003c 0B02     		lsl	r3, r1, #8
 428 003e 1B0A     		lsr	r3, r3, #8
1228:Generated_Source\PSoC4/key_touch_Sensing.c ****                     key_touch_dsRam.status |= ((postScanStatus & key_touch_STATUS_ERR_SIZE) << key_
 429              		.loc 1 1228 0
 430 0040 0406     		lsl	r4, r0, #24
 431 0042 2343     		orr	r3, r4
 432 0044 9360     		str	r3, [r2, #8]
 433              	.LVL40:
1229:Generated_Source\PSoC4/key_touch_Sensing.c **** 
1230:Generated_Source\PSoC4/key_touch_Sensing.c ****                     /* Set postScanStatus to exit the while loop */
1231:Generated_Source\PSoC4/key_touch_Sensing.c ****                     postScanStatus = CYRET_SUCCESS;
 434              		.loc 1 1231 0
 435 0046 0024     		mov	r4, #0
 436 0048 06E0     		b	.L37
 437              	.LVL41:
 438              	.L38:
1232:Generated_Source\PSoC4/key_touch_Sensing.c ****                 }
1233:Generated_Source\PSoC4/key_touch_Sensing.c ****                 else
1234:Generated_Source\PSoC4/key_touch_Sensing.c ****                 {
1235:Generated_Source\PSoC4/key_touch_Sensing.c ****                     /* Update status with with the failure. Configure the next widget in while() lo
1236:Generated_Source\PSoC4/key_touch_Sensing.c ****                     key_touch_dsRam.status &= ~key_touch_STATUS_ERR_MASK;
 439              		.loc 1 1236 0
 440 004a 0649     		ldr	r1, .L40+4
 441 004c 8B68     		ldr	r3, [r1, #8]
 442 004e 1B02     		lsl	r3, r3, #8
 443 0050 1B0A     		lsr	r3, r3, #8
1237:Generated_Source\PSoC4/key_touch_Sensing.c ****                     key_touch_dsRam.status |= ((postScanStatus & key_touch_STATUS_ERR_SIZE) << key_
 444              		.loc 1 1237 0
 445 0052 0206     		lsl	r2, r0, #24
 446 0054 1343     		orr	r3, r2
 447 0056 8B60     		str	r3, [r1, #8]
 448              	.LVL42:
 449              	.L37:
1238:Generated_Source\PSoC4/key_touch_Sensing.c ****                 }
1239:Generated_Source\PSoC4/key_touch_Sensing.c ****             } while (CYRET_SUCCESS != postScanStatus);
 450              		.loc 1 1239 0
 451 0058 002C     		cmp	r4, #0
 452 005a D2D1     		bne	.L39
1240:Generated_Source\PSoC4/key_touch_Sensing.c ****         #endif /* (1u != key_touch_TOTAL_WIDGETS) */
1241:Generated_Source\PSoC4/key_touch_Sensing.c ****     #else
1242:Generated_Source\PSoC4/key_touch_Sensing.c ****         #if (1u != key_touch_TOTAL_SLOTS)
1243:Generated_Source\PSoC4/key_touch_Sensing.c ****             cystatus postScanStatus = CYRET_SUCCESS;
1244:Generated_Source\PSoC4/key_touch_Sensing.c **** 
1245:Generated_Source\PSoC4/key_touch_Sensing.c ****             do
1246:Generated_Source\PSoC4/key_touch_Sensing.c ****             {
1247:Generated_Source\PSoC4/key_touch_Sensing.c ****                 if ((key_touch_TOTAL_SLOTS - 1u) > key_touch_slotIndex)
1248:Generated_Source\PSoC4/key_touch_Sensing.c ****                 {
1249:Generated_Source\PSoC4/key_touch_Sensing.c ****                     key_touch_slotIndex++;
ARM GAS  C:\Users\Administrator\AppData\Local\Temp\ccPYRpEO.s 			page 31


1250:Generated_Source\PSoC4/key_touch_Sensing.c ****                     postScanStatus = key_touch_SetupWidget((uint32)key_touch_slotIndex);
1251:Generated_Source\PSoC4/key_touch_Sensing.c **** 
1252:Generated_Source\PSoC4/key_touch_Sensing.c **** 
1253:Generated_Source\PSoC4/key_touch_Sensing.c ****                     if (CYRET_SUCCESS == postScanStatus)
1254:Generated_Source\PSoC4/key_touch_Sensing.c ****                     {
1255:Generated_Source\PSoC4/key_touch_Sensing.c ****                         if((key_touch_TOTAL_SLOTS - 1u) == key_touch_slotIndex)
1256:Generated_Source\PSoC4/key_touch_Sensing.c ****                         {
1257:Generated_Source\PSoC4/key_touch_Sensing.c ****                             /* The last slot will be scanned. Reset flag to skip configuring the ne
1258:Generated_Source\PSoC4/key_touch_Sensing.c ****                             key_touch_requestScanAllWidget = key_touch_DISABLE;
1259:Generated_Source\PSoC4/key_touch_Sensing.c ****                         }
1260:Generated_Source\PSoC4/key_touch_Sensing.c ****                         (void)key_touch_Scan();
1261:Generated_Source\PSoC4/key_touch_Sensing.c ****                     }
1262:Generated_Source\PSoC4/key_touch_Sensing.c ****                     else if((key_touch_TOTAL_SLOTS - 1u) == key_touch_slotIndex)
1263:Generated_Source\PSoC4/key_touch_Sensing.c ****                     {
1264:Generated_Source\PSoC4/key_touch_Sensing.c ****                         #if (key_touch_ENABLE == key_touch_BLOCK_OFF_AFTER_SCAN_EN)
1265:Generated_Source\PSoC4/key_touch_Sensing.c ****                             /*  Disable the CSD blocks */
1266:Generated_Source\PSoC4/key_touch_Sensing.c ****                             CY_SET_REG32(key_touch_CSD0_CONFIG_PTR, key_touch_configCsd0);
1267:Generated_Source\PSoC4/key_touch_Sensing.c ****                             CY_SET_REG32(key_touch_CSD1_CONFIG_PTR, key_touch_configCsd1);
1268:Generated_Source\PSoC4/key_touch_Sensing.c ****                         #endif /* (key_touch_ENABLE == key_touch_BLOCK_OFF_AFTER_SCAN_EN) */
1269:Generated_Source\PSoC4/key_touch_Sensing.c **** 
1270:Generated_Source\PSoC4/key_touch_Sensing.c ****                         /* All widgets are totally processed. Reset BUSY flag */
1271:Generated_Source\PSoC4/key_touch_Sensing.c ****                         key_touch_dsRam.status &= ~key_touch_SW_STS_BUSY;
1272:Generated_Source\PSoC4/key_touch_Sensing.c **** 
1273:Generated_Source\PSoC4/key_touch_Sensing.c ****                         /* Update status with with the failure */
1274:Generated_Source\PSoC4/key_touch_Sensing.c ****                         key_touch_dsRam.status &= ~key_touch_STATUS_ERR_MASK;
1275:Generated_Source\PSoC4/key_touch_Sensing.c ****                         key_touch_dsRam.status |= ((postScanStatus & key_touch_STATUS_ERR_SIZE) << 
1276:Generated_Source\PSoC4/key_touch_Sensing.c **** 
1277:Generated_Source\PSoC4/key_touch_Sensing.c ****                         /* Set postScanStatus to exit the while loop */
1278:Generated_Source\PSoC4/key_touch_Sensing.c ****                         postScanStatus = CYRET_SUCCESS;
1279:Generated_Source\PSoC4/key_touch_Sensing.c ****                     }
1280:Generated_Source\PSoC4/key_touch_Sensing.c ****                     else
1281:Generated_Source\PSoC4/key_touch_Sensing.c ****                     {
1282:Generated_Source\PSoC4/key_touch_Sensing.c ****                         /* Update status with with the failure. Configure the next widget in while(
1283:Generated_Source\PSoC4/key_touch_Sensing.c ****                         key_touch_dsRam.status &= ~key_touch_STATUS_ERR_MASK;
1284:Generated_Source\PSoC4/key_touch_Sensing.c ****                         key_touch_dsRam.status |= ((postScanStatus & key_touch_STATUS_ERR_SIZE) << 
1285:Generated_Source\PSoC4/key_touch_Sensing.c ****                     }
1286:Generated_Source\PSoC4/key_touch_Sensing.c ****                 }
1287:Generated_Source\PSoC4/key_touch_Sensing.c ****             } while (CYRET_SUCCESS != postScanStatus);
1288:Generated_Source\PSoC4/key_touch_Sensing.c ****         #endif /* (1u != key_touch_TOTAL_SLOTS) */
1289:Generated_Source\PSoC4/key_touch_Sensing.c ****     #endif /* (key_touch_CSD2X_EN == key_touch_DISABLE) */
1290:Generated_Source\PSoC4/key_touch_Sensing.c **** }
 453              		.loc 1 1290 0
 454              		@ sp needed
 455              	.LVL43:
 456 005c 10BD     		pop	{r4, pc}
 457              	.L41:
 458 005e C046     		.align	2
 459              	.L40:
 460 0060 00000000 		.word	.LANCHOR0
 461 0064 00000000 		.word	key_touch_dsRam
 462              		.cfi_endproc
 463              	.LFE7:
 464              		.size	key_touch_SsPostAllWidgetsScan, .-key_touch_SsPostAllWidgetsScan
 465              		.section	.text.key_touch_SsIsrInitialize,"ax",%progbits
 466              		.align	2
 467              		.global	key_touch_SsIsrInitialize
 468              		.code	16
ARM GAS  C:\Users\Administrator\AppData\Local\Temp\ccPYRpEO.s 			page 32


 469              		.thumb_func
 470              		.type	key_touch_SsIsrInitialize, %function
 471              	key_touch_SsIsrInitialize:
 472              	.LFB8:
1291:Generated_Source\PSoC4/key_touch_Sensing.c **** 
1292:Generated_Source\PSoC4/key_touch_Sensing.c **** 
1293:Generated_Source\PSoC4/key_touch_Sensing.c **** /*******************************************************************************
1294:Generated_Source\PSoC4/key_touch_Sensing.c **** * Function Name: key_touch_SsIsrInitialize
1295:Generated_Source\PSoC4/key_touch_Sensing.c **** ****************************************************************************//**
1296:Generated_Source\PSoC4/key_touch_Sensing.c **** *
1297:Generated_Source\PSoC4/key_touch_Sensing.c **** * \brief
1298:Generated_Source\PSoC4/key_touch_Sensing.c **** *   Enables and initializes for the function pointer for a callback for the ISR.
1299:Generated_Source\PSoC4/key_touch_Sensing.c **** *
1300:Generated_Source\PSoC4/key_touch_Sensing.c **** * \details
1301:Generated_Source\PSoC4/key_touch_Sensing.c **** *   The  "address" is a special type cyisraddress defined by Cylib. This function
1302:Generated_Source\PSoC4/key_touch_Sensing.c **** *   is used by component APIs and should not be used by an application program for
1303:Generated_Source\PSoC4/key_touch_Sensing.c **** *   proper working of the component.
1304:Generated_Source\PSoC4/key_touch_Sensing.c **** *
1305:Generated_Source\PSoC4/key_touch_Sensing.c **** * \param  address The address of the function to be called when interrupt is fired.
1306:Generated_Source\PSoC4/key_touch_Sensing.c **** *
1307:Generated_Source\PSoC4/key_touch_Sensing.c **** *******************************************************************************/
1308:Generated_Source\PSoC4/key_touch_Sensing.c **** void key_touch_SsIsrInitialize(cyisraddress address)
1309:Generated_Source\PSoC4/key_touch_Sensing.c **** {
 473              		.loc 1 1309 0
 474              		.cfi_startproc
 475              	.LVL44:
 476 0000 08B5     		push	{r3, lr}
 477              		.cfi_def_cfa_offset 8
 478              		.cfi_offset 3, -8
 479              		.cfi_offset 14, -4
1310:Generated_Source\PSoC4/key_touch_Sensing.c **** #if (key_touch_ENABLE == key_touch_CSD2X_EN)
1311:Generated_Source\PSoC4/key_touch_Sensing.c ****     key_touch_ISR0_StartEx(address);
1312:Generated_Source\PSoC4/key_touch_Sensing.c ****     key_touch_ISR1_StartEx(address);
1313:Generated_Source\PSoC4/key_touch_Sensing.c **** #else
1314:Generated_Source\PSoC4/key_touch_Sensing.c ****     key_touch_ISR_StartEx(address);
 480              		.loc 1 1314 0
 481 0002 FFF7FEFF 		bl	key_touch_ISR_StartEx
 482              	.LVL45:
1315:Generated_Source\PSoC4/key_touch_Sensing.c **** #endif /* (key_touch_ENABLE == key_touch_CSD2X_EN) */
1316:Generated_Source\PSoC4/key_touch_Sensing.c **** }
 483              		.loc 1 1316 0
 484              		@ sp needed
 485 0006 08BD     		pop	{r3, pc}
 486              		.cfi_endproc
 487              	.LFE8:
 488              		.size	key_touch_SsIsrInitialize, .-key_touch_SsIsrInitialize
 489              		.section	.text.key_touch_SsSetModClkClockDivider,"ax",%progbits
 490              		.align	2
 491              		.global	key_touch_SsSetModClkClockDivider
 492              		.code	16
 493              		.thumb_func
 494              		.type	key_touch_SsSetModClkClockDivider, %function
 495              	key_touch_SsSetModClkClockDivider:
 496              	.LFB9:
1317:Generated_Source\PSoC4/key_touch_Sensing.c **** 
1318:Generated_Source\PSoC4/key_touch_Sensing.c **** 
1319:Generated_Source\PSoC4/key_touch_Sensing.c **** /*******************************************************************************
ARM GAS  C:\Users\Administrator\AppData\Local\Temp\ccPYRpEO.s 			page 33


1320:Generated_Source\PSoC4/key_touch_Sensing.c **** * Function Name: key_touch_SsSetModClkClockDivider
1321:Generated_Source\PSoC4/key_touch_Sensing.c **** ****************************************************************************//**
1322:Generated_Source\PSoC4/key_touch_Sensing.c **** *
1323:Generated_Source\PSoC4/key_touch_Sensing.c **** * \brief
1324:Generated_Source\PSoC4/key_touch_Sensing.c **** *   Sets the divider values for the modulator clock and then starts
1325:Generated_Source\PSoC4/key_touch_Sensing.c **** *   the modulator clock.
1326:Generated_Source\PSoC4/key_touch_Sensing.c **** *
1327:Generated_Source\PSoC4/key_touch_Sensing.c **** * \details
1328:Generated_Source\PSoC4/key_touch_Sensing.c **** *   It is not recommended to call this function directly by the application layer.
1329:Generated_Source\PSoC4/key_touch_Sensing.c **** *   It is used by initialization, widget APIs or wakeup functions to
1330:Generated_Source\PSoC4/key_touch_Sensing.c **** *   enable the clocks.
1331:Generated_Source\PSoC4/key_touch_Sensing.c **** *
1332:Generated_Source\PSoC4/key_touch_Sensing.c **** * \param
1333:Generated_Source\PSoC4/key_touch_Sensing.c **** *   modClk The divider value for the modulator clock.
1334:Generated_Source\PSoC4/key_touch_Sensing.c **** *
1335:Generated_Source\PSoC4/key_touch_Sensing.c **** *******************************************************************************/
1336:Generated_Source\PSoC4/key_touch_Sensing.c **** void key_touch_SsSetModClkClockDivider(uint32 modClk)
1337:Generated_Source\PSoC4/key_touch_Sensing.c **** {
 497              		.loc 1 1337 0
 498              		.cfi_startproc
 499              	.LVL46:
1338:Generated_Source\PSoC4/key_touch_Sensing.c **** #if (key_touch_ENABLE == key_touch_IS_M0S8PERI_BLOCK)
1339:Generated_Source\PSoC4/key_touch_Sensing.c ****     /*  Stop modulator clock   */
1340:Generated_Source\PSoC4/key_touch_Sensing.c ****     CY_SET_REG32(key_touch_MODCLK_CMD_PTR,
 500              		.loc 1 1340 0
 501 0000 074A     		ldr	r2, .L45
 502 0002 084B     		ldr	r3, .L45+4
 503 0004 1A60     		str	r2, [r3]
1341:Generated_Source\PSoC4/key_touch_Sensing.c ****                  ((uint32)key_touch_ModClk__DIV_ID <<
1342:Generated_Source\PSoC4/key_touch_Sensing.c ****                  key_touch_MODCLK_CMD_DIV_SHIFT)|
1343:Generated_Source\PSoC4/key_touch_Sensing.c ****                  ((uint32)key_touch_MODCLK_CMD_DISABLE_MASK));
1344:Generated_Source\PSoC4/key_touch_Sensing.c **** 
1345:Generated_Source\PSoC4/key_touch_Sensing.c ****     /*
1346:Generated_Source\PSoC4/key_touch_Sensing.c ****      * Set divider value for sense modClk.
1347:Generated_Source\PSoC4/key_touch_Sensing.c ****      * 1u is subtracted from modClk because Divider register value 0 corresponds
1348:Generated_Source\PSoC4/key_touch_Sensing.c ****      * to dividing by 1.
1349:Generated_Source\PSoC4/key_touch_Sensing.c ****      */
1350:Generated_Source\PSoC4/key_touch_Sensing.c ****     CY_SET_REG32(key_touch_MODCLK_DIV_PTR, ((modClk - 1u) << 8u));
 504              		.loc 1 1350 0
 505 0006 0138     		sub	r0, r0, #1
 506              	.LVL47:
 507 0008 0002     		lsl	r0, r0, #8
 508              	.LVL48:
 509 000a 074B     		ldr	r3, .L45+8
 510 000c 1860     		str	r0, [r3]
 511              	.L44:
1351:Generated_Source\PSoC4/key_touch_Sensing.c **** 
1352:Generated_Source\PSoC4/key_touch_Sensing.c ****     /*  Check whether previous modulator clock start command has finished. */
1353:Generated_Source\PSoC4/key_touch_Sensing.c ****     while(0u != (CY_GET_REG32(key_touch_MODCLK_CMD_PTR) & key_touch_MODCLK_CMD_ENABLE_MASK))
 512              		.loc 1 1353 0 discriminator 1
 513 000e 054B     		ldr	r3, .L45+4
 514 0010 1B68     		ldr	r3, [r3]
 515 0012 002B     		cmp	r3, #0
 516 0014 FBDB     		blt	.L44
1354:Generated_Source\PSoC4/key_touch_Sensing.c ****     {
1355:Generated_Source\PSoC4/key_touch_Sensing.c ****         /*  Wait until previous modulator clock start command has finished. */
1356:Generated_Source\PSoC4/key_touch_Sensing.c ****     }
ARM GAS  C:\Users\Administrator\AppData\Local\Temp\ccPYRpEO.s 			page 34


1357:Generated_Source\PSoC4/key_touch_Sensing.c **** 
1358:Generated_Source\PSoC4/key_touch_Sensing.c ****     /*  Start modulator clock, aligned to HFCLK */
1359:Generated_Source\PSoC4/key_touch_Sensing.c ****     CY_SET_REG32(key_touch_MODCLK_CMD_PTR,
 517              		.loc 1 1359 0
 518 0016 054A     		ldr	r2, .L45+12
 519 0018 024B     		ldr	r3, .L45+4
 520 001a 1A60     		str	r2, [r3]
1360:Generated_Source\PSoC4/key_touch_Sensing.c ****                  (uint32)(((uint32)key_touch_ModClk__DIV_ID << key_touch_MODCLK_CMD_DIV_SHIFT) |
1361:Generated_Source\PSoC4/key_touch_Sensing.c ****                   ((uint32)key_touch_ModClk__PA_DIV_ID << key_touch_MODCLK_CMD_PA_DIV_SHIFT) |
1362:Generated_Source\PSoC4/key_touch_Sensing.c ****                   key_touch_MODCLK_CMD_ENABLE_MASK));
1363:Generated_Source\PSoC4/key_touch_Sensing.c **** #else
1364:Generated_Source\PSoC4/key_touch_Sensing.c ****     uint32 newRegValue;
1365:Generated_Source\PSoC4/key_touch_Sensing.c **** 
1366:Generated_Source\PSoC4/key_touch_Sensing.c ****     /* Clear bit to disable ModClk clock. */
1367:Generated_Source\PSoC4/key_touch_Sensing.c ****     CY_SET_REG32(key_touch_MODCLK_CMD_PTR,
1368:Generated_Source\PSoC4/key_touch_Sensing.c ****                  CY_GET_REG32(key_touch_MODCLK_CMD_PTR) &
1369:Generated_Source\PSoC4/key_touch_Sensing.c ****                  (uint32)(~key_touch_ModClk__ENABLE_MASK));
1370:Generated_Source\PSoC4/key_touch_Sensing.c **** 
1371:Generated_Source\PSoC4/key_touch_Sensing.c ****     /*
1372:Generated_Source\PSoC4/key_touch_Sensing.c ****      * Update ModClk clock divider.
1373:Generated_Source\PSoC4/key_touch_Sensing.c ****      * 1u is subtracted from modClk because Divider register value has range (0-65535).
1374:Generated_Source\PSoC4/key_touch_Sensing.c ****      */
1375:Generated_Source\PSoC4/key_touch_Sensing.c ****     newRegValue = CY_GET_REG32(key_touch_MODCLK_DIV_PTR) & (uint32)(~(uint32)key_touch_ModClk__DIVI
1376:Generated_Source\PSoC4/key_touch_Sensing.c ****     newRegValue |= (modClk - 1u);
1377:Generated_Source\PSoC4/key_touch_Sensing.c ****     CY_SET_REG32(key_touch_MODCLK_DIV_PTR, newRegValue);
1378:Generated_Source\PSoC4/key_touch_Sensing.c **** 
1379:Generated_Source\PSoC4/key_touch_Sensing.c ****     /* Set bit to enable ModClk clock. */
1380:Generated_Source\PSoC4/key_touch_Sensing.c ****     CY_SET_REG32(key_touch_MODCLK_CMD_PTR,
1381:Generated_Source\PSoC4/key_touch_Sensing.c ****                  CY_GET_REG32(key_touch_MODCLK_CMD_PTR) |
1382:Generated_Source\PSoC4/key_touch_Sensing.c ****                 key_touch_ModClk__ENABLE_MASK);
1383:Generated_Source\PSoC4/key_touch_Sensing.c **** #endif /* (key_touch_ENABLE == key_touch_IS_M0S8PERI_BLOCK) */
1384:Generated_Source\PSoC4/key_touch_Sensing.c **** }
 521              		.loc 1 1384 0
 522              		@ sp needed
 523 001c 7047     		bx	lr
 524              	.L46:
 525 001e C046     		.align	2
 526              	.L45:
 527 0020 40000040 		.word	1073741888
 528 0024 00000140 		.word	1073807360
 529 0028 00030140 		.word	1073808128
 530 002c 40FF0080 		.word	-2147418304
 531              		.cfi_endproc
 532              	.LFE9:
 533              		.size	key_touch_SsSetModClkClockDivider, .-key_touch_SsSetModClkClockDivider
 534              		.section	.text.key_touch_SsSetSnsClockDivider,"ax",%progbits
 535              		.align	2
 536              		.global	key_touch_SsSetSnsClockDivider
 537              		.code	16
 538              		.thumb_func
 539              		.type	key_touch_SsSetSnsClockDivider, %function
 540              	key_touch_SsSetSnsClockDivider:
 541              	.LFB10:
1385:Generated_Source\PSoC4/key_touch_Sensing.c **** 
1386:Generated_Source\PSoC4/key_touch_Sensing.c **** 
1387:Generated_Source\PSoC4/key_touch_Sensing.c **** /*******************************************************************************
1388:Generated_Source\PSoC4/key_touch_Sensing.c **** * Function Name: key_touch_SsSetSnsClockDivider
ARM GAS  C:\Users\Administrator\AppData\Local\Temp\ccPYRpEO.s 			page 35


1389:Generated_Source\PSoC4/key_touch_Sensing.c **** ****************************************************************************//**
1390:Generated_Source\PSoC4/key_touch_Sensing.c **** *
1391:Generated_Source\PSoC4/key_touch_Sensing.c **** * \brief
1392:Generated_Source\PSoC4/key_touch_Sensing.c **** *   Sets the divider values for the sense clock and then starts
1393:Generated_Source\PSoC4/key_touch_Sensing.c **** *   the sense clock.
1394:Generated_Source\PSoC4/key_touch_Sensing.c **** *
1395:Generated_Source\PSoC4/key_touch_Sensing.c **** * \details
1396:Generated_Source\PSoC4/key_touch_Sensing.c **** *   It is not recommended to call this function directly by the application layer.
1397:Generated_Source\PSoC4/key_touch_Sensing.c **** *   It is used by initialization, widget APIs or wakeup functions to
1398:Generated_Source\PSoC4/key_touch_Sensing.c **** *   enable the clocks.
1399:Generated_Source\PSoC4/key_touch_Sensing.c **** *
1400:Generated_Source\PSoC4/key_touch_Sensing.c **** * \param
1401:Generated_Source\PSoC4/key_touch_Sensing.c **** *   snsClk The divider value for the sense clock.
1402:Generated_Source\PSoC4/key_touch_Sensing.c **** *
1403:Generated_Source\PSoC4/key_touch_Sensing.c **** *******************************************************************************/
1404:Generated_Source\PSoC4/key_touch_Sensing.c **** void key_touch_SsSetSnsClockDivider(uint32 snsClk)
1405:Generated_Source\PSoC4/key_touch_Sensing.c **** {
 542              		.loc 1 1405 0
 543              		.cfi_startproc
 544              	.LVL49:
1406:Generated_Source\PSoC4/key_touch_Sensing.c **** #if (key_touch_ENABLE == key_touch_CSDV2)
1407:Generated_Source\PSoC4/key_touch_Sensing.c ****     uint32 newRegValue;
1408:Generated_Source\PSoC4/key_touch_Sensing.c **** 
1409:Generated_Source\PSoC4/key_touch_Sensing.c ****     /*
1410:Generated_Source\PSoC4/key_touch_Sensing.c ****      * Set divider value for sense clock.
1411:Generated_Source\PSoC4/key_touch_Sensing.c ****      * 1u is subtracted from snsClk because SENSE_DIV value 0 corresponds
1412:Generated_Source\PSoC4/key_touch_Sensing.c ****      * to dividing by 1.
1413:Generated_Source\PSoC4/key_touch_Sensing.c ****      */
1414:Generated_Source\PSoC4/key_touch_Sensing.c ****     newRegValue = CY_GET_REG32(key_touch_SENSE_PERIOD_PTR);
 545              		.loc 1 1414 0
 546 0000 034A     		ldr	r2, .L48
 547 0002 1368     		ldr	r3, [r2]
 548              	.LVL50:
1415:Generated_Source\PSoC4/key_touch_Sensing.c ****     newRegValue &= (uint32)(~key_touch_SENSE_PERIOD_SENSE_DIV_MASK);
 549              		.loc 1 1415 0
 550 0004 1B0B     		lsr	r3, r3, #12
 551              	.LVL51:
 552 0006 1B03     		lsl	r3, r3, #12
 553              	.LVL52:
1416:Generated_Source\PSoC4/key_touch_Sensing.c ****     newRegValue |= snsClk - 1u;
 554              		.loc 1 1416 0
 555 0008 0138     		sub	r0, r0, #1
 556              	.LVL53:
 557 000a 1843     		orr	r0, r3
 558              	.LVL54:
1417:Generated_Source\PSoC4/key_touch_Sensing.c ****     CY_SET_REG32(key_touch_SENSE_PERIOD_PTR, newRegValue);
 559              		.loc 1 1417 0
 560 000c 1060     		str	r0, [r2]
1418:Generated_Source\PSoC4/key_touch_Sensing.c **** #else
1419:Generated_Source\PSoC4/key_touch_Sensing.c ****     #if (key_touch_ENABLE == key_touch_IS_M0S8PERI_BLOCK)
1420:Generated_Source\PSoC4/key_touch_Sensing.c ****         /*  Stop sense clock clock   */
1421:Generated_Source\PSoC4/key_touch_Sensing.c ****         CY_SET_REG32(key_touch_SNSCLK_CMD_PTR,
1422:Generated_Source\PSoC4/key_touch_Sensing.c ****                      ((uint32)key_touch_SnsClk__DIV_ID <<
1423:Generated_Source\PSoC4/key_touch_Sensing.c ****                      key_touch_SNSCLK_CMD_DIV_SHIFT)|
1424:Generated_Source\PSoC4/key_touch_Sensing.c ****                      ((uint32)key_touch_SNSCLK_CMD_DISABLE_MASK));
1425:Generated_Source\PSoC4/key_touch_Sensing.c **** 
1426:Generated_Source\PSoC4/key_touch_Sensing.c ****         /*
ARM GAS  C:\Users\Administrator\AppData\Local\Temp\ccPYRpEO.s 			page 36


1427:Generated_Source\PSoC4/key_touch_Sensing.c ****          * Set divider value for sense clock.
1428:Generated_Source\PSoC4/key_touch_Sensing.c ****          * 1u is subtracted from snsClk because Divider register value 0 corresponds
1429:Generated_Source\PSoC4/key_touch_Sensing.c ****          * to dividing by 1.
1430:Generated_Source\PSoC4/key_touch_Sensing.c ****          */
1431:Generated_Source\PSoC4/key_touch_Sensing.c ****         CY_SET_REG32(key_touch_SNSCLK_DIV_PTR, ((snsClk - 1u) << 8u));
1432:Generated_Source\PSoC4/key_touch_Sensing.c **** 
1433:Generated_Source\PSoC4/key_touch_Sensing.c ****         /*  Check whether previous sense clock start command has finished. */
1434:Generated_Source\PSoC4/key_touch_Sensing.c ****         while(0u != (CY_GET_REG32(key_touch_SNSCLK_CMD_PTR) & key_touch_SNSCLK_CMD_ENABLE_MASK))
1435:Generated_Source\PSoC4/key_touch_Sensing.c ****         {
1436:Generated_Source\PSoC4/key_touch_Sensing.c ****             /*  Wait until previous sense clock start command has finished. */
1437:Generated_Source\PSoC4/key_touch_Sensing.c ****         }
1438:Generated_Source\PSoC4/key_touch_Sensing.c **** 
1439:Generated_Source\PSoC4/key_touch_Sensing.c ****         /* Start sense clock aligned to previously started modulator clock. */
1440:Generated_Source\PSoC4/key_touch_Sensing.c ****         CY_SET_REG32(key_touch_SNSCLK_CMD_PTR,
1441:Generated_Source\PSoC4/key_touch_Sensing.c ****                      (uint32)(((uint32)key_touch_SnsClk__DIV_ID << key_touch_SNSCLK_CMD_DIV_SHIFT) 
1442:Generated_Source\PSoC4/key_touch_Sensing.c ****                       ((uint32)key_touch_ModClk__PA_DIV_ID << key_touch_SNSCLK_CMD_PA_DIV_SHIFT) |
1443:Generated_Source\PSoC4/key_touch_Sensing.c ****                       key_touch_SNSCLK_CMD_ENABLE_MASK));
1444:Generated_Source\PSoC4/key_touch_Sensing.c ****     #else
1445:Generated_Source\PSoC4/key_touch_Sensing.c ****         uint32 newRegValue;
1446:Generated_Source\PSoC4/key_touch_Sensing.c **** 
1447:Generated_Source\PSoC4/key_touch_Sensing.c ****         /* Clear bit to disable SnsClk clock. */
1448:Generated_Source\PSoC4/key_touch_Sensing.c ****         CY_SET_REG32(key_touch_SNSCLK_CMD_PTR,
1449:Generated_Source\PSoC4/key_touch_Sensing.c ****                      CY_GET_REG32(key_touch_SNSCLK_CMD_PTR) &
1450:Generated_Source\PSoC4/key_touch_Sensing.c ****                      (uint32)(~(uint32)key_touch_SnsClk__ENABLE_MASK));
1451:Generated_Source\PSoC4/key_touch_Sensing.c **** 
1452:Generated_Source\PSoC4/key_touch_Sensing.c ****         /*
1453:Generated_Source\PSoC4/key_touch_Sensing.c ****          * Update snsClk clock divider.
1454:Generated_Source\PSoC4/key_touch_Sensing.c ****          * 1u is subtracted from snsClk because Divider register value has range (0-65535).
1455:Generated_Source\PSoC4/key_touch_Sensing.c ****          */
1456:Generated_Source\PSoC4/key_touch_Sensing.c ****         newRegValue = CY_GET_REG32(key_touch_SNSCLK_DIV_PTR) & (uint32)(~(uint32)key_touch_SnsClk__
1457:Generated_Source\PSoC4/key_touch_Sensing.c ****         newRegValue |= (snsClk - 1u);
1458:Generated_Source\PSoC4/key_touch_Sensing.c ****         CY_SET_REG32(key_touch_SNSCLK_DIV_PTR, newRegValue);
1459:Generated_Source\PSoC4/key_touch_Sensing.c **** 
1460:Generated_Source\PSoC4/key_touch_Sensing.c ****         /* Set bit to enable SnsClk clock. */
1461:Generated_Source\PSoC4/key_touch_Sensing.c ****         CY_SET_REG32(key_touch_SNSCLK_CMD_PTR,
1462:Generated_Source\PSoC4/key_touch_Sensing.c ****                      CY_GET_REG32(key_touch_SNSCLK_CMD_PTR) |
1463:Generated_Source\PSoC4/key_touch_Sensing.c ****                     key_touch_SnsClk__ENABLE_MASK);
1464:Generated_Source\PSoC4/key_touch_Sensing.c ****     #endif /* (key_touch_ENABLE == key_touch_IS_M0S8PERI_BLOCK) */
1465:Generated_Source\PSoC4/key_touch_Sensing.c **** #endif /* (key_touch_ENABLE == key_touch_CSDV2) */
1466:Generated_Source\PSoC4/key_touch_Sensing.c **** }
 561              		.loc 1 1466 0
 562              		@ sp needed
 563 000e 7047     		bx	lr
 564              	.L49:
 565              		.align	2
 566              	.L48:
 567 0010 00020B40 		.word	1074463232
 568              		.cfi_endproc
 569              	.LFE10:
 570              		.size	key_touch_SsSetSnsClockDivider, .-key_touch_SsSetSnsClockDivider
 571              		.section	.text.key_touch_SsSetClockDividers,"ax",%progbits
 572              		.align	2
 573              		.global	key_touch_SsSetClockDividers
 574              		.code	16
 575              		.thumb_func
 576              		.type	key_touch_SsSetClockDividers, %function
 577              	key_touch_SsSetClockDividers:
ARM GAS  C:\Users\Administrator\AppData\Local\Temp\ccPYRpEO.s 			page 37


 578              	.LFB11:
1467:Generated_Source\PSoC4/key_touch_Sensing.c **** 
1468:Generated_Source\PSoC4/key_touch_Sensing.c **** 
1469:Generated_Source\PSoC4/key_touch_Sensing.c **** /*******************************************************************************
1470:Generated_Source\PSoC4/key_touch_Sensing.c **** * Function Name: key_touch_SsSetClockDividers
1471:Generated_Source\PSoC4/key_touch_Sensing.c **** ****************************************************************************//**
1472:Generated_Source\PSoC4/key_touch_Sensing.c **** *
1473:Generated_Source\PSoC4/key_touch_Sensing.c **** * \brief
1474:Generated_Source\PSoC4/key_touch_Sensing.c **** *   Sets the divider values for sense and modulator clocks and then starts
1475:Generated_Source\PSoC4/key_touch_Sensing.c **** *   a modulator clock-phase aligned to HFCLK and sense clock-phase aligned to
1476:Generated_Source\PSoC4/key_touch_Sensing.c **** *   the modulator clock.
1477:Generated_Source\PSoC4/key_touch_Sensing.c **** *
1478:Generated_Source\PSoC4/key_touch_Sensing.c **** * \details
1479:Generated_Source\PSoC4/key_touch_Sensing.c **** *   It is not recommended to call this function directly by the application layer.
1480:Generated_Source\PSoC4/key_touch_Sensing.c **** *   It is used by initialization, widget APIs or wakeup functions to
1481:Generated_Source\PSoC4/key_touch_Sensing.c **** *   enable the clocks.
1482:Generated_Source\PSoC4/key_touch_Sensing.c **** *
1483:Generated_Source\PSoC4/key_touch_Sensing.c **** * \param
1484:Generated_Source\PSoC4/key_touch_Sensing.c **** *   snsClk The divider value for the sense clock.
1485:Generated_Source\PSoC4/key_touch_Sensing.c **** *   modClk The divider value for the modulator clock.
1486:Generated_Source\PSoC4/key_touch_Sensing.c **** *
1487:Generated_Source\PSoC4/key_touch_Sensing.c **** *******************************************************************************/
1488:Generated_Source\PSoC4/key_touch_Sensing.c **** void key_touch_SsSetClockDividers(uint32 snsClk, uint32 modClk)
1489:Generated_Source\PSoC4/key_touch_Sensing.c **** {
 579              		.loc 1 1489 0
 580              		.cfi_startproc
 581              	.LVL55:
 582 0000 10B5     		push	{r4, lr}
 583              		.cfi_def_cfa_offset 8
 584              		.cfi_offset 4, -8
 585              		.cfi_offset 14, -4
 586 0002 041C     		mov	r4, r0
1490:Generated_Source\PSoC4/key_touch_Sensing.c ****     /* Configure Mod clock */
1491:Generated_Source\PSoC4/key_touch_Sensing.c ****     key_touch_SsSetModClkClockDivider(modClk);
 587              		.loc 1 1491 0
 588 0004 081C     		mov	r0, r1
 589              	.LVL56:
 590 0006 FFF7FEFF 		bl	key_touch_SsSetModClkClockDivider
 591              	.LVL57:
1492:Generated_Source\PSoC4/key_touch_Sensing.c **** 
1493:Generated_Source\PSoC4/key_touch_Sensing.c ****     /* Configure Sns clock */
1494:Generated_Source\PSoC4/key_touch_Sensing.c ****     key_touch_SsSetSnsClockDivider(snsClk);
 592              		.loc 1 1494 0
 593 000a 201C     		mov	r0, r4
 594 000c FFF7FEFF 		bl	key_touch_SsSetSnsClockDivider
 595              	.LVL58:
1495:Generated_Source\PSoC4/key_touch_Sensing.c **** }
 596              		.loc 1 1495 0
 597              		@ sp needed
 598              	.LVL59:
 599 0010 10BD     		pop	{r4, pc}
 600              		.cfi_endproc
 601              	.LFE11:
 602              		.size	key_touch_SsSetClockDividers, .-key_touch_SsSetClockDividers
 603 0012 C046     		.section	.text.key_touch_CalibrateWidget,"ax",%progbits
 604              		.align	2
 605              		.global	key_touch_CalibrateWidget
ARM GAS  C:\Users\Administrator\AppData\Local\Temp\ccPYRpEO.s 			page 38


 606              		.code	16
 607              		.thumb_func
 608              		.type	key_touch_CalibrateWidget, %function
 609              	key_touch_CalibrateWidget:
 610              	.LFB12:
1496:Generated_Source\PSoC4/key_touch_Sensing.c **** 
1497:Generated_Source\PSoC4/key_touch_Sensing.c **** 
1498:Generated_Source\PSoC4/key_touch_Sensing.c **** #if ((key_touch_ENABLE == key_touch_CSD_IDAC_AUTOCAL_EN) || \
1499:Generated_Source\PSoC4/key_touch_Sensing.c ****      (key_touch_ENABLE == key_touch_CSX_IDAC_AUTOCAL_EN))
1500:Generated_Source\PSoC4/key_touch_Sensing.c ****     /*******************************************************************************
1501:Generated_Source\PSoC4/key_touch_Sensing.c ****     * Function Name: key_touch_CalibrateWidget
1502:Generated_Source\PSoC4/key_touch_Sensing.c ****     ****************************************************************************//**
1503:Generated_Source\PSoC4/key_touch_Sensing.c ****     *
1504:Generated_Source\PSoC4/key_touch_Sensing.c ****     * \brief
1505:Generated_Source\PSoC4/key_touch_Sensing.c ****     *  Calibrates the IDACs for all sensors in the specified widget to default
1506:Generated_Source\PSoC4/key_touch_Sensing.c ****     *  target (85%) value, this function detects sensing method used by the
1507:Generated_Source\PSoC4/key_touch_Sensing.c ****     *  widget prior to calibration.
1508:Generated_Source\PSoC4/key_touch_Sensing.c ****     *
1509:Generated_Source\PSoC4/key_touch_Sensing.c ****     * \details
1510:Generated_Source\PSoC4/key_touch_Sensing.c ****     *  This function performs exactly the same tasks as
1511:Generated_Source\PSoC4/key_touch_Sensing.c ****     *  key_touch_CalibrateAllWidgets, but only for a specified widget.
1512:Generated_Source\PSoC4/key_touch_Sensing.c ****     *  This function detects the sensing method used by the widgets and takes
1513:Generated_Source\PSoC4/key_touch_Sensing.c ****     *  into account the Enable compensation IDAC parameter.
1514:Generated_Source\PSoC4/key_touch_Sensing.c ****     *
1515:Generated_Source\PSoC4/key_touch_Sensing.c ****     *  This function is available when the CSD and/or CSX Enable IDAC
1516:Generated_Source\PSoC4/key_touch_Sensing.c ****     *  auto-calibration parameter is enabled.
1517:Generated_Source\PSoC4/key_touch_Sensing.c **** 
1518:Generated_Source\PSoC4/key_touch_Sensing.c ****     *
1519:Generated_Source\PSoC4/key_touch_Sensing.c ****     * \param wdgtIndex
1520:Generated_Source\PSoC4/key_touch_Sensing.c ****     *  Specify the ID number of the widget to calibrate its raw count.
1521:Generated_Source\PSoC4/key_touch_Sensing.c ****     *  A macro for the widget ID can be found in the
1522:Generated_Source\PSoC4/key_touch_Sensing.c ****     *  key_touch Configuration header file defined as
1523:Generated_Source\PSoC4/key_touch_Sensing.c ****     *  key_touch_<WidgetName>_WDGT_ID.
1524:Generated_Source\PSoC4/key_touch_Sensing.c ****     *
1525:Generated_Source\PSoC4/key_touch_Sensing.c ****     * \return
1526:Generated_Source\PSoC4/key_touch_Sensing.c ****     *  Returns the status of the specified widget calibration:
1527:Generated_Source\PSoC4/key_touch_Sensing.c ****     *    - CYRET_SUCCESS if operation is successfully completed.
1528:Generated_Source\PSoC4/key_touch_Sensing.c ****     *    - CYRET_BAD_PARAM if the input parameter is invalid.
1529:Generated_Source\PSoC4/key_touch_Sensing.c ****     *    - CYRET_BAD_DATA if the calibration failed and the component may not
1530:Generated_Source\PSoC4/key_touch_Sensing.c ****     *      operate as expected.
1531:Generated_Source\PSoC4/key_touch_Sensing.c ****     *
1532:Generated_Source\PSoC4/key_touch_Sensing.c ****     *******************************************************************************/
1533:Generated_Source\PSoC4/key_touch_Sensing.c ****     cystatus key_touch_CalibrateWidget(uint32 wdgtIndex)
1534:Generated_Source\PSoC4/key_touch_Sensing.c ****     {
 611              		.loc 1 1534 0
 612              		.cfi_startproc
 613              	.LVL60:
 614 0000 08B5     		push	{r3, lr}
 615              		.cfi_def_cfa_offset 8
 616              		.cfi_offset 3, -8
 617              		.cfi_offset 14, -4
 618 0002 031E     		sub	r3, r0, #0
 619              	.LVL61:
1535:Generated_Source\PSoC4/key_touch_Sensing.c ****         cystatus calibrateStatus = CYRET_SUCCESS;
1536:Generated_Source\PSoC4/key_touch_Sensing.c **** 
1537:Generated_Source\PSoC4/key_touch_Sensing.c ****         do
1538:Generated_Source\PSoC4/key_touch_Sensing.c ****         {
ARM GAS  C:\Users\Administrator\AppData\Local\Temp\ccPYRpEO.s 			page 39


1539:Generated_Source\PSoC4/key_touch_Sensing.c ****             if (key_touch_TOTAL_WIDGETS <= wdgtIndex)
 620              		.loc 1 1539 0
 621 0004 0B2B     		cmp	r3, #11
 622 0006 01D8     		bhi	.L54
1535:Generated_Source\PSoC4/key_touch_Sensing.c ****         cystatus calibrateStatus = CYRET_SUCCESS;
 623              		.loc 1 1535 0
 624 0008 0020     		mov	r0, #0
 625              	.LVL62:
 626 000a 00E0     		b	.L52
 627              	.LVL63:
 628              	.L54:
1540:Generated_Source\PSoC4/key_touch_Sensing.c ****             {
1541:Generated_Source\PSoC4/key_touch_Sensing.c ****                 calibrateStatus = CYRET_BAD_PARAM;
 629              		.loc 1 1541 0
 630 000c 0120     		mov	r0, #1
 631              	.LVL64:
 632              	.L52:
1542:Generated_Source\PSoC4/key_touch_Sensing.c ****             }
1543:Generated_Source\PSoC4/key_touch_Sensing.c **** 
1544:Generated_Source\PSoC4/key_touch_Sensing.c ****             /*
1545:Generated_Source\PSoC4/key_touch_Sensing.c ****              *  Check if widget id is valid, specified widget did not
1546:Generated_Source\PSoC4/key_touch_Sensing.c ****              *  detect any faults conditions if BIST is enabled.
1547:Generated_Source\PSoC4/key_touch_Sensing.c ****              */
1548:Generated_Source\PSoC4/key_touch_Sensing.c ****             #if (key_touch_ENABLE == key_touch_SELF_TEST_EN)
1549:Generated_Source\PSoC4/key_touch_Sensing.c ****                 if (0u != key_touch_GET_WIDGET_EN_STATUS(wdgtIndex))
1550:Generated_Source\PSoC4/key_touch_Sensing.c ****                 {
1551:Generated_Source\PSoC4/key_touch_Sensing.c ****                     calibrateStatus = CYRET_SUCCESS;
1552:Generated_Source\PSoC4/key_touch_Sensing.c ****                 }
1553:Generated_Source\PSoC4/key_touch_Sensing.c ****                 else
1554:Generated_Source\PSoC4/key_touch_Sensing.c ****                 {
1555:Generated_Source\PSoC4/key_touch_Sensing.c ****                     calibrateStatus = CYRET_INVALID_STATE;
1556:Generated_Source\PSoC4/key_touch_Sensing.c ****                 }
1557:Generated_Source\PSoC4/key_touch_Sensing.c ****             #endif  /* (key_touch_ENABLE == key_touch_SELF_TEST_EN) */
1558:Generated_Source\PSoC4/key_touch_Sensing.c **** 
1559:Generated_Source\PSoC4/key_touch_Sensing.c ****             if (CYRET_SUCCESS != calibrateStatus)
 633              		.loc 1 1559 0
 634 000e 0028     		cmp	r0, #0
 635 0010 03D1     		bne	.L53
 636 0012 181C     		mov	r0, r3
 637              	.LVL65:
1560:Generated_Source\PSoC4/key_touch_Sensing.c ****             {
1561:Generated_Source\PSoC4/key_touch_Sensing.c ****                 /* Exit from the loop because of a fail */
1562:Generated_Source\PSoC4/key_touch_Sensing.c ****                 break;
1563:Generated_Source\PSoC4/key_touch_Sensing.c ****             }
1564:Generated_Source\PSoC4/key_touch_Sensing.c ****             
1565:Generated_Source\PSoC4/key_touch_Sensing.c ****             /* If CSD2X is enabled, calibrate CSD sensor    */
1566:Generated_Source\PSoC4/key_touch_Sensing.c ****             #if (key_touch_ENABLE == key_touch_CSD2X_EN)
1567:Generated_Source\PSoC4/key_touch_Sensing.c ****                 /* Calibrate CSD2X slot */
1568:Generated_Source\PSoC4/key_touch_Sensing.c ****                 calibrateStatus = key_touch_CSD2XCalibrateWidget(wdgtIndex, key_touch_CSD_RAWCOUNT_
1569:Generated_Source\PSoC4/key_touch_Sensing.c **** 
1570:Generated_Source\PSoC4/key_touch_Sensing.c ****             /*  If both CSD and CSX are enabled, calibrate widget using sensing method */
1571:Generated_Source\PSoC4/key_touch_Sensing.c ****             #elif (key_touch_ENABLE == key_touch_CSD_CSX_EN)
1572:Generated_Source\PSoC4/key_touch_Sensing.c **** 
1573:Generated_Source\PSoC4/key_touch_Sensing.c ****                 /* Check widget sensing method and call appropriate APIs */
1574:Generated_Source\PSoC4/key_touch_Sensing.c ****                 #if (key_touch_ENABLE == key_touch_CSX_IDAC_AUTOCAL_EN)
1575:Generated_Source\PSoC4/key_touch_Sensing.c ****                     if (key_touch_SENSE_METHOD_CSX_E ==
1576:Generated_Source\PSoC4/key_touch_Sensing.c ****                         key_touch_GET_SENSE_METHOD(&key_touch_dsFlash.wdgtArray[wdgtIndex]))
ARM GAS  C:\Users\Administrator\AppData\Local\Temp\ccPYRpEO.s 			page 40


1577:Generated_Source\PSoC4/key_touch_Sensing.c ****                     {
1578:Generated_Source\PSoC4/key_touch_Sensing.c ****                         /* Calibrate CSX widget  */
1579:Generated_Source\PSoC4/key_touch_Sensing.c ****                        key_touch_CSXCalibrateWidget(wdgtIndex, key_touch_CSX_RAWCOUNT_CAL_LEVEL);
1580:Generated_Source\PSoC4/key_touch_Sensing.c ****                     }
1581:Generated_Source\PSoC4/key_touch_Sensing.c ****                 #endif  /* (key_touch_ENABLE == key_touch_CSX_IDAC_AUTOCAL_EN) */
1582:Generated_Source\PSoC4/key_touch_Sensing.c **** 
1583:Generated_Source\PSoC4/key_touch_Sensing.c ****                 #if (key_touch_ENABLE == key_touch_CSD_IDAC_AUTOCAL_EN)
1584:Generated_Source\PSoC4/key_touch_Sensing.c ****                     if (key_touch_SENSE_METHOD_CSD_E ==
1585:Generated_Source\PSoC4/key_touch_Sensing.c ****                         key_touch_GET_SENSE_METHOD(&key_touch_dsFlash.wdgtArray[wdgtIndex]))
1586:Generated_Source\PSoC4/key_touch_Sensing.c ****                     {
1587:Generated_Source\PSoC4/key_touch_Sensing.c ****                         /* Calibrate CSD widget */
1588:Generated_Source\PSoC4/key_touch_Sensing.c ****                         calibrateStatus = key_touch_CSDCalibrateWidget(wdgtIndex, key_touch_CSD_RAW
1589:Generated_Source\PSoC4/key_touch_Sensing.c ****                     }
1590:Generated_Source\PSoC4/key_touch_Sensing.c ****                 #endif  /* (key_touch_ENABLE == key_touch_CSD_IDAC_AUTOCAL_EN) */
1591:Generated_Source\PSoC4/key_touch_Sensing.c **** 
1592:Generated_Source\PSoC4/key_touch_Sensing.c ****             /*  If only CSD is enabled, calibrate CSD sensor  */
1593:Generated_Source\PSoC4/key_touch_Sensing.c ****             #elif (key_touch_ENABLE == key_touch_CSD_EN)
1594:Generated_Source\PSoC4/key_touch_Sensing.c ****                 calibrateStatus = key_touch_CSDCalibrateWidget(wdgtIndex, key_touch_CSD_RAWCOUNT_CA
 638              		.loc 1 1594 0
 639 0014 3C21     		mov	r1, #60
 640 0016 FFF7FEFF 		bl	key_touch_CSDCalibrateWidget
 641              	.LVL66:
 642              	.L53:
1595:Generated_Source\PSoC4/key_touch_Sensing.c **** 
1596:Generated_Source\PSoC4/key_touch_Sensing.c ****             /*  If only CSX is enabled, call CSX scan   */
1597:Generated_Source\PSoC4/key_touch_Sensing.c ****             #elif (key_touch_ENABLE == key_touch_CSX_EN)
1598:Generated_Source\PSoC4/key_touch_Sensing.c ****                 key_touch_CSXCalibrateWidget(wdgtIndex, key_touch_CSX_RAWCOUNT_CAL_LEVEL);
1599:Generated_Source\PSoC4/key_touch_Sensing.c **** 
1600:Generated_Source\PSoC4/key_touch_Sensing.c ****             #else
1601:Generated_Source\PSoC4/key_touch_Sensing.c ****                 calibrateStatus = CYRET_UNKNOWN;
1602:Generated_Source\PSoC4/key_touch_Sensing.c ****             #endif  /* (key_touch_ENABLE == key_touch_CSD2X_EN) */
1603:Generated_Source\PSoC4/key_touch_Sensing.c **** 
1604:Generated_Source\PSoC4/key_touch_Sensing.c ****              /* Update CRC */
1605:Generated_Source\PSoC4/key_touch_Sensing.c ****             #if (key_touch_ENABLE ==key_touch_TST_WDGT_CRC_EN)
1606:Generated_Source\PSoC4/key_touch_Sensing.c ****                 key_touch_DsUpdateWidgetCrc(wdgtIndex);
1607:Generated_Source\PSoC4/key_touch_Sensing.c ****             #endif /* (key_touch_ENABLE ==key_touch_TST_WDGT_CRC_EN) */
1608:Generated_Source\PSoC4/key_touch_Sensing.c **** 
1609:Generated_Source\PSoC4/key_touch_Sensing.c ****         } while (0u);
1610:Generated_Source\PSoC4/key_touch_Sensing.c **** 
1611:Generated_Source\PSoC4/key_touch_Sensing.c ****         return calibrateStatus;
1612:Generated_Source\PSoC4/key_touch_Sensing.c ****     }
 643              		.loc 1 1612 0
 644              		@ sp needed
 645 001a 08BD     		pop	{r3, pc}
 646              		.cfi_endproc
 647              	.LFE12:
 648              		.size	key_touch_CalibrateWidget, .-key_touch_CalibrateWidget
 649              		.section	.text.key_touch_CalibrateAllWidgets,"ax",%progbits
 650              		.align	2
 651              		.global	key_touch_CalibrateAllWidgets
 652              		.code	16
 653              		.thumb_func
 654              		.type	key_touch_CalibrateAllWidgets, %function
 655              	key_touch_CalibrateAllWidgets:
 656              	.LFB13:
1613:Generated_Source\PSoC4/key_touch_Sensing.c **** 
1614:Generated_Source\PSoC4/key_touch_Sensing.c **** 
ARM GAS  C:\Users\Administrator\AppData\Local\Temp\ccPYRpEO.s 			page 41


1615:Generated_Source\PSoC4/key_touch_Sensing.c ****     /*******************************************************************************
1616:Generated_Source\PSoC4/key_touch_Sensing.c ****     * Function Name: key_touch_CalibrateAllWidgets
1617:Generated_Source\PSoC4/key_touch_Sensing.c ****     ****************************************************************************//**
1618:Generated_Source\PSoC4/key_touch_Sensing.c ****     *
1619:Generated_Source\PSoC4/key_touch_Sensing.c ****     * \brief
1620:Generated_Source\PSoC4/key_touch_Sensing.c ****     *  Calibrates the IDACs for all widgets in the component to default target
1621:Generated_Source\PSoC4/key_touch_Sensing.c ****     *  (85%) value, this function detects sensing method used by the widgets
1622:Generated_Source\PSoC4/key_touch_Sensing.c ****     *  prior to calibration.
1623:Generated_Source\PSoC4/key_touch_Sensing.c ****     *
1624:Generated_Source\PSoC4/key_touch_Sensing.c ****     * \details
1625:Generated_Source\PSoC4/key_touch_Sensing.c ****     *  Calibrates the IDACs for all widgets in the component to the default
1626:Generated_Source\PSoC4/key_touch_Sensing.c ****     *  target (85% of maximum possible raw count) value. This function detects
1627:Generated_Source\PSoC4/key_touch_Sensing.c ****     *  the sensing method used by the widgets and takes into account the Enable
1628:Generated_Source\PSoC4/key_touch_Sensing.c ****     *  compensation IDAC parameter.
1629:Generated_Source\PSoC4/key_touch_Sensing.c ****     *
1630:Generated_Source\PSoC4/key_touch_Sensing.c ****     *  This function is available when the CSD and/or CSX Enable IDAC
1631:Generated_Source\PSoC4/key_touch_Sensing.c ****     *  auto-calibration parameter is enabled.
1632:Generated_Source\PSoC4/key_touch_Sensing.c ****     *
1633:Generated_Source\PSoC4/key_touch_Sensing.c ****     * \return
1634:Generated_Source\PSoC4/key_touch_Sensing.c ****     *  Returns the status of the calibration process:
1635:Generated_Source\PSoC4/key_touch_Sensing.c ****     *    - CYRET_SUCCESS if the operation is successfully completed.
1636:Generated_Source\PSoC4/key_touch_Sensing.c ****     *    - CYRET_BAD_DATA if the calibration failed and the component may not
1637:Generated_Source\PSoC4/key_touch_Sensing.c ****     *      operate as expected.
1638:Generated_Source\PSoC4/key_touch_Sensing.c ****     *
1639:Generated_Source\PSoC4/key_touch_Sensing.c ****     *******************************************************************************/
1640:Generated_Source\PSoC4/key_touch_Sensing.c ****     cystatus key_touch_CalibrateAllWidgets(void)
1641:Generated_Source\PSoC4/key_touch_Sensing.c ****     {
 657              		.loc 1 1641 0
 658              		.cfi_startproc
 659 0000 38B5     		push	{r3, r4, r5, lr}
 660              		.cfi_def_cfa_offset 16
 661              		.cfi_offset 3, -16
 662              		.cfi_offset 4, -12
 663              		.cfi_offset 5, -8
 664              		.cfi_offset 14, -4
 665              	.LVL67:
1642:Generated_Source\PSoC4/key_touch_Sensing.c ****         cystatus calibrateStatus = CYRET_SUCCESS;
1643:Generated_Source\PSoC4/key_touch_Sensing.c ****         uint32 wdgtIndex;
1644:Generated_Source\PSoC4/key_touch_Sensing.c **** 
1645:Generated_Source\PSoC4/key_touch_Sensing.c ****         for (wdgtIndex = 0u; wdgtIndex < key_touch_TOTAL_WIDGETS; wdgtIndex++)
 666              		.loc 1 1645 0
 667 0002 0024     		mov	r4, #0
1642:Generated_Source\PSoC4/key_touch_Sensing.c ****         cystatus calibrateStatus = CYRET_SUCCESS;
 668              		.loc 1 1642 0
 669 0004 0025     		mov	r5, #0
 670              		.loc 1 1645 0
 671 0006 04E0     		b	.L56
 672              	.LVL68:
 673              	.L57:
1646:Generated_Source\PSoC4/key_touch_Sensing.c ****         {
1647:Generated_Source\PSoC4/key_touch_Sensing.c ****             calibrateStatus |= key_touch_CalibrateWidget(wdgtIndex);
 674              		.loc 1 1647 0 discriminator 3
 675 0008 201C     		mov	r0, r4
 676 000a FFF7FEFF 		bl	key_touch_CalibrateWidget
 677              	.LVL69:
 678 000e 0543     		orr	r5, r0
 679              	.LVL70:
ARM GAS  C:\Users\Administrator\AppData\Local\Temp\ccPYRpEO.s 			page 42


1645:Generated_Source\PSoC4/key_touch_Sensing.c ****         {
 680              		.loc 1 1645 0 discriminator 3
 681 0010 0134     		add	r4, r4, #1
 682              	.LVL71:
 683              	.L56:
1645:Generated_Source\PSoC4/key_touch_Sensing.c ****         {
 684              		.loc 1 1645 0 is_stmt 0 discriminator 1
 685 0012 0B2C     		cmp	r4, #11
 686 0014 F8D9     		bls	.L57
1648:Generated_Source\PSoC4/key_touch_Sensing.c ****         }
1649:Generated_Source\PSoC4/key_touch_Sensing.c **** 
1650:Generated_Source\PSoC4/key_touch_Sensing.c ****         return calibrateStatus;
1651:Generated_Source\PSoC4/key_touch_Sensing.c ****     }
 687              		.loc 1 1651 0 is_stmt 1
 688 0016 281C     		mov	r0, r5
 689              		@ sp needed
 690              	.LVL72:
 691              	.LVL73:
 692 0018 38BD     		pop	{r3, r4, r5, pc}
 693              		.cfi_endproc
 694              	.LFE13:
 695              		.size	key_touch_CalibrateAllWidgets, .-key_touch_CalibrateAllWidgets
 696 001a C046     		.section	.text.key_touch_SsClearCSDSensors,"ax",%progbits
 697              		.align	2
 698              		.global	key_touch_SsClearCSDSensors
 699              		.code	16
 700              		.thumb_func
 701              		.type	key_touch_SsClearCSDSensors, %function
 702              	key_touch_SsClearCSDSensors:
 703              	.LFB18:
1652:Generated_Source\PSoC4/key_touch_Sensing.c **** #endif /* ((key_touch_ENABLE == key_touch_CSD_IDAC_AUTOCAL_EN) ||
1653:Generated_Source\PSoC4/key_touch_Sensing.c ****            (key_touch_ENABLE == key_touch_CSX_IDAC_AUTOCAL_EN)) */
1654:Generated_Source\PSoC4/key_touch_Sensing.c **** 
1655:Generated_Source\PSoC4/key_touch_Sensing.c **** 
1656:Generated_Source\PSoC4/key_touch_Sensing.c **** #if (key_touch_CSD_SS_DIS != key_touch_CSD_AUTOTUNE)
1657:Generated_Source\PSoC4/key_touch_Sensing.c ****     #if (key_touch_ENABLE == key_touch_CSD2X_EN)
1658:Generated_Source\PSoC4/key_touch_Sensing.c ****         /*******************************************************************************
1659:Generated_Source\PSoC4/key_touch_Sensing.c ****         * Function Name: key_touch_SsSetEqualSlotClock
1660:Generated_Source\PSoC4/key_touch_Sensing.c ****         ****************************************************************************//**
1661:Generated_Source\PSoC4/key_touch_Sensing.c ****         *
1662:Generated_Source\PSoC4/key_touch_Sensing.c ****         * \brief
1663:Generated_Source\PSoC4/key_touch_Sensing.c ****         *  This function sets sense clocks to be equal on both CSD blocks.
1664:Generated_Source\PSoC4/key_touch_Sensing.c ****         *
1665:Generated_Source\PSoC4/key_touch_Sensing.c ****         * \details
1666:Generated_Source\PSoC4/key_touch_Sensing.c ****         *  This function sets clock dividers to equal
1667:Generated_Source\PSoC4/key_touch_Sensing.c ****         *  to widget divider that has higher value.
1668:Generated_Source\PSoC4/key_touch_Sensing.c ****         *
1669:Generated_Source\PSoC4/key_touch_Sensing.c ****         *
1670:Generated_Source\PSoC4/key_touch_Sensing.c ****         *******************************************************************************/
1671:Generated_Source\PSoC4/key_touch_Sensing.c ****         static void key_touch_SsSetEqualSlotClock(void)
1672:Generated_Source\PSoC4/key_touch_Sensing.c ****         {
1673:Generated_Source\PSoC4/key_touch_Sensing.c ****             key_touch_RAM_WD_BASE_STRUCT *ptrCSD0Wdgt = 0u;
1674:Generated_Source\PSoC4/key_touch_Sensing.c ****             key_touch_RAM_WD_BASE_STRUCT *ptrCSD1Wdgt = 0u;
1675:Generated_Source\PSoC4/key_touch_Sensing.c ****             uint32 widgetIndex;
1676:Generated_Source\PSoC4/key_touch_Sensing.c ****             uint32 emptySlot;
1677:Generated_Source\PSoC4/key_touch_Sensing.c **** 
1678:Generated_Source\PSoC4/key_touch_Sensing.c ****             /* Make sure that sense clocks are equal on both CSD blocks */
ARM GAS  C:\Users\Administrator\AppData\Local\Temp\ccPYRpEO.s 			page 43


1679:Generated_Source\PSoC4/key_touch_Sensing.c ****             for (widgetIndex = 0u; widgetIndex < key_touch_TOTAL_WIDGETS; widgetIndex++)
1680:Generated_Source\PSoC4/key_touch_Sensing.c ****             {
1681:Generated_Source\PSoC4/key_touch_Sensing.c ****                 emptySlot = 0u;
1682:Generated_Source\PSoC4/key_touch_Sensing.c ****                 for (key_touch_slotIndex = 0u; key_touch_slotIndex < key_touch_TOTAL_SLOTS; key_tou
1683:Generated_Source\PSoC4/key_touch_Sensing.c ****                 {
1684:Generated_Source\PSoC4/key_touch_Sensing.c ****                     key_touch_widgetIndex0 = key_touch_scanSlots[key_touch_slotIndex].csd0WidgetId;
1685:Generated_Source\PSoC4/key_touch_Sensing.c ****                     key_touch_sensorIndex0 = key_touch_scanSlots[key_touch_slotIndex].csd0SensorId;
1686:Generated_Source\PSoC4/key_touch_Sensing.c **** 
1687:Generated_Source\PSoC4/key_touch_Sensing.c ****                     key_touch_widgetIndex1 = key_touch_scanSlots[key_touch_slotIndex].csd1WidgetId;
1688:Generated_Source\PSoC4/key_touch_Sensing.c ****                     key_touch_sensorIndex1 = key_touch_scanSlots[key_touch_slotIndex].csd1SensorId;
1689:Generated_Source\PSoC4/key_touch_Sensing.c **** 
1690:Generated_Source\PSoC4/key_touch_Sensing.c ****                     if (key_touch_EMPTY_SLOT == key_touch_widgetIndex0)
1691:Generated_Source\PSoC4/key_touch_Sensing.c ****                     {
1692:Generated_Source\PSoC4/key_touch_Sensing.c ****                         emptySlot++;
1693:Generated_Source\PSoC4/key_touch_Sensing.c ****                     }
1694:Generated_Source\PSoC4/key_touch_Sensing.c **** 
1695:Generated_Source\PSoC4/key_touch_Sensing.c ****                     if (key_touch_EMPTY_SLOT == key_touch_widgetIndex1)
1696:Generated_Source\PSoC4/key_touch_Sensing.c ****                     {
1697:Generated_Source\PSoC4/key_touch_Sensing.c ****                         emptySlot++;
1698:Generated_Source\PSoC4/key_touch_Sensing.c ****                     }
1699:Generated_Source\PSoC4/key_touch_Sensing.c **** 
1700:Generated_Source\PSoC4/key_touch_Sensing.c ****                     if (0u == emptySlot)
1701:Generated_Source\PSoC4/key_touch_Sensing.c ****                     {
1702:Generated_Source\PSoC4/key_touch_Sensing.c ****                         ptrCSD0Wdgt = (key_touch_RAM_WD_BASE_STRUCT *)
1703:Generated_Source\PSoC4/key_touch_Sensing.c ****                                        key_touch_dsFlash.wdgtArray[key_touch_widgetIndex0].ptr2Wdgt
1704:Generated_Source\PSoC4/key_touch_Sensing.c ****                         ptrCSD1Wdgt = (key_touch_RAM_WD_BASE_STRUCT *)
1705:Generated_Source\PSoC4/key_touch_Sensing.c ****                                        key_touch_dsFlash.wdgtArray[key_touch_widgetIndex1].ptr2Wdgt
1706:Generated_Source\PSoC4/key_touch_Sensing.c **** 
1707:Generated_Source\PSoC4/key_touch_Sensing.c ****                         #if (key_touch_CSD_MATRIX_WIDGET_EN | key_touch_CSD_TOUCHPAD_WIDGET_EN)
1708:Generated_Source\PSoC4/key_touch_Sensing.c ****                             /* Check if current slot for CSD0 block has a row */
1709:Generated_Source\PSoC4/key_touch_Sensing.c ****                             if (key_touch_dsFlash.wdgtArray[key_touch_widgetIndex0].numCols <= key_
1710:Generated_Source\PSoC4/key_touch_Sensing.c ****                             {
1711:Generated_Source\PSoC4/key_touch_Sensing.c ****                                 /* Check if current slot for CSD1 block has a row */
1712:Generated_Source\PSoC4/key_touch_Sensing.c ****                                 if (key_touch_dsFlash.wdgtArray[key_touch_widgetIndex1].numCols <= 
1713:Generated_Source\PSoC4/key_touch_Sensing.c ****                                 {
1714:Generated_Source\PSoC4/key_touch_Sensing.c ****                                     /* Both slots have the rows. Compare rowSnsClk and reassign the
1715:Generated_Source\PSoC4/key_touch_Sensing.c ****                                     if (ptrCSD0Wdgt->rowSnsClk < ptrCSD1Wdgt->rowSnsClk)
1716:Generated_Source\PSoC4/key_touch_Sensing.c ****                                     {
1717:Generated_Source\PSoC4/key_touch_Sensing.c ****                                         ptrCSD0Wdgt->rowSnsClk = ptrCSD1Wdgt->rowSnsClk;
1718:Generated_Source\PSoC4/key_touch_Sensing.c ****                                     }
1719:Generated_Source\PSoC4/key_touch_Sensing.c ****                                     else
1720:Generated_Source\PSoC4/key_touch_Sensing.c ****                                     {
1721:Generated_Source\PSoC4/key_touch_Sensing.c ****                                         ptrCSD1Wdgt->rowSnsClk = ptrCSD0Wdgt->rowSnsClk;
1722:Generated_Source\PSoC4/key_touch_Sensing.c ****                                     }
1723:Generated_Source\PSoC4/key_touch_Sensing.c ****                                 }
1724:Generated_Source\PSoC4/key_touch_Sensing.c ****                                 else
1725:Generated_Source\PSoC4/key_touch_Sensing.c ****                                 {
1726:Generated_Source\PSoC4/key_touch_Sensing.c ****                                     /* CSD0 block has the row and CSD1 block has the column. Compar
1727:Generated_Source\PSoC4/key_touch_Sensing.c ****                                     if (ptrCSD0Wdgt->rowSnsClk < ptrCSD1Wdgt->snsClk)
1728:Generated_Source\PSoC4/key_touch_Sensing.c ****                                     {
1729:Generated_Source\PSoC4/key_touch_Sensing.c ****                                         ptrCSD0Wdgt->rowSnsClk = ptrCSD1Wdgt->snsClk;
1730:Generated_Source\PSoC4/key_touch_Sensing.c ****                                     }
1731:Generated_Source\PSoC4/key_touch_Sensing.c ****                                     else
1732:Generated_Source\PSoC4/key_touch_Sensing.c ****                                     {
1733:Generated_Source\PSoC4/key_touch_Sensing.c ****                                         ptrCSD1Wdgt->snsClk = ptrCSD0Wdgt->rowSnsClk;
1734:Generated_Source\PSoC4/key_touch_Sensing.c ****                                     }
1735:Generated_Source\PSoC4/key_touch_Sensing.c ****                                 }
ARM GAS  C:\Users\Administrator\AppData\Local\Temp\ccPYRpEO.s 			page 44


1736:Generated_Source\PSoC4/key_touch_Sensing.c ****                             }
1737:Generated_Source\PSoC4/key_touch_Sensing.c ****                             else
1738:Generated_Source\PSoC4/key_touch_Sensing.c ****                             {
1739:Generated_Source\PSoC4/key_touch_Sensing.c ****                                 /* Check if current slot for CSD1 block has a row */
1740:Generated_Source\PSoC4/key_touch_Sensing.c ****                                 if (key_touch_dsFlash.wdgtArray[key_touch_widgetIndex1].numCols <= 
1741:Generated_Source\PSoC4/key_touch_Sensing.c ****                                 {
1742:Generated_Source\PSoC4/key_touch_Sensing.c ****                                     /* CSD0 block has the column and CSD1 block has the row. Compar
1743:Generated_Source\PSoC4/key_touch_Sensing.c ****                                     if (ptrCSD0Wdgt->snsClk < ptrCSD1Wdgt->rowSnsClk)
1744:Generated_Source\PSoC4/key_touch_Sensing.c ****                                     {
1745:Generated_Source\PSoC4/key_touch_Sensing.c ****                                         ptrCSD0Wdgt->snsClk = ptrCSD1Wdgt->rowSnsClk;
1746:Generated_Source\PSoC4/key_touch_Sensing.c ****                                     }
1747:Generated_Source\PSoC4/key_touch_Sensing.c ****                                     else
1748:Generated_Source\PSoC4/key_touch_Sensing.c ****                                     {
1749:Generated_Source\PSoC4/key_touch_Sensing.c ****                                         ptrCSD1Wdgt->rowSnsClk = ptrCSD0Wdgt->snsClk;
1750:Generated_Source\PSoC4/key_touch_Sensing.c ****                                     }
1751:Generated_Source\PSoC4/key_touch_Sensing.c ****                                 }
1752:Generated_Source\PSoC4/key_touch_Sensing.c ****                                 else
1753:Generated_Source\PSoC4/key_touch_Sensing.c ****                                 {
1754:Generated_Source\PSoC4/key_touch_Sensing.c ****                                     /* Both slots have the columns. Compare snsClk and reassign the
1755:Generated_Source\PSoC4/key_touch_Sensing.c ****                                     if (ptrCSD0Wdgt->snsClk < ptrCSD1Wdgt->snsClk)
1756:Generated_Source\PSoC4/key_touch_Sensing.c ****                                     {
1757:Generated_Source\PSoC4/key_touch_Sensing.c ****                                         ptrCSD0Wdgt->snsClk = ptrCSD1Wdgt->snsClk;
1758:Generated_Source\PSoC4/key_touch_Sensing.c ****                                     }
1759:Generated_Source\PSoC4/key_touch_Sensing.c ****                                     else
1760:Generated_Source\PSoC4/key_touch_Sensing.c ****                                     {
1761:Generated_Source\PSoC4/key_touch_Sensing.c ****                                         ptrCSD1Wdgt->snsClk = ptrCSD0Wdgt->snsClk;
1762:Generated_Source\PSoC4/key_touch_Sensing.c ****                                     }
1763:Generated_Source\PSoC4/key_touch_Sensing.c ****                                 }
1764:Generated_Source\PSoC4/key_touch_Sensing.c ****                             }
1765:Generated_Source\PSoC4/key_touch_Sensing.c ****                         #else
1766:Generated_Source\PSoC4/key_touch_Sensing.c ****                             /* Compare snsClk and reassign the higher divider to widget with the lo
1767:Generated_Source\PSoC4/key_touch_Sensing.c ****                             if (ptrCSD0Wdgt->snsClk < ptrCSD1Wdgt->snsClk)
1768:Generated_Source\PSoC4/key_touch_Sensing.c ****                             {
1769:Generated_Source\PSoC4/key_touch_Sensing.c ****                                 ptrCSD0Wdgt->snsClk = ptrCSD1Wdgt->snsClk;
1770:Generated_Source\PSoC4/key_touch_Sensing.c ****                             }
1771:Generated_Source\PSoC4/key_touch_Sensing.c ****                             else
1772:Generated_Source\PSoC4/key_touch_Sensing.c ****                             {
1773:Generated_Source\PSoC4/key_touch_Sensing.c ****                                 ptrCSD1Wdgt->snsClk = ptrCSD0Wdgt->snsClk;
1774:Generated_Source\PSoC4/key_touch_Sensing.c ****                             }
1775:Generated_Source\PSoC4/key_touch_Sensing.c ****                         #endif /* (key_touch_CSD_MATRIX_WIDGET_EN | key_touch_CSD_TOUCHPAD_WIDGET_E
1776:Generated_Source\PSoC4/key_touch_Sensing.c ****                     }
1777:Generated_Source\PSoC4/key_touch_Sensing.c ****                 }
1778:Generated_Source\PSoC4/key_touch_Sensing.c ****             }
1779:Generated_Source\PSoC4/key_touch_Sensing.c ****         }
1780:Generated_Source\PSoC4/key_touch_Sensing.c **** 
1781:Generated_Source\PSoC4/key_touch_Sensing.c **** 
1782:Generated_Source\PSoC4/key_touch_Sensing.c ****         /*******************************************************************************
1783:Generated_Source\PSoC4/key_touch_Sensing.c ****         * Function Name: key_touch_SsSetCSD0DirectClockMode
1784:Generated_Source\PSoC4/key_touch_Sensing.c ****         ****************************************************************************//**
1785:Generated_Source\PSoC4/key_touch_Sensing.c ****         *
1786:Generated_Source\PSoC4/key_touch_Sensing.c ****         * \brief
1787:Generated_Source\PSoC4/key_touch_Sensing.c ****         *  Sets Direct Clock Mode.
1788:Generated_Source\PSoC4/key_touch_Sensing.c ****         *
1789:Generated_Source\PSoC4/key_touch_Sensing.c ****         * \details
1790:Generated_Source\PSoC4/key_touch_Sensing.c ****         *  For CSDv1: Resets PRS bit in key_touch_configCsd variable;
1791:Generated_Source\PSoC4/key_touch_Sensing.c ****         *
1792:Generated_Source\PSoC4/key_touch_Sensing.c ****         *******************************************************************************/
ARM GAS  C:\Users\Administrator\AppData\Local\Temp\ccPYRpEO.s 			page 45


1793:Generated_Source\PSoC4/key_touch_Sensing.c ****         static void key_touch_SsSetCSD0DirectClockMode(void)
1794:Generated_Source\PSoC4/key_touch_Sensing.c ****         {
1795:Generated_Source\PSoC4/key_touch_Sensing.c ****             #if (key_touch_DISABLE == key_touch_CSDV2)
1796:Generated_Source\PSoC4/key_touch_Sensing.c ****                 key_touch_configCsd0 = key_touch_configCsd0 &(uint32)~(key_touch_CONFIG_PRS_SELECT_
1797:Generated_Source\PSoC4/key_touch_Sensing.c ****             #endif /* (key_touch_ENABLE == key_touch_CSDV2) */
1798:Generated_Source\PSoC4/key_touch_Sensing.c ****         }
1799:Generated_Source\PSoC4/key_touch_Sensing.c **** 
1800:Generated_Source\PSoC4/key_touch_Sensing.c **** 
1801:Generated_Source\PSoC4/key_touch_Sensing.c ****         /*******************************************************************************
1802:Generated_Source\PSoC4/key_touch_Sensing.c ****         * Function Name: key_touch_SsSetCSD1DirectClockMode
1803:Generated_Source\PSoC4/key_touch_Sensing.c ****         ****************************************************************************//**
1804:Generated_Source\PSoC4/key_touch_Sensing.c ****         *
1805:Generated_Source\PSoC4/key_touch_Sensing.c ****         * \brief
1806:Generated_Source\PSoC4/key_touch_Sensing.c ****         *  Sets Direct Clock Mode.
1807:Generated_Source\PSoC4/key_touch_Sensing.c ****         *
1808:Generated_Source\PSoC4/key_touch_Sensing.c ****         * \details
1809:Generated_Source\PSoC4/key_touch_Sensing.c ****         *  For CSDv1: Resets PRS bit in key_touch_configCsd variable;
1810:Generated_Source\PSoC4/key_touch_Sensing.c ****         *
1811:Generated_Source\PSoC4/key_touch_Sensing.c ****         *******************************************************************************/
1812:Generated_Source\PSoC4/key_touch_Sensing.c ****         static void key_touch_SsSetCSD1DirectClockMode(void)
1813:Generated_Source\PSoC4/key_touch_Sensing.c ****         {
1814:Generated_Source\PSoC4/key_touch_Sensing.c ****             #if (key_touch_DISABLE == key_touch_CSDV2)
1815:Generated_Source\PSoC4/key_touch_Sensing.c ****                 key_touch_configCsd1 = key_touch_configCsd1 &(uint32)~(key_touch_CONFIG_PRS_SELECT_
1816:Generated_Source\PSoC4/key_touch_Sensing.c ****             #endif /* (key_touch_ENABLE == key_touch_CSDV2) */
1817:Generated_Source\PSoC4/key_touch_Sensing.c ****         }
1818:Generated_Source\PSoC4/key_touch_Sensing.c ****     #else
1819:Generated_Source\PSoC4/key_touch_Sensing.c **** 
1820:Generated_Source\PSoC4/key_touch_Sensing.c **** 
1821:Generated_Source\PSoC4/key_touch_Sensing.c ****         /*******************************************************************************
1822:Generated_Source\PSoC4/key_touch_Sensing.c ****         * Function Name: key_touch_SsSetDirectClockMode
1823:Generated_Source\PSoC4/key_touch_Sensing.c ****         ****************************************************************************//**
1824:Generated_Source\PSoC4/key_touch_Sensing.c ****         *
1825:Generated_Source\PSoC4/key_touch_Sensing.c ****         * \brief
1826:Generated_Source\PSoC4/key_touch_Sensing.c ****         *  Sets Direct Clock Mode.
1827:Generated_Source\PSoC4/key_touch_Sensing.c ****         *
1828:Generated_Source\PSoC4/key_touch_Sensing.c ****         * \details
1829:Generated_Source\PSoC4/key_touch_Sensing.c ****         *  For CSDv1: Resets PRS bit in key_touch_configCsd variable;
1830:Generated_Source\PSoC4/key_touch_Sensing.c ****         *  For CSDv2: Resets key_touch_SENSE_PERIOD_SEL_LFSR_MSB_MASK and
1831:Generated_Source\PSoC4/key_touch_Sensing.c ****         *  key_touch_SENSE_PERIOD_SEL_LFSR_MSB_MASK bits in
1832:Generated_Source\PSoC4/key_touch_Sensing.c ****         *  key_touch_SENSE_PERIOD register.
1833:Generated_Source\PSoC4/key_touch_Sensing.c ****         *
1834:Generated_Source\PSoC4/key_touch_Sensing.c ****         *******************************************************************************/
1835:Generated_Source\PSoC4/key_touch_Sensing.c ****         static void key_touch_SsSetDirectClockMode(void)
1836:Generated_Source\PSoC4/key_touch_Sensing.c ****         {
1837:Generated_Source\PSoC4/key_touch_Sensing.c ****             #if (key_touch_ENABLE == key_touch_CSDV2)
1838:Generated_Source\PSoC4/key_touch_Sensing.c ****                 CY_SET_REG32(key_touch_SENSE_PERIOD_PTR, CY_GET_REG32(key_touch_SENSE_PERIOD_PTR) &
1839:Generated_Source\PSoC4/key_touch_Sensing.c ****                                                                      (uint32)~(key_touch_SENSE_PERI
1840:Generated_Source\PSoC4/key_touch_Sensing.c ****                                                                      key_touch_SENSE_PERIOD_LFSR_SI
1841:Generated_Source\PSoC4/key_touch_Sensing.c ****             #else
1842:Generated_Source\PSoC4/key_touch_Sensing.c ****                 key_touch_configCsd = key_touch_configCsd &(uint32)~(key_touch_CONFIG_PRS_SELECT_MA
1843:Generated_Source\PSoC4/key_touch_Sensing.c ****             #endif /* (key_touch_ENABLE == key_touch_CSDV2) */
1844:Generated_Source\PSoC4/key_touch_Sensing.c ****         }
1845:Generated_Source\PSoC4/key_touch_Sensing.c ****     #endif /* (key_touch_ENABLE == key_touch_CSD2X_EN) */
1846:Generated_Source\PSoC4/key_touch_Sensing.c **** 
1847:Generated_Source\PSoC4/key_touch_Sensing.c **** 
1848:Generated_Source\PSoC4/key_touch_Sensing.c ****     /*******************************************************************************
1849:Generated_Source\PSoC4/key_touch_Sensing.c ****     * Function Name: key_touch_SsAutoTune
ARM GAS  C:\Users\Administrator\AppData\Local\Temp\ccPYRpEO.s 			page 46


1850:Generated_Source\PSoC4/key_touch_Sensing.c ****     ****************************************************************************//**
1851:Generated_Source\PSoC4/key_touch_Sensing.c ****     *
1852:Generated_Source\PSoC4/key_touch_Sensing.c ****     * \brief
1853:Generated_Source\PSoC4/key_touch_Sensing.c ****     *  This API performs the parameters auto-tuning for the optimal key_touch operation.
1854:Generated_Source\PSoC4/key_touch_Sensing.c ****     *
1855:Generated_Source\PSoC4/key_touch_Sensing.c ****     * \details
1856:Generated_Source\PSoC4/key_touch_Sensing.c ****     *  This API performs the following:
1857:Generated_Source\PSoC4/key_touch_Sensing.c ****     *  - Calibrates Modulator and Compensation IDACs.
1858:Generated_Source\PSoC4/key_touch_Sensing.c ****     *  - Tunes the Sense Clock optimal value to get a Sense Clock period greater than
1859:Generated_Source\PSoC4/key_touch_Sensing.c ****     *     2*5*R*Cp.
1860:Generated_Source\PSoC4/key_touch_Sensing.c ****     *  - Calculates the resolution for the optimal finger capacitance.
1861:Generated_Source\PSoC4/key_touch_Sensing.c ****     *
1862:Generated_Source\PSoC4/key_touch_Sensing.c ****     * \return
1863:Generated_Source\PSoC4/key_touch_Sensing.c ****     *   Returns the status of operation:
1864:Generated_Source\PSoC4/key_touch_Sensing.c ****     *   - Zero     - All the widgets are auto-tuned successfully.
1865:Generated_Source\PSoC4/key_touch_Sensing.c ****     *   - Non-zero - Auto-tuning failed for any widget.
1866:Generated_Source\PSoC4/key_touch_Sensing.c ****     *
1867:Generated_Source\PSoC4/key_touch_Sensing.c ****     *******************************************************************************/
1868:Generated_Source\PSoC4/key_touch_Sensing.c ****     cystatus key_touch_SsAutoTune(void)
1869:Generated_Source\PSoC4/key_touch_Sensing.c ****     {
1870:Generated_Source\PSoC4/key_touch_Sensing.c ****         cystatus autoTuneStatus = CYRET_SUCCESS;
1871:Generated_Source\PSoC4/key_touch_Sensing.c ****         uint32 wdgtIndex;
1872:Generated_Source\PSoC4/key_touch_Sensing.c ****         uint32 cp = 0uL;
1873:Generated_Source\PSoC4/key_touch_Sensing.c ****         #if (key_touch_CSD_MATRIX_WIDGET_EN | key_touch_CSD_TOUCHPAD_WIDGET_EN)
1874:Generated_Source\PSoC4/key_touch_Sensing.c ****             uint32 cpRow = 0uL;
1875:Generated_Source\PSoC4/key_touch_Sensing.c ****         #endif /* (key_touch_CSD_MATRIX_WIDGET_EN | key_touch_CSD_TOUCHPAD_WIDGET_EN) */
1876:Generated_Source\PSoC4/key_touch_Sensing.c ****         key_touch_RAM_WD_BASE_STRUCT *ptrWdgt;
1877:Generated_Source\PSoC4/key_touch_Sensing.c ****         AUTO_TUNE_CONFIG_TYPE autoTuneConfig;
1878:Generated_Source\PSoC4/key_touch_Sensing.c ****         #if (key_touch_ENABLE == key_touch_CSD2X_EN)
1879:Generated_Source\PSoC4/key_touch_Sensing.c ****             uint32 csdBlockID;
1880:Generated_Source\PSoC4/key_touch_Sensing.c ****         #endif /* (key_touch_ENABLE == key_touch_CSD2X_EN) */
1881:Generated_Source\PSoC4/key_touch_Sensing.c **** 
1882:Generated_Source\PSoC4/key_touch_Sensing.c ****         /* Configure common config variables */
1883:Generated_Source\PSoC4/key_touch_Sensing.c ****         autoTuneConfig.snsClkConstantR = key_touch_CSD_SNSCLK_R_CONST;
1884:Generated_Source\PSoC4/key_touch_Sensing.c ****         autoTuneConfig.vRef = key_touch_CSD_VREF_MV;
1885:Generated_Source\PSoC4/key_touch_Sensing.c ****         #if (key_touch_DISABLE == key_touch_CSD2X_EN)
1886:Generated_Source\PSoC4/key_touch_Sensing.c ****             autoTuneConfig.iDacGain = key_touch_CSD_IDAC_GAIN_VALUE_NA * key_touch_CSD_DUAL_IDAC_FA
1887:Generated_Source\PSoC4/key_touch_Sensing.c ****         #endif /* (key_touch_DISABLE == key_touch_CSD2X_EN) */
1888:Generated_Source\PSoC4/key_touch_Sensing.c ****         autoTuneConfig.calTarget = key_touch_CSD_AUTOTUNE_CAL_LEVEL;
1889:Generated_Source\PSoC4/key_touch_Sensing.c **** 
1890:Generated_Source\PSoC4/key_touch_Sensing.c ****         /* Calculate snsClk Input Clock in KHz */
1891:Generated_Source\PSoC4/key_touch_Sensing.c ****         #if (key_touch_ENABLE == key_touch_CSDV2)
1892:Generated_Source\PSoC4/key_touch_Sensing.c ****             /*  Dividers are chained (CSDV2). Flip flop is not available */
1893:Generated_Source\PSoC4/key_touch_Sensing.c ****             autoTuneConfig.snsClkInputClock = (CYDEV_BCLK__HFCLK__KHZ / key_touch_dsRam.modCsdClk);
1894:Generated_Source\PSoC4/key_touch_Sensing.c ****         #elif ((key_touch_ENABLE == key_touch_IS_M0S8PERI_BLOCK) && (key_touch_DISABLE == CY_PSOC4_
1895:Generated_Source\PSoC4/key_touch_Sensing.c ****             /*  Dividers are not chained */
1896:Generated_Source\PSoC4/key_touch_Sensing.c ****             autoTuneConfig.snsClkInputClock = CYDEV_BCLK__HFCLK__KHZ >> key_touch_FLIP_FLOP_DIV;
1897:Generated_Source\PSoC4/key_touch_Sensing.c ****         #elif (key_touch_ENABLE == key_touch_IS_M0S8PERI_BLOCK)
1898:Generated_Source\PSoC4/key_touch_Sensing.c ****             /*  Dividers are not chained (PSoC 4000) */
1899:Generated_Source\PSoC4/key_touch_Sensing.c ****             autoTuneConfig.snsClkInputClock = CYDEV_BCLK__HFCLK__KHZ >> key_touch_FLIP_FLOP_DIV;
1900:Generated_Source\PSoC4/key_touch_Sensing.c ****         #else
1901:Generated_Source\PSoC4/key_touch_Sensing.c ****             /*  Dividers are chained (PSoC 4100, PSoC 4200) */
1902:Generated_Source\PSoC4/key_touch_Sensing.c ****             autoTuneConfig.snsClkInputClock = (CYDEV_BCLK__HFCLK__KHZ / key_touch_dsRam.modCsdClk) 
1903:Generated_Source\PSoC4/key_touch_Sensing.c ****         #endif /* (key_touch_ENABLE == key_touch_CSDV2) */
1904:Generated_Source\PSoC4/key_touch_Sensing.c **** 
1905:Generated_Source\PSoC4/key_touch_Sensing.c ****         /* If both CSD and CSX are enabled, calibrate widget using sensing method */
1906:Generated_Source\PSoC4/key_touch_Sensing.c ****         #if (key_touch_ENABLE == key_touch_CSD_CSX_EN)
ARM GAS  C:\Users\Administrator\AppData\Local\Temp\ccPYRpEO.s 			page 47


1907:Generated_Source\PSoC4/key_touch_Sensing.c ****             /* Initialize CSD mode */
1908:Generated_Source\PSoC4/key_touch_Sensing.c ****             key_touch_SsCSDInitialize();
1909:Generated_Source\PSoC4/key_touch_Sensing.c ****         #endif /* (key_touch_ENABLE == key_touch_CSD_CSX_EN) */
1910:Generated_Source\PSoC4/key_touch_Sensing.c **** 
1911:Generated_Source\PSoC4/key_touch_Sensing.c ****         /* Set flag to calibrate in PWM mode only */
1912:Generated_Source\PSoC4/key_touch_Sensing.c ****         key_touch_prescalersTuningDone = key_touch_DISABLE;
1913:Generated_Source\PSoC4/key_touch_Sensing.c **** 
1914:Generated_Source\PSoC4/key_touch_Sensing.c ****         /* Switch charge clock source to direct clock mode */
1915:Generated_Source\PSoC4/key_touch_Sensing.c ****         #if (key_touch_ENABLE == key_touch_CSD2X_EN)
1916:Generated_Source\PSoC4/key_touch_Sensing.c ****             key_touch_SsSetCSD0DirectClockMode();
1917:Generated_Source\PSoC4/key_touch_Sensing.c ****             key_touch_SsSetCSD1DirectClockMode();
1918:Generated_Source\PSoC4/key_touch_Sensing.c ****         #else
1919:Generated_Source\PSoC4/key_touch_Sensing.c ****             key_touch_SsSetDirectClockMode();
1920:Generated_Source\PSoC4/key_touch_Sensing.c ****         #endif /* (key_touch_ENABLE == key_touch_CSD2X_EN) */
1921:Generated_Source\PSoC4/key_touch_Sensing.c **** 
1922:Generated_Source\PSoC4/key_touch_Sensing.c **** 
1923:Generated_Source\PSoC4/key_touch_Sensing.c ****         /* Tune sense clock for all widgets */
1924:Generated_Source\PSoC4/key_touch_Sensing.c ****         for (wdgtIndex = 0u; wdgtIndex < key_touch_TOTAL_WIDGETS; wdgtIndex++)
1925:Generated_Source\PSoC4/key_touch_Sensing.c ****         {
1926:Generated_Source\PSoC4/key_touch_Sensing.c ****             if (key_touch_SENSE_METHOD_CSD_E ==
1927:Generated_Source\PSoC4/key_touch_Sensing.c ****                 key_touch_GET_SENSE_METHOD(&key_touch_dsFlash.wdgtArray[wdgtIndex]))
1928:Generated_Source\PSoC4/key_touch_Sensing.c ****             {
1929:Generated_Source\PSoC4/key_touch_Sensing.c ****                 ptrWdgt = (key_touch_RAM_WD_BASE_STRUCT *)
1930:Generated_Source\PSoC4/key_touch_Sensing.c ****                           key_touch_dsFlash.wdgtArray[wdgtIndex].ptr2WdgtRam;
1931:Generated_Source\PSoC4/key_touch_Sensing.c **** 
1932:Generated_Source\PSoC4/key_touch_Sensing.c ****                 #if (key_touch_ENABLE == key_touch_CSD2X_EN)
1933:Generated_Source\PSoC4/key_touch_Sensing.c ****                     csdBlockID = key_touch_dsFlash.wdgtArray[wdgtIndex].csdblk;
1934:Generated_Source\PSoC4/key_touch_Sensing.c **** 
1935:Generated_Source\PSoC4/key_touch_Sensing.c ****                     if (key_touch_CSD0_BLOCK_ID == csdBlockID)
1936:Generated_Source\PSoC4/key_touch_Sensing.c ****                     {
1937:Generated_Source\PSoC4/key_touch_Sensing.c ****                         autoTuneConfig.iDacGain = key_touch_CSD0_IDAC_GAIN_VALUE_NA * key_touch_CSD
1938:Generated_Source\PSoC4/key_touch_Sensing.c ****                     }
1939:Generated_Source\PSoC4/key_touch_Sensing.c ****                     else
1940:Generated_Source\PSoC4/key_touch_Sensing.c ****                     {
1941:Generated_Source\PSoC4/key_touch_Sensing.c ****                         autoTuneConfig.iDacGain = key_touch_CSD1_IDAC_GAIN_VALUE_NA * key_touch_CSD
1942:Generated_Source\PSoC4/key_touch_Sensing.c ****                     }
1943:Generated_Source\PSoC4/key_touch_Sensing.c ****                 #endif /* (key_touch_ENABLE == key_touch_CSD2X_EN) */
1944:Generated_Source\PSoC4/key_touch_Sensing.c **** 
1945:Generated_Source\PSoC4/key_touch_Sensing.c ****                 /* Set calibration resolution to 12 bits */
1946:Generated_Source\PSoC4/key_touch_Sensing.c ****                 ptrWdgt->resolution = key_touch_CALIBRATION_RESOLUTION;
1947:Generated_Source\PSoC4/key_touch_Sensing.c **** 
1948:Generated_Source\PSoC4/key_touch_Sensing.c ****                 /* Set Sense clock frequency to 1.5 MHz */
1949:Generated_Source\PSoC4/key_touch_Sensing.c ****                 #if (key_touch_ENABLE == key_touch_CSD_COMMON_SNS_CLK_EN)
1950:Generated_Source\PSoC4/key_touch_Sensing.c ****                     key_touch_dsRam.snsCsdClk = (uint8)((uint32)autoTuneConfig.snsClkInputClock /
1951:Generated_Source\PSoC4/key_touch_Sensing.c ****                                                        key_touch_CALIBRATION_FREQ_KHZ);
1952:Generated_Source\PSoC4/key_touch_Sensing.c ****                 #elif (key_touch_CSD_MATRIX_WIDGET_EN | key_touch_CSD_TOUCHPAD_WIDGET_EN)
1953:Generated_Source\PSoC4/key_touch_Sensing.c ****                     if ((key_touch_WD_TOUCHPAD_E == (key_touch_WD_TYPE_ENUM)key_touch_dsFlash.wdgtA
1954:Generated_Source\PSoC4/key_touch_Sensing.c ****                         (key_touch_WD_MATRIX_BUTTON_E == (key_touch_WD_TYPE_ENUM)key_touch_dsFlash.
1955:Generated_Source\PSoC4/key_touch_Sensing.c ****                     {
1956:Generated_Source\PSoC4/key_touch_Sensing.c ****                         ptrWdgt->rowSnsClk = (uint8)((uint32)autoTuneConfig.snsClkInputClock /
1957:Generated_Source\PSoC4/key_touch_Sensing.c ****                                              key_touch_CALIBRATION_FREQ_KHZ);
1958:Generated_Source\PSoC4/key_touch_Sensing.c ****                     }
1959:Generated_Source\PSoC4/key_touch_Sensing.c ****                     ptrWdgt->snsClk = (uint8)((uint32)autoTuneConfig.snsClkInputClock /
1960:Generated_Source\PSoC4/key_touch_Sensing.c ****                                       key_touch_CALIBRATION_FREQ_KHZ);
1961:Generated_Source\PSoC4/key_touch_Sensing.c ****                 #else
1962:Generated_Source\PSoC4/key_touch_Sensing.c ****                     ptrWdgt->snsClk = (uint8)((uint32)autoTuneConfig.snsClkInputClock /
1963:Generated_Source\PSoC4/key_touch_Sensing.c ****                                       key_touch_CALIBRATION_FREQ_KHZ);
ARM GAS  C:\Users\Administrator\AppData\Local\Temp\ccPYRpEO.s 			page 48


1964:Generated_Source\PSoC4/key_touch_Sensing.c ****                 #endif /*  (key_touch_ENABLE == key_touch_CSD_COMMON_SNS_CLK_EN) */
1965:Generated_Source\PSoC4/key_touch_Sensing.c **** 
1966:Generated_Source\PSoC4/key_touch_Sensing.c ****                 /* Calibrate CSD widget to 85% */
1967:Generated_Source\PSoC4/key_touch_Sensing.c ****                 #if (key_touch_ENABLE == key_touch_CSD2X_EN)
1968:Generated_Source\PSoC4/key_touch_Sensing.c ****                     (void)key_touch_CSD2XCalibrateWidget(wdgtIndex, key_touch_CSD_AUTOTUNE_CAL_LEVE
1969:Generated_Source\PSoC4/key_touch_Sensing.c ****                 #else
1970:Generated_Source\PSoC4/key_touch_Sensing.c ****                     (void)key_touch_CSDCalibrateWidget(wdgtIndex, key_touch_CSD_AUTOTUNE_CAL_LEVEL)
1971:Generated_Source\PSoC4/key_touch_Sensing.c ****                 #endif /* (key_touch_ENABLE == key_touch_CSD2X_EN) */
1972:Generated_Source\PSoC4/key_touch_Sensing.c **** 
1973:Generated_Source\PSoC4/key_touch_Sensing.c ****                 #if (key_touch_CSD_MATRIX_WIDGET_EN | key_touch_CSD_TOUCHPAD_WIDGET_EN)
1974:Generated_Source\PSoC4/key_touch_Sensing.c ****                     if ((key_touch_WD_TOUCHPAD_E == (key_touch_WD_TYPE_ENUM)key_touch_dsFlash.wdgtA
1975:Generated_Source\PSoC4/key_touch_Sensing.c ****                         (key_touch_WD_MATRIX_BUTTON_E == (key_touch_WD_TYPE_ENUM)key_touch_dsFlash.
1976:Generated_Source\PSoC4/key_touch_Sensing.c ****                     {
1977:Generated_Source\PSoC4/key_touch_Sensing.c ****                         /* Get pointer to Modulator IDAC for columns */
1978:Generated_Source\PSoC4/key_touch_Sensing.c ****                         autoTuneConfig.ptrModIDAC = &ptrWdgt->rowIdacMod[0u];
1979:Generated_Source\PSoC4/key_touch_Sensing.c **** 
1980:Generated_Source\PSoC4/key_touch_Sensing.c ****                         /* Get pointer to Sense Clock Divider for columns */
1981:Generated_Source\PSoC4/key_touch_Sensing.c ****                         autoTuneConfig.ptrSenseClk = &ptrWdgt->rowSnsClk;
1982:Generated_Source\PSoC4/key_touch_Sensing.c **** 
1983:Generated_Source\PSoC4/key_touch_Sensing.c ****                         /* Find correct sense clock value */
1984:Generated_Source\PSoC4/key_touch_Sensing.c ****                         cpRow = SmartSense_TunePrescalers(&autoTuneConfig);
1985:Generated_Source\PSoC4/key_touch_Sensing.c **** 
1986:Generated_Source\PSoC4/key_touch_Sensing.c ****                         if ((key_touch_CP_MAX + key_touch_CP_ERROR) <= cpRow)
1987:Generated_Source\PSoC4/key_touch_Sensing.c ****                         {
1988:Generated_Source\PSoC4/key_touch_Sensing.c ****                             autoTuneStatus = CYRET_BAD_DATA;
1989:Generated_Source\PSoC4/key_touch_Sensing.c ****                         }
1990:Generated_Source\PSoC4/key_touch_Sensing.c **** 
1991:Generated_Source\PSoC4/key_touch_Sensing.c ****                         #if (key_touch_ENABLE == key_touch_CSDV2)
1992:Generated_Source\PSoC4/key_touch_Sensing.c ****                             /* Make sure that ModClk >= 4 * rowSnsClk for ModClk <= 12 MHz and rowS
1993:Generated_Source\PSoC4/key_touch_Sensing.c ****                             if (autoTuneConfig.snsClkInputClock <= key_touch_MOD_CSD_CLK_24000KHZ)
1994:Generated_Source\PSoC4/key_touch_Sensing.c ****                             {
1995:Generated_Source\PSoC4/key_touch_Sensing.c ****                                 if (ptrWdgt->rowSnsClk < key_touch_FACTOR_FILTER_DELAY_12MHZ)
1996:Generated_Source\PSoC4/key_touch_Sensing.c ****                                 {
1997:Generated_Source\PSoC4/key_touch_Sensing.c ****                                     ptrWdgt->rowSnsClk = key_touch_FACTOR_FILTER_DELAY_12MHZ;
1998:Generated_Source\PSoC4/key_touch_Sensing.c ****                                 }
1999:Generated_Source\PSoC4/key_touch_Sensing.c ****                             }
2000:Generated_Source\PSoC4/key_touch_Sensing.c ****                             else if (autoTuneConfig.snsClkInputClock <= key_touch_MOD_CSD_CLK_48000
2001:Generated_Source\PSoC4/key_touch_Sensing.c ****                             {
2002:Generated_Source\PSoC4/key_touch_Sensing.c ****                                 if (ptrWdgt->rowSnsClk < key_touch_FACTOR_MOD_SNS)
2003:Generated_Source\PSoC4/key_touch_Sensing.c ****                                 {
2004:Generated_Source\PSoC4/key_touch_Sensing.c ****                                     ptrWdgt->rowSnsClk = key_touch_FACTOR_MOD_SNS;
2005:Generated_Source\PSoC4/key_touch_Sensing.c ****                                 }
2006:Generated_Source\PSoC4/key_touch_Sensing.c ****                             }
2007:Generated_Source\PSoC4/key_touch_Sensing.c ****                             else
2008:Generated_Source\PSoC4/key_touch_Sensing.c ****                             {
2009:Generated_Source\PSoC4/key_touch_Sensing.c ****                                 /* rowSnsClk is valid*/
2010:Generated_Source\PSoC4/key_touch_Sensing.c ****                             }
2011:Generated_Source\PSoC4/key_touch_Sensing.c ****                         #else
2012:Generated_Source\PSoC4/key_touch_Sensing.c ****                             #if (key_touch_ENABLE == key_touch_IS_M0S8PERI_BLOCK)
2013:Generated_Source\PSoC4/key_touch_Sensing.c ****                                 /* Make sure that ModClk >= 2 * rowSnsClk */
2014:Generated_Source\PSoC4/key_touch_Sensing.c ****                                 if (key_touch_dsRam.modCsdClk >= ((uint8)(ptrWdgt->rowSnsClk << key
2015:Generated_Source\PSoC4/key_touch_Sensing.c ****                                 {
2016:Generated_Source\PSoC4/key_touch_Sensing.c ****                                      ptrWdgt->rowSnsClk = key_touch_dsRam.modCsdClk;
2017:Generated_Source\PSoC4/key_touch_Sensing.c ****                                 }
2018:Generated_Source\PSoC4/key_touch_Sensing.c ****                             #else
2019:Generated_Source\PSoC4/key_touch_Sensing.c ****                                 /* Sense clock never equals to Modulator clock for chained dividers
2020:Generated_Source\PSoC4/key_touch_Sensing.c ****                             #endif /* (key_touch_ENABLE == key_touch_CSDV2) */
ARM GAS  C:\Users\Administrator\AppData\Local\Temp\ccPYRpEO.s 			page 49


2021:Generated_Source\PSoC4/key_touch_Sensing.c ****                         #endif /* (key_touch_ENABLE == key_touch_CSDV2) */
2022:Generated_Source\PSoC4/key_touch_Sensing.c ****                     }
2023:Generated_Source\PSoC4/key_touch_Sensing.c ****                 #endif /* (key_touch_CSD_MATRIX_WIDGET_EN | key_touch_CSD_TOUCHPAD_WIDGET_EN) */
2024:Generated_Source\PSoC4/key_touch_Sensing.c **** 
2025:Generated_Source\PSoC4/key_touch_Sensing.c ****                 /* Get pointer to Modulator IDAC  for rows */
2026:Generated_Source\PSoC4/key_touch_Sensing.c ****                 autoTuneConfig.ptrModIDAC = &ptrWdgt->idacMod[0u];
2027:Generated_Source\PSoC4/key_touch_Sensing.c **** 
2028:Generated_Source\PSoC4/key_touch_Sensing.c ****                 /* Get pointer to Sense Clock Divider for columns */
2029:Generated_Source\PSoC4/key_touch_Sensing.c ****                 autoTuneConfig.ptrSenseClk = &ptrWdgt->snsClk;
2030:Generated_Source\PSoC4/key_touch_Sensing.c **** 
2031:Generated_Source\PSoC4/key_touch_Sensing.c ****                 /* Find correct sense clock value */
2032:Generated_Source\PSoC4/key_touch_Sensing.c ****                 cp = SmartSense_TunePrescalers(&autoTuneConfig);
2033:Generated_Source\PSoC4/key_touch_Sensing.c **** 
2034:Generated_Source\PSoC4/key_touch_Sensing.c ****                 if ((key_touch_CP_MAX + key_touch_CP_ERROR) <= cp)
2035:Generated_Source\PSoC4/key_touch_Sensing.c ****                 {
2036:Generated_Source\PSoC4/key_touch_Sensing.c ****                     autoTuneStatus = CYRET_BAD_DATA;
2037:Generated_Source\PSoC4/key_touch_Sensing.c ****                 }
2038:Generated_Source\PSoC4/key_touch_Sensing.c **** 
2039:Generated_Source\PSoC4/key_touch_Sensing.c ****                 #if (key_touch_ENABLE == key_touch_CSDV2)
2040:Generated_Source\PSoC4/key_touch_Sensing.c ****                     /* Make sure that ModClk >= 4 * SnsClk for ModClk <= 12 MHz and SnsClk <= 6MHz 
2041:Generated_Source\PSoC4/key_touch_Sensing.c ****                     if (autoTuneConfig.snsClkInputClock <= key_touch_MOD_CSD_CLK_24000KHZ)
2042:Generated_Source\PSoC4/key_touch_Sensing.c ****                     {
2043:Generated_Source\PSoC4/key_touch_Sensing.c ****                         if (ptrWdgt->snsClk < key_touch_FACTOR_FILTER_DELAY_12MHZ)
2044:Generated_Source\PSoC4/key_touch_Sensing.c ****                         {
2045:Generated_Source\PSoC4/key_touch_Sensing.c ****                             ptrWdgt->snsClk = key_touch_FACTOR_FILTER_DELAY_12MHZ;
2046:Generated_Source\PSoC4/key_touch_Sensing.c ****                         }
2047:Generated_Source\PSoC4/key_touch_Sensing.c ****                     }
2048:Generated_Source\PSoC4/key_touch_Sensing.c ****                     else if (autoTuneConfig.snsClkInputClock <= key_touch_MOD_CSD_CLK_48000KHZ)
2049:Generated_Source\PSoC4/key_touch_Sensing.c ****                     {
2050:Generated_Source\PSoC4/key_touch_Sensing.c ****                         if (ptrWdgt->snsClk < key_touch_FACTOR_MOD_SNS)
2051:Generated_Source\PSoC4/key_touch_Sensing.c ****                         {
2052:Generated_Source\PSoC4/key_touch_Sensing.c ****                             ptrWdgt->snsClk = key_touch_FACTOR_MOD_SNS;
2053:Generated_Source\PSoC4/key_touch_Sensing.c ****                         }
2054:Generated_Source\PSoC4/key_touch_Sensing.c ****                     }
2055:Generated_Source\PSoC4/key_touch_Sensing.c ****                     else
2056:Generated_Source\PSoC4/key_touch_Sensing.c ****                     {
2057:Generated_Source\PSoC4/key_touch_Sensing.c ****                         /* SnsClk is valid*/
2058:Generated_Source\PSoC4/key_touch_Sensing.c ****                     }
2059:Generated_Source\PSoC4/key_touch_Sensing.c ****                 #else
2060:Generated_Source\PSoC4/key_touch_Sensing.c ****                     #if (key_touch_ENABLE == key_touch_IS_M0S8PERI_BLOCK)
2061:Generated_Source\PSoC4/key_touch_Sensing.c ****                         /* Make sure that ModClk >= 2 * snsClk */
2062:Generated_Source\PSoC4/key_touch_Sensing.c ****                         if (key_touch_dsRam.modCsdClk >= ((uint8)(ptrWdgt->snsClk << key_touch_FLIP
2063:Generated_Source\PSoC4/key_touch_Sensing.c ****                         {
2064:Generated_Source\PSoC4/key_touch_Sensing.c ****                              ptrWdgt->snsClk = key_touch_dsRam.modCsdClk;
2065:Generated_Source\PSoC4/key_touch_Sensing.c ****                         }
2066:Generated_Source\PSoC4/key_touch_Sensing.c ****                     #else
2067:Generated_Source\PSoC4/key_touch_Sensing.c ****                         /* Sense clock never equals to Modulator clock for chained dividers because
2068:Generated_Source\PSoC4/key_touch_Sensing.c ****                     #endif /* (key_touch_ENABLE == key_touch_CSDV2) */
2069:Generated_Source\PSoC4/key_touch_Sensing.c ****                 #endif /* (key_touch_ENABLE == key_touch_CSDV2) */
2070:Generated_Source\PSoC4/key_touch_Sensing.c ****             }
2071:Generated_Source\PSoC4/key_touch_Sensing.c ****         }
2072:Generated_Source\PSoC4/key_touch_Sensing.c **** 
2073:Generated_Source\PSoC4/key_touch_Sensing.c ****         #if (key_touch_ENABLE == key_touch_CSD2X_EN)
2074:Generated_Source\PSoC4/key_touch_Sensing.c ****             key_touch_SsSetEqualSlotClock();
2075:Generated_Source\PSoC4/key_touch_Sensing.c ****         #endif /* (key_touch_ENABLE == key_touch_CSD2X_EN) */
2076:Generated_Source\PSoC4/key_touch_Sensing.c **** 
2077:Generated_Source\PSoC4/key_touch_Sensing.c ****         /* Set flag to indicate that calibration in PWM mode has been performed */
ARM GAS  C:\Users\Administrator\AppData\Local\Temp\ccPYRpEO.s 			page 50


2078:Generated_Source\PSoC4/key_touch_Sensing.c ****         key_touch_prescalersTuningDone = 1u;
2079:Generated_Source\PSoC4/key_touch_Sensing.c **** 
2080:Generated_Source\PSoC4/key_touch_Sensing.c ****         /* Multiply Clk divider to 2 for PRS mode to take into account average PRS frequency */
2081:Generated_Source\PSoC4/key_touch_Sensing.c ****         autoTuneConfig.prsFactor = key_touch_PRS_FACTOR_DIV;
2082:Generated_Source\PSoC4/key_touch_Sensing.c **** 
2083:Generated_Source\PSoC4/key_touch_Sensing.c ****         /* Tune sensitivity and resolution for all widgets */
2084:Generated_Source\PSoC4/key_touch_Sensing.c ****         for (wdgtIndex = 0u; wdgtIndex < key_touch_TOTAL_WIDGETS; wdgtIndex++)
2085:Generated_Source\PSoC4/key_touch_Sensing.c ****         {
2086:Generated_Source\PSoC4/key_touch_Sensing.c ****             if (key_touch_SENSE_METHOD_CSD_E ==
2087:Generated_Source\PSoC4/key_touch_Sensing.c ****                 key_touch_GET_SENSE_METHOD(&key_touch_dsFlash.wdgtArray[wdgtIndex]))
2088:Generated_Source\PSoC4/key_touch_Sensing.c ****             {
2089:Generated_Source\PSoC4/key_touch_Sensing.c ****                 ptrWdgt = (key_touch_RAM_WD_BASE_STRUCT *)
2090:Generated_Source\PSoC4/key_touch_Sensing.c ****                           key_touch_dsFlash.wdgtArray[wdgtIndex].ptr2WdgtRam;
2091:Generated_Source\PSoC4/key_touch_Sensing.c **** 
2092:Generated_Source\PSoC4/key_touch_Sensing.c ****                 /* Get pointer to Modulator IDAC for rows */
2093:Generated_Source\PSoC4/key_touch_Sensing.c ****                 autoTuneConfig.ptrModIDAC = &ptrWdgt->idacMod[0u];
2094:Generated_Source\PSoC4/key_touch_Sensing.c **** 
2095:Generated_Source\PSoC4/key_touch_Sensing.c ****                 /* Get pointer to maximum Sense Clock Divider (column or row) */
2096:Generated_Source\PSoC4/key_touch_Sensing.c ****                 autoTuneConfig.ptrSenseClk = &ptrWdgt->snsClk;
2097:Generated_Source\PSoC4/key_touch_Sensing.c **** 
2098:Generated_Source\PSoC4/key_touch_Sensing.c ****                 /* Set parasitic capacitance for columns */
2099:Generated_Source\PSoC4/key_touch_Sensing.c ****                 autoTuneConfig.sensorCap = cp;
2100:Generated_Source\PSoC4/key_touch_Sensing.c **** 
2101:Generated_Source\PSoC4/key_touch_Sensing.c ****                 #if (key_touch_CSD_MATRIX_WIDGET_EN | key_touch_CSD_TOUCHPAD_WIDGET_EN)
2102:Generated_Source\PSoC4/key_touch_Sensing.c ****                     if ((key_touch_WD_TOUCHPAD_E == (key_touch_WD_TYPE_ENUM)key_touch_dsFlash.wdgtA
2103:Generated_Source\PSoC4/key_touch_Sensing.c ****                         (key_touch_WD_MATRIX_BUTTON_E == (key_touch_WD_TYPE_ENUM)key_touch_dsFlash.
2104:Generated_Source\PSoC4/key_touch_Sensing.c **** 
2105:Generated_Source\PSoC4/key_touch_Sensing.c ****                     {
2106:Generated_Source\PSoC4/key_touch_Sensing.c ****                         /* Set the minimum sense clock frequency to calculate the resolution */
2107:Generated_Source\PSoC4/key_touch_Sensing.c ****                         if (ptrWdgt->snsClk < ptrWdgt->rowSnsClk)
2108:Generated_Source\PSoC4/key_touch_Sensing.c ****                         {
2109:Generated_Source\PSoC4/key_touch_Sensing.c ****                             /* Rewrite pointer to Sense Clock Divider for rows */
2110:Generated_Source\PSoC4/key_touch_Sensing.c ****                             autoTuneConfig.ptrSenseClk = &ptrWdgt->rowSnsClk;
2111:Generated_Source\PSoC4/key_touch_Sensing.c **** 
2112:Generated_Source\PSoC4/key_touch_Sensing.c ****                             /* Set parasitic capacitance for rows */
2113:Generated_Source\PSoC4/key_touch_Sensing.c ****                             autoTuneConfig.sensorCap = cpRow;
2114:Generated_Source\PSoC4/key_touch_Sensing.c ****                         }
2115:Generated_Source\PSoC4/key_touch_Sensing.c ****                     }
2116:Generated_Source\PSoC4/key_touch_Sensing.c ****                 #endif /* (key_touch_CSD_MATRIX_WIDGET_EN | key_touch_CSD_TOUCHPAD_WIDGET_EN) */
2117:Generated_Source\PSoC4/key_touch_Sensing.c **** 
2118:Generated_Source\PSoC4/key_touch_Sensing.c ****                 /* Get finger capacitance */
2119:Generated_Source\PSoC4/key_touch_Sensing.c ****                 autoTuneConfig.fingerCap = ptrWdgt->fingerCap;
2120:Generated_Source\PSoC4/key_touch_Sensing.c **** 
2121:Generated_Source\PSoC4/key_touch_Sensing.c ****                 /* Init pointer to sigPFC */
2122:Generated_Source\PSoC4/key_touch_Sensing.c ****                 autoTuneConfig.sigPFC = &ptrWdgt->sigPFC;
2123:Generated_Source\PSoC4/key_touch_Sensing.c **** 
2124:Generated_Source\PSoC4/key_touch_Sensing.c ****                 #if (key_touch_CLK_SOURCE_PRSAUTO == key_touch_CSD_SNS_CLK_SOURCE)
2125:Generated_Source\PSoC4/key_touch_Sensing.c ****                     key_touch_SsSetWidgetSenseClkSrc(wdgtIndex, ptrWdgt);
2126:Generated_Source\PSoC4/key_touch_Sensing.c ****                 #endif /* (key_touch_CLK_SOURCE_PRSAUTO == key_touch_CSD_SNS_CLK_SOURCE) */
2127:Generated_Source\PSoC4/key_touch_Sensing.c **** 
2128:Generated_Source\PSoC4/key_touch_Sensing.c ****                 /* Calibrate CSD widget to 85% */
2129:Generated_Source\PSoC4/key_touch_Sensing.c ****                 #if (key_touch_ENABLE == key_touch_CSD2X_EN)
2130:Generated_Source\PSoC4/key_touch_Sensing.c ****                     autoTuneStatus |=key_touch_CSD2XCalibrateWidget(wdgtIndex, key_touch_CSD_AUTOTU
2131:Generated_Source\PSoC4/key_touch_Sensing.c ****                 #else
2132:Generated_Source\PSoC4/key_touch_Sensing.c ****                     autoTuneStatus |= key_touch_CSDCalibrateWidget(wdgtIndex, key_touch_CSD_AUTOTUN
2133:Generated_Source\PSoC4/key_touch_Sensing.c ****                 #endif /* (key_touch_ENABLE == key_touch_CSD2X_EN) */
2134:Generated_Source\PSoC4/key_touch_Sensing.c **** 
ARM GAS  C:\Users\Administrator\AppData\Local\Temp\ccPYRpEO.s 			page 51


2135:Generated_Source\PSoC4/key_touch_Sensing.c ****                 /* Find resolution */
2136:Generated_Source\PSoC4/key_touch_Sensing.c ****                 ptrWdgt->resolution = SmartSense_TuneSensitivity(&autoTuneConfig);
2137:Generated_Source\PSoC4/key_touch_Sensing.c **** 
2138:Generated_Source\PSoC4/key_touch_Sensing.c ****                 #if (key_touch_CLK_SOURCE_PRSAUTO == key_touch_CSD_SNS_CLK_SOURCE)
2139:Generated_Source\PSoC4/key_touch_Sensing.c ****                     key_touch_SsSetWidgetSenseClkSrc(wdgtIndex, ptrWdgt);
2140:Generated_Source\PSoC4/key_touch_Sensing.c **** 
2141:Generated_Source\PSoC4/key_touch_Sensing.c ****                     #if (key_touch_CSD_MATRIX_WIDGET_EN | key_touch_CSD_TOUCHPAD_WIDGET_EN)
2142:Generated_Source\PSoC4/key_touch_Sensing.c ****                         if (((uint8)key_touch_CLK_SOURCE_DIRECT == ptrWdgt->snsClkSource) ||
2143:Generated_Source\PSoC4/key_touch_Sensing.c ****                             ((uint8)key_touch_CLK_SOURCE_DIRECT == ptrWdgt->rowSnsClkSource))
2144:Generated_Source\PSoC4/key_touch_Sensing.c ****                         {
2145:Generated_Source\PSoC4/key_touch_Sensing.c ****                             /* Recalibrate CSD widget to 85% because source is changed to direct */
2146:Generated_Source\PSoC4/key_touch_Sensing.c ****                             #if (key_touch_ENABLE == key_touch_CSD2X_EN)
2147:Generated_Source\PSoC4/key_touch_Sensing.c ****                                 autoTuneStatus |= key_touch_CSD2XCalibrateWidget(wdgtIndex, key_tou
2148:Generated_Source\PSoC4/key_touch_Sensing.c ****                             #else
2149:Generated_Source\PSoC4/key_touch_Sensing.c ****                                 autoTuneStatus |= key_touch_CSDCalibrateWidget(wdgtIndex, key_touch
2150:Generated_Source\PSoC4/key_touch_Sensing.c ****                             #endif /* (key_touch_ENABLE == key_touch_CSD2X_EN) */
2151:Generated_Source\PSoC4/key_touch_Sensing.c ****                         }
2152:Generated_Source\PSoC4/key_touch_Sensing.c ****                     #else
2153:Generated_Source\PSoC4/key_touch_Sensing.c ****                         if ((uint8)key_touch_CLK_SOURCE_DIRECT == ptrWdgt->snsClkSource)
2154:Generated_Source\PSoC4/key_touch_Sensing.c ****                         {
2155:Generated_Source\PSoC4/key_touch_Sensing.c ****                             /* Recalibrate CSD widget to 85% because source is changed to direct */
2156:Generated_Source\PSoC4/key_touch_Sensing.c ****                             #if (key_touch_ENABLE == key_touch_CSD2X_EN)
2157:Generated_Source\PSoC4/key_touch_Sensing.c ****                                 autoTuneStatus |= key_touch_CSD2XCalibrateWidget(wdgtIndex, key_tou
2158:Generated_Source\PSoC4/key_touch_Sensing.c ****                             #else
2159:Generated_Source\PSoC4/key_touch_Sensing.c ****                                 autoTuneStatus |= key_touch_CSDCalibrateWidget(wdgtIndex, key_touch
2160:Generated_Source\PSoC4/key_touch_Sensing.c ****                             #endif /* (key_touch_ENABLE == key_touch_CSD2X_EN) */
2161:Generated_Source\PSoC4/key_touch_Sensing.c ****                         }
2162:Generated_Source\PSoC4/key_touch_Sensing.c ****                     #endif /* (key_touch_CSD_MATRIX_WIDGET_EN | key_touch_CSD_TOUCHPAD_WIDGET_EN) *
2163:Generated_Source\PSoC4/key_touch_Sensing.c ****                 #endif /* (key_touch_CLK_SOURCE_PRSAUTO == key_touch_CSD_SNS_CLK_SOURCE) */
2164:Generated_Source\PSoC4/key_touch_Sensing.c ****                 
2165:Generated_Source\PSoC4/key_touch_Sensing.c ****                 #if (key_touch_ENABLE == key_touch_TST_WDGT_CRC_EN)
2166:Generated_Source\PSoC4/key_touch_Sensing.c ****                     key_touch_DsUpdateWidgetCrc(wdgtIndex);
2167:Generated_Source\PSoC4/key_touch_Sensing.c ****                 #endif /* (key_touch_ENABLE == key_touch_TST_WDGT_CRC_EN) */
2168:Generated_Source\PSoC4/key_touch_Sensing.c ****             }
2169:Generated_Source\PSoC4/key_touch_Sensing.c ****         }
2170:Generated_Source\PSoC4/key_touch_Sensing.c **** 
2171:Generated_Source\PSoC4/key_touch_Sensing.c ****         return autoTuneStatus;
2172:Generated_Source\PSoC4/key_touch_Sensing.c ****     }
2173:Generated_Source\PSoC4/key_touch_Sensing.c **** #endif /* (key_touch_CSD_SS_DIS != key_touch_CSD_AUTOTUNE)) */
2174:Generated_Source\PSoC4/key_touch_Sensing.c **** 
2175:Generated_Source\PSoC4/key_touch_Sensing.c **** 
2176:Generated_Source\PSoC4/key_touch_Sensing.c **** #if (key_touch_DISABLE == key_touch_CSDV2)
2177:Generated_Source\PSoC4/key_touch_Sensing.c ****     #if ((key_touch_ENABLE == key_touch_CSX_EN) || \
2178:Generated_Source\PSoC4/key_touch_Sensing.c ****          (key_touch_IDAC_SINKING == key_touch_CSD_IDAC_CONFIG))
2179:Generated_Source\PSoC4/key_touch_Sensing.c ****         /*******************************************************************************
2180:Generated_Source\PSoC4/key_touch_Sensing.c ****         * Function Name: key_touch_SsTrimIdacsSinking
2181:Generated_Source\PSoC4/key_touch_Sensing.c ****         ****************************************************************************//**
2182:Generated_Source\PSoC4/key_touch_Sensing.c ****         *
2183:Generated_Source\PSoC4/key_touch_Sensing.c ****         * \brief
2184:Generated_Source\PSoC4/key_touch_Sensing.c ****         *  This function loads trim values from SFLASH rows to calibrate
2185:Generated_Source\PSoC4/key_touch_Sensing.c ****         *  IDAC1 and IDAC2 for Sinking CSD Mode
2186:Generated_Source\PSoC4/key_touch_Sensing.c ****         *
2187:Generated_Source\PSoC4/key_touch_Sensing.c ****         * \details
2188:Generated_Source\PSoC4/key_touch_Sensing.c ****         *  Function reads trim value from SFLASH and loads it into IDAC trim register.
2189:Generated_Source\PSoC4/key_touch_Sensing.c ****         *  If Compensation IDAC is disabled the function loads trim values for IDAC1 only.
2190:Generated_Source\PSoC4/key_touch_Sensing.c ****         *
2191:Generated_Source\PSoC4/key_touch_Sensing.c ****         *******************************************************************************/
ARM GAS  C:\Users\Administrator\AppData\Local\Temp\ccPYRpEO.s 			page 52


2192:Generated_Source\PSoC4/key_touch_Sensing.c ****         static void key_touch_SsTrimIdacsSinking(void)
2193:Generated_Source\PSoC4/key_touch_Sensing.c ****         {
2194:Generated_Source\PSoC4/key_touch_Sensing.c ****             uint32 trimValue;
2195:Generated_Source\PSoC4/key_touch_Sensing.c **** 
2196:Generated_Source\PSoC4/key_touch_Sensing.c ****             #if (key_touch_ENABLE == key_touch_CSD2X_EN)
2197:Generated_Source\PSoC4/key_touch_Sensing.c **** 
2198:Generated_Source\PSoC4/key_touch_Sensing.c ****                 /* iDAC0 Sinking Mode */
2199:Generated_Source\PSoC4/key_touch_Sensing.c ****                 trimValue = CY_GET_REG32(key_touch_CSD0_TRIM2_PTR) & ~key_touch_IDAC_TRIM2_MOD_SNK_
2200:Generated_Source\PSoC4/key_touch_Sensing.c ****                 trimValue |= ((uint32)CY_GET_REG8(key_touch_CSD0_SFLASH_TRIM2_PTR) &
2201:Generated_Source\PSoC4/key_touch_Sensing.c ****                                                           key_touch_SFLASH_TRIM_IDAC_MOD_MASK) ;
2202:Generated_Source\PSoC4/key_touch_Sensing.c **** 
2203:Generated_Source\PSoC4/key_touch_Sensing.c ****                 #if (key_touch_ENABLE == key_touch_CSD_IDAC_COMP_EN)
2204:Generated_Source\PSoC4/key_touch_Sensing.c ****                     /* iDAC1 Sinking Mode */
2205:Generated_Source\PSoC4/key_touch_Sensing.c ****                     trimValue &= ~key_touch_IDAC_TRIM2_COMP_SNK_MASK;
2206:Generated_Source\PSoC4/key_touch_Sensing.c ****                     trimValue |= ((uint32)CY_GET_REG8(key_touch_CSD0_SFLASH_TRIM2_PTR) &
2207:Generated_Source\PSoC4/key_touch_Sensing.c ****                                                               key_touch_SFLASH_TRIM_IDAC_COMP_MASK)
2208:Generated_Source\PSoC4/key_touch_Sensing.c ****                 #endif /* (key_touch_ENABLE == key_touch_CSD_IDAC_COMP_EN) */
2209:Generated_Source\PSoC4/key_touch_Sensing.c **** 
2210:Generated_Source\PSoC4/key_touch_Sensing.c ****                 /* Update IDAC trim bits for gain control in current sink mode */
2211:Generated_Source\PSoC4/key_touch_Sensing.c ****                 CY_SET_REG32(key_touch_CSD0_TRIM2_PTR, trimValue);
2212:Generated_Source\PSoC4/key_touch_Sensing.c **** 
2213:Generated_Source\PSoC4/key_touch_Sensing.c ****                 /* iDAC2 Sinking Mode */
2214:Generated_Source\PSoC4/key_touch_Sensing.c ****                 trimValue = CY_GET_REG32(key_touch_CSD1_TRIM2_PTR) & ~key_touch_IDAC_TRIM2_MOD_SNK_
2215:Generated_Source\PSoC4/key_touch_Sensing.c ****                 trimValue |= ((uint32)CY_GET_REG8(key_touch_CSD1_SFLASH_TRIM2_PTR) &
2216:Generated_Source\PSoC4/key_touch_Sensing.c ****                                                           key_touch_SFLASH_TRIM_IDAC_MOD_MASK) ;
2217:Generated_Source\PSoC4/key_touch_Sensing.c **** 
2218:Generated_Source\PSoC4/key_touch_Sensing.c ****                 #if (key_touch_ENABLE == key_touch_CSD_IDAC_COMP_EN)
2219:Generated_Source\PSoC4/key_touch_Sensing.c ****                     /* iDAC3 Sinking Mode */
2220:Generated_Source\PSoC4/key_touch_Sensing.c ****                     trimValue &= ~key_touch_IDAC_TRIM2_COMP_SNK_MASK;
2221:Generated_Source\PSoC4/key_touch_Sensing.c ****                     trimValue |= ((uint32)CY_GET_REG8(key_touch_CSD1_SFLASH_TRIM2_PTR) &
2222:Generated_Source\PSoC4/key_touch_Sensing.c ****                                                               key_touch_SFLASH_TRIM_IDAC_COMP_MASK)
2223:Generated_Source\PSoC4/key_touch_Sensing.c ****                 #endif /* (key_touch_ENABLE == key_touch_CSD_IDAC_COMP_EN) */
2224:Generated_Source\PSoC4/key_touch_Sensing.c **** 
2225:Generated_Source\PSoC4/key_touch_Sensing.c ****                 /* Update IDAC trim bits for gain control in current sink mode */
2226:Generated_Source\PSoC4/key_touch_Sensing.c ****                 CY_SET_REG32(key_touch_CSD1_TRIM2_PTR, trimValue);
2227:Generated_Source\PSoC4/key_touch_Sensing.c **** 
2228:Generated_Source\PSoC4/key_touch_Sensing.c ****             #else
2229:Generated_Source\PSoC4/key_touch_Sensing.c **** 
2230:Generated_Source\PSoC4/key_touch_Sensing.c ****                 /* Mod iDAC Sinking Mode */
2231:Generated_Source\PSoC4/key_touch_Sensing.c ****                 trimValue = CY_GET_REG32(key_touch_TRIM2_PTR) & ~key_touch_IDAC_TRIM2_MOD_SNK_MASK;
2232:Generated_Source\PSoC4/key_touch_Sensing.c ****                 trimValue |= ((uint32)CY_GET_REG8(key_touch_SFLASH_TRIM2_PTR) &
2233:Generated_Source\PSoC4/key_touch_Sensing.c ****                                                           key_touch_SFLASH_TRIM_IDAC_MOD_MASK) ;
2234:Generated_Source\PSoC4/key_touch_Sensing.c **** 
2235:Generated_Source\PSoC4/key_touch_Sensing.c ****                 #if (key_touch_ENABLE == key_touch_CSD_IDAC_COMP_EN)
2236:Generated_Source\PSoC4/key_touch_Sensing.c ****                     /* Comp iDAC Sinking Mode */
2237:Generated_Source\PSoC4/key_touch_Sensing.c ****                     trimValue &= ~key_touch_IDAC_TRIM2_COMP_SNK_MASK;
