ARM GAS  C:\Users\Administrator\AppData\Local\Temp\cciVXsUn.s 			page 1


   1              		.cpu cortex-m0plus
   2              		.fpu softvfp
   3              		.eabi_attribute 20, 1
   4              		.eabi_attribute 21, 1
   5              		.eabi_attribute 23, 3
   6              		.eabi_attribute 24, 1
   7              		.eabi_attribute 25, 1
   8              		.eabi_attribute 26, 1
   9              		.eabi_attribute 30, 1
  10              		.eabi_attribute 34, 0
  11              		.eabi_attribute 18, 4
  12              		.code	16
  13              		.file	"A7105_driver.c"
  14              		.text
  15              	.Ltext0:
  16              		.cfi_sections	.debug_frame
  17              		.section	.text.buffer_length_ok,"ax",%progbits
  18              		.align	2
  19              		.code	16
  20              		.thumb_func
  21              		.type	buffer_length_ok, %function
  22              	buffer_length_ok:
  23              	.LFB5:
  24              		.file 1 "A7105_driver.c"
   1:A7105_driver.c **** /*********************************************************************
   2:A7105_driver.c **** **    Device:    A7105                                                    
   3:A7105_driver.c **** **    File:    A7105_driver.c                                                  
   4:A7105_driver.c **** **                                                                    
   5:A7105_driver.c **** **    Description:                                                     
   6:A7105_driver.c **** **    This file is a sample code for your    reference.                    
   7:A7105_driver.c **** **                                                                    
   8:A7105_driver.c **** **    Copyright (C) 2008 AMICCOM Corp.                                
   9:A7105_driver.c **** **                                                                    
  10:A7105_driver.c **** *********************************************************************/
  11:A7105_driver.c **** 
  12:A7105_driver.c **** #include "A7105_driver.h"
  13:A7105_driver.c **** #include <GIO1_ISR.h>
  14:A7105_driver.c **** 
  15:A7105_driver.c **** static Bool buffer_length_ok(uint8 length);
  16:A7105_driver.c **** static Bool CRC_check_ok(void);
  17:A7105_driver.c **** 
  18:A7105_driver.c **** /*********************************************************************
  19:A7105_driver.c **** * 模块初始化函数
  20:A7105_driver.c **** *********************************************************************/
  21:A7105_driver.c **** void A7105_init(void)
  22:A7105_driver.c **** {
  23:A7105_driver.c ****     SDIO_DDR_OUT();
  24:A7105_driver.c ****     SCS_PIN_HIGH();
  25:A7105_driver.c ****     SCK_PIN_LOW();
  26:A7105_driver.c ****     SDIO_PIN_HIGH();
  27:A7105_driver.c ****    
  28:A7105_driver.c ****     A7105_Reset();        //reset A7105 RF chip
  29:A7105_driver.c ****     A7105_WriteID();    //write ID code
  30:A7105_driver.c ****     A7105_Config();        //config A7105 chip
  31:A7105_driver.c ****     A7105_Calibration();        //calibration IF,vco, vcoc
  32:A7105_driver.c ****     
  33:A7105_driver.c ****     StrobeCmd(CMD_STBY);
ARM GAS  C:\Users\Administrator\AppData\Local\Temp\cciVXsUn.s 			page 2


  34:A7105_driver.c **** 
  35:A7105_driver.c ****     A7105_WriteReg(TXTEST_REG, 0x17 );                  //    TX power = 0dBm
  36:A7105_driver.c ****     A7105_WriteReg(DATARATE_REG, 9);                   //    Data rate = 50K
  37:A7105_driver.c ****     A7105_WriteReg(MODECTRL_REG, 0x62);               //    FIFO mode
  38:A7105_driver.c ****     A7105_WriteReg(PLL1_REG, 99 );                            // set radio channel,设置信道频率
  39:A7105_driver.c ****     A7105_WriteReg(CODE1_REG, 0x0F);                       //使能CRC校验
  40:A7105_driver.c ****     /*这里等待帧格式确定在设置payload length*/
  41:A7105_driver.c ****     A7105_WriteReg(FIFO1_REG, 20-1); // set FIFO payload length
  42:A7105_driver.c **** }
  43:A7105_driver.c **** 
  44:A7105_driver.c **** /*********************************************************************
  45:A7105_driver.c **** ** 发送数据
  46:A7105_driver.c **** *********************************************************************/
  47:A7105_driver.c **** void send_data_by_A7105(uint8 buffer_length, uint8 send_buffer[]) 
  48:A7105_driver.c **** {
  49:A7105_driver.c ****     if (buffer_length_ok(buffer_length) && send_buffer != NULL)
  50:A7105_driver.c ****     {
  51:A7105_driver.c ****         StrobeCmd(CMD_TFR);
  52:A7105_driver.c ****         WriteFIFO(buffer_length, send_buffer); 
  53:A7105_driver.c ****         
  54:A7105_driver.c ****         StrobeCmd(CMD_STBY);   //若当前是RX状态,是无法直接切换到TX状态的
  55:A7105_driver.c ****         StrobeCmd(CMD_TX);
  56:A7105_driver.c ****         //while(RF_WTR());// 浮空输入脚,A7105发送开始拉高,发送结束拉低
  57:A7105_driver.c ****         //发送完成会自动回到之前的状态StandBy
  58:A7105_driver.c ****     }
  59:A7105_driver.c ****     else
  60:A7105_driver.c ****     {
  61:A7105_driver.c ****     }
  62:A7105_driver.c **** }
  63:A7105_driver.c **** 
  64:A7105_driver.c **** Bool receive_data_by_A7105(uint8 buffer_length, uint8 receive_buffer[])
  65:A7105_driver.c **** {
  66:A7105_driver.c ****     Bool ret = FALSE;
  67:A7105_driver.c ****     
  68:A7105_driver.c ****     if (buffer_length_ok(buffer_length) && receive_buffer != NULL)
  69:A7105_driver.c ****     {
  70:A7105_driver.c **** //GIO1_ClearInterrupt();
  71:A7105_driver.c **** //GIO1_ISR_ClearPending();
  72:A7105_driver.c **** //GIO1_ISR_Enable();
  73:A7105_driver.c ****         StrobeCmd(CMD_RX);
  74:A7105_driver.c ****         if (A7105_read_wtr())          // 浮空输入脚,A7105接收开始拉高接收结束拉低
  75:A7105_driver.c ****         {
  76:A7105_driver.c ****             A7105_update_wtr(FALSE);
  77:A7105_driver.c **** //GIO1_ISR_Disable();
  78:A7105_driver.c ****             if (CRC_check_ok())
  79:A7105_driver.c ****             {
  80:A7105_driver.c ****                 ReadFIFO(buffer_length, receive_buffer);
  81:A7105_driver.c ****                 StrobeCmd(CMD_RFR);
  82:A7105_driver.c ****                 ret = TRUE;
  83:A7105_driver.c **** 
  84:A7105_driver.c ****             }
  85:A7105_driver.c ****             else
  86:A7105_driver.c ****             {
  87:A7105_driver.c ****                 
  88:A7105_driver.c ****             }
  89:A7105_driver.c ****         }
  90:A7105_driver.c ****         //接收够payload 长度后,会自动从RX状态返回到STANDBY状态
ARM GAS  C:\Users\Administrator\AppData\Local\Temp\cciVXsUn.s 			page 3


  91:A7105_driver.c ****     }
  92:A7105_driver.c ****     else
  93:A7105_driver.c ****     {
  94:A7105_driver.c ****     }
  95:A7105_driver.c **** 
  96:A7105_driver.c ****     return ret;
  97:A7105_driver.c **** }
  98:A7105_driver.c **** 
  99:A7105_driver.c **** void A7105_sleep(void)
 100:A7105_driver.c **** {
 101:A7105_driver.c ****     StrobeCmd(CMD_SLEEP);
 102:A7105_driver.c **** }
 103:A7105_driver.c **** 
 104:A7105_driver.c **** void A7105_wakeup(void)
 105:A7105_driver.c **** {
 106:A7105_driver.c ****     StrobeCmd(CMD_STBY);
 107:A7105_driver.c **** }
 108:A7105_driver.c **** 
 109:A7105_driver.c **** static Bool buffer_length_ok(uint8 length)
 110:A7105_driver.c **** {
  25              		.loc 1 110 0
  26              		.cfi_startproc
  27              	.LVL0:
 111:A7105_driver.c ****     if (length >= 0 && length <= MAX_BUFFER_SIZE)
  28              		.loc 1 111 0
  29 0000 4028     		cmp	r0, #64
  30 0002 01D8     		bhi	.L3
 112:A7105_driver.c ****         return TRUE;
  31              		.loc 1 112 0
  32 0004 0120     		mov	r0, #1
  33              	.LVL1:
  34 0006 00E0     		b	.L2
  35              	.LVL2:
  36              	.L3:
 113:A7105_driver.c ****     else
 114:A7105_driver.c ****         return FALSE;
  37              		.loc 1 114 0
  38 0008 0020     		mov	r0, #0
  39              	.LVL3:
  40              	.L2:
 115:A7105_driver.c **** }
  41              		.loc 1 115 0
  42              		@ sp needed
  43 000a 7047     		bx	lr
  44              		.cfi_endproc
  45              	.LFE5:
  46              		.size	buffer_length_ok, .-buffer_length_ok
  47              		.section	.text.CRC_check_ok,"ax",%progbits
  48              		.align	2
  49              		.code	16
  50              		.thumb_func
  51              		.type	CRC_check_ok, %function
  52              	CRC_check_ok:
  53              	.LFB6:
 116:A7105_driver.c **** 
 117:A7105_driver.c **** static Bool CRC_check_ok(void)
 118:A7105_driver.c **** {
ARM GAS  C:\Users\Administrator\AppData\Local\Temp\cciVXsUn.s 			page 4


  54              		.loc 1 118 0
  55              		.cfi_startproc
  56 0000 08B5     		push	{r3, lr}
  57              		.cfi_def_cfa_offset 8
  58              		.cfi_offset 3, -8
  59              		.cfi_offset 14, -4
 119:A7105_driver.c ****     uint8 temp;
 120:A7105_driver.c ****     
 121:A7105_driver.c ****     temp = A7105_ReadReg(MODE_REG);
  60              		.loc 1 121 0
  61 0002 0020     		mov	r0, #0
  62 0004 FFF7FEFF 		bl	A7105_ReadReg
  63              	.LVL4:
 122:A7105_driver.c ****     
 123:A7105_driver.c ****     if (temp & 0x20)
  64              		.loc 1 123 0
  65 0008 8306     		lsl	r3, r0, #26
  66 000a 01D5     		bpl	.L6
 124:A7105_driver.c ****         return FALSE;
  67              		.loc 1 124 0
  68 000c 0020     		mov	r0, #0
  69              	.LVL5:
  70 000e 00E0     		b	.L5
  71              	.LVL6:
  72              	.L6:
 125:A7105_driver.c ****     else
 126:A7105_driver.c ****         return TRUE;
  73              		.loc 1 126 0
  74 0010 0120     		mov	r0, #1
  75              	.LVL7:
  76              	.L5:
 127:A7105_driver.c **** }
  77              		.loc 1 127 0
  78              		@ sp needed
  79 0012 08BD     		pop	{r3, pc}
  80              		.cfi_endproc
  81              	.LFE6:
  82              		.size	CRC_check_ok, .-CRC_check_ok
  83              		.section	.text.A7105_init,"ax",%progbits
  84              		.align	2
  85              		.global	A7105_init
  86              		.code	16
  87              		.thumb_func
  88              		.type	A7105_init, %function
  89              	A7105_init:
  90              	.LFB0:
  22:A7105_driver.c ****     SDIO_DDR_OUT();
  91              		.loc 1 22 0
  92              		.cfi_startproc
  93 0000 08B5     		push	{r3, lr}
  94              		.cfi_def_cfa_offset 8
  95              		.cfi_offset 3, -8
  96              		.cfi_offset 14, -4
  23:A7105_driver.c ****     SCS_PIN_HIGH();
  97              		.loc 1 23 0
  98              	@ 23 "A7105_driver.c" 1
  99 0002 C046     		nop
ARM GAS  C:\Users\Administrator\AppData\Local\Temp\cciVXsUn.s 			page 5


 100              	@ 0 "" 2
  24:A7105_driver.c ****     SCK_PIN_LOW();
 101              		.loc 1 24 0
 102              		.code	16
 103 0004 0120     		mov	r0, #1
 104 0006 FFF7FEFF 		bl	SCS_Write
 105              	.LVL8:
  25:A7105_driver.c ****     SDIO_PIN_HIGH();
 106              		.loc 1 25 0
 107 000a 0020     		mov	r0, #0
 108 000c FFF7FEFF 		bl	SCK_Write
 109              	.LVL9:
  26:A7105_driver.c ****    
 110              		.loc 1 26 0
 111 0010 0120     		mov	r0, #1
 112 0012 FFF7FEFF 		bl	SDIO_Write
 113              	.LVL10:
  28:A7105_driver.c ****     A7105_WriteID();    //write ID code
 114              		.loc 1 28 0
 115 0016 FFF7FEFF 		bl	A7105_Reset
 116              	.LVL11:
  29:A7105_driver.c ****     A7105_Config();        //config A7105 chip
 117              		.loc 1 29 0
 118 001a FFF7FEFF 		bl	A7105_WriteID
 119              	.LVL12:
  30:A7105_driver.c ****     A7105_Calibration();        //calibration IF,vco, vcoc
 120              		.loc 1 30 0
 121 001e FFF7FEFF 		bl	A7105_Config
 122              	.LVL13:
  31:A7105_driver.c ****     
 123              		.loc 1 31 0
 124 0022 FFF7FEFF 		bl	A7105_Calibration
 125              	.LVL14:
  33:A7105_driver.c **** 
 126              		.loc 1 33 0
 127 0026 A020     		mov	r0, #160
 128 0028 FFF7FEFF 		bl	StrobeCmd
 129              	.LVL15:
  35:A7105_driver.c ****     A7105_WriteReg(DATARATE_REG, 9);                   //    Data rate = 50K
 130              		.loc 1 35 0
 131 002c 2820     		mov	r0, #40
 132 002e 1721     		mov	r1, #23
 133 0030 FFF7FEFF 		bl	A7105_WriteReg
 134              	.LVL16:
  36:A7105_driver.c ****     A7105_WriteReg(MODECTRL_REG, 0x62);               //    FIFO mode
 135              		.loc 1 36 0
 136 0034 0E20     		mov	r0, #14
 137 0036 0921     		mov	r1, #9
 138 0038 FFF7FEFF 		bl	A7105_WriteReg
 139              	.LVL17:
  37:A7105_driver.c ****     A7105_WriteReg(PLL1_REG, 99 );                            // set radio channel,设置信道频率
 140              		.loc 1 37 0
 141 003c 0120     		mov	r0, #1
 142 003e 6221     		mov	r1, #98
 143 0040 FFF7FEFF 		bl	A7105_WriteReg
 144              	.LVL18:
  38:A7105_driver.c ****     A7105_WriteReg(CODE1_REG, 0x0F);                       //使能CRC校验
ARM GAS  C:\Users\Administrator\AppData\Local\Temp\cciVXsUn.s 			page 6


 145              		.loc 1 38 0
 146 0044 0F20     		mov	r0, #15
 147 0046 6321     		mov	r1, #99
 148 0048 FFF7FEFF 		bl	A7105_WriteReg
 149              	.LVL19:
  39:A7105_driver.c ****     /*这里等待帧格式确定在设置payload length*/
 150              		.loc 1 39 0
 151 004c 1F20     		mov	r0, #31
 152 004e 0F21     		mov	r1, #15
 153 0050 FFF7FEFF 		bl	A7105_WriteReg
 154              	.LVL20:
  41:A7105_driver.c **** }
 155              		.loc 1 41 0
 156 0054 0320     		mov	r0, #3
 157 0056 1321     		mov	r1, #19
 158 0058 FFF7FEFF 		bl	A7105_WriteReg
 159              	.LVL21:
  42:A7105_driver.c **** 
 160              		.loc 1 42 0
 161              		@ sp needed
 162 005c 08BD     		pop	{r3, pc}
 163              		.cfi_endproc
 164              	.LFE0:
 165              		.size	A7105_init, .-A7105_init
 166 005e C046     		.section	.text.send_data_by_A7105,"ax",%progbits
 167              		.align	2
 168              		.global	send_data_by_A7105
 169              		.code	16
 170              		.thumb_func
 171              		.type	send_data_by_A7105, %function
 172              	send_data_by_A7105:
 173              	.LFB1:
  48:A7105_driver.c ****     if (buffer_length_ok(buffer_length) && send_buffer != NULL)
 174              		.loc 1 48 0
 175              		.cfi_startproc
 176              	.LVL22:
 177 0000 38B5     		push	{r3, r4, r5, lr}
 178              		.cfi_def_cfa_offset 16
 179              		.cfi_offset 3, -16
 180              		.cfi_offset 4, -12
 181              		.cfi_offset 5, -8
 182              		.cfi_offset 14, -4
 183 0002 041C     		mov	r4, r0
 184 0004 0D1C     		mov	r5, r1
  49:A7105_driver.c ****     {
 185              		.loc 1 49 0
 186 0006 FFF7FEFF 		bl	buffer_length_ok
 187              	.LVL23:
 188 000a 0028     		cmp	r0, #0
 189 000c 0ED0     		beq	.L8
  49:A7105_driver.c ****     {
 190              		.loc 1 49 0 is_stmt 0 discriminator 1
 191 000e 002D     		cmp	r5, #0
 192 0010 0CD0     		beq	.L8
  51:A7105_driver.c ****         WriteFIFO(buffer_length, send_buffer); 
 193              		.loc 1 51 0 is_stmt 1
 194 0012 E020     		mov	r0, #224
ARM GAS  C:\Users\Administrator\AppData\Local\Temp\cciVXsUn.s 			page 7


 195 0014 FFF7FEFF 		bl	StrobeCmd
 196              	.LVL24:
  52:A7105_driver.c ****         
 197              		.loc 1 52 0
 198 0018 201C     		mov	r0, r4
 199 001a 291C     		mov	r1, r5
 200 001c FFF7FEFF 		bl	WriteFIFO
 201              	.LVL25:
  54:A7105_driver.c ****         StrobeCmd(CMD_TX);
 202              		.loc 1 54 0
 203 0020 A020     		mov	r0, #160
 204 0022 FFF7FEFF 		bl	StrobeCmd
 205              	.LVL26:
  55:A7105_driver.c ****         //while(RF_WTR());// 浮空输入脚,A7105发送开始拉高,发送结束拉低
 206              		.loc 1 55 0
 207 0026 D020     		mov	r0, #208
 208 0028 FFF7FEFF 		bl	StrobeCmd
 209              	.LVL27:
 210              	.L8:
  62:A7105_driver.c **** 
 211              		.loc 1 62 0
 212              		@ sp needed
 213              	.LVL28:
 214 002c 38BD     		pop	{r3, r4, r5, pc}
 215              		.cfi_endproc
 216              	.LFE1:
 217              		.size	send_data_by_A7105, .-send_data_by_A7105
 218 002e C046     		.section	.text.receive_data_by_A7105,"ax",%progbits
 219              		.align	2
 220              		.global	receive_data_by_A7105
 221              		.code	16
 222              		.thumb_func
 223              		.type	receive_data_by_A7105, %function
 224              	receive_data_by_A7105:
 225              	.LFB2:
  65:A7105_driver.c ****     Bool ret = FALSE;
 226              		.loc 1 65 0
 227              		.cfi_startproc
 228              	.LVL29:
 229 0000 38B5     		push	{r3, r4, r5, lr}
 230              		.cfi_def_cfa_offset 16
 231              		.cfi_offset 3, -16
 232              		.cfi_offset 4, -12
 233              		.cfi_offset 5, -8
 234              		.cfi_offset 14, -4
 235 0002 041C     		mov	r4, r0
 236 0004 0D1C     		mov	r5, r1
 237              	.LVL30:
  68:A7105_driver.c ****     {
 238              		.loc 1 68 0
 239 0006 FFF7FEFF 		bl	buffer_length_ok
 240              	.LVL31:
 241 000a 0028     		cmp	r0, #0
 242 000c 18D0     		beq	.L12
  68:A7105_driver.c ****     {
 243              		.loc 1 68 0 is_stmt 0 discriminator 1
 244 000e 002D     		cmp	r5, #0
ARM GAS  C:\Users\Administrator\AppData\Local\Temp\cciVXsUn.s 			page 8


 245 0010 18D0     		beq	.L13
  73:A7105_driver.c ****         if (A7105_read_wtr())          // 浮空输入脚,A7105接收开始拉高接收结束拉低
 246              		.loc 1 73 0 is_stmt 1
 247 0012 C020     		mov	r0, #192
 248 0014 FFF7FEFF 		bl	StrobeCmd
 249              	.LVL32:
  74:A7105_driver.c ****         {
 250              		.loc 1 74 0
 251 0018 FFF7FEFF 		bl	A7105_read_wtr
 252              	.LVL33:
 253 001c 0028     		cmp	r0, #0
 254 001e 13D0     		beq	.L14
  76:A7105_driver.c **** //GIO1_ISR_Disable();
 255              		.loc 1 76 0
 256 0020 0020     		mov	r0, #0
 257 0022 FFF7FEFF 		bl	A7105_update_wtr
 258              	.LVL34:
  78:A7105_driver.c ****             {
 259              		.loc 1 78 0
 260 0026 FFF7FEFF 		bl	CRC_check_ok
 261              	.LVL35:
 262 002a 0028     		cmp	r0, #0
 263 002c 0ED0     		beq	.L15
  80:A7105_driver.c ****                 StrobeCmd(CMD_RFR);
 264              		.loc 1 80 0
 265 002e 201C     		mov	r0, r4
 266 0030 291C     		mov	r1, r5
 267 0032 FFF7FEFF 		bl	ReadFIFO
 268              	.LVL36:
  81:A7105_driver.c ****                 ret = TRUE;
 269              		.loc 1 81 0
 270 0036 F020     		mov	r0, #240
 271 0038 FFF7FEFF 		bl	StrobeCmd
 272              	.LVL37:
  82:A7105_driver.c **** 
 273              		.loc 1 82 0
 274 003c 0120     		mov	r0, #1
 275 003e 06E0     		b	.L11
 276              	.LVL38:
 277              	.L12:
  66:A7105_driver.c ****     
 278              		.loc 1 66 0
 279 0040 0020     		mov	r0, #0
 280 0042 04E0     		b	.L11
 281              	.L13:
 282 0044 0020     		mov	r0, #0
 283 0046 02E0     		b	.L11
 284              	.L14:
 285 0048 0020     		mov	r0, #0
 286 004a 00E0     		b	.L11
 287              	.L15:
 288 004c 0020     		mov	r0, #0
 289              	.LVL39:
 290              	.L11:
  97:A7105_driver.c **** 
 291              		.loc 1 97 0
 292              		@ sp needed
ARM GAS  C:\Users\Administrator\AppData\Local\Temp\cciVXsUn.s 			page 9


 293              	.LVL40:
 294 004e 38BD     		pop	{r3, r4, r5, pc}
 295              		.cfi_endproc
 296              	.LFE2:
 297              		.size	receive_data_by_A7105, .-receive_data_by_A7105
 298              		.section	.text.A7105_sleep,"ax",%progbits
 299              		.align	2
 300              		.global	A7105_sleep
 301              		.code	16
 302              		.thumb_func
 303              		.type	A7105_sleep, %function
 304              	A7105_sleep:
 305              	.LFB3:
 100:A7105_driver.c ****     StrobeCmd(CMD_SLEEP);
 306              		.loc 1 100 0
 307              		.cfi_startproc
 308 0000 08B5     		push	{r3, lr}
 309              		.cfi_def_cfa_offset 8
 310              		.cfi_offset 3, -8
 311              		.cfi_offset 14, -4
 101:A7105_driver.c **** }
 312              		.loc 1 101 0
 313 0002 8020     		mov	r0, #128
 314 0004 FFF7FEFF 		bl	StrobeCmd
 315              	.LVL41:
 102:A7105_driver.c **** 
 316              		.loc 1 102 0
 317              		@ sp needed
 318 0008 08BD     		pop	{r3, pc}
 319              		.cfi_endproc
 320              	.LFE3:
 321              		.size	A7105_sleep, .-A7105_sleep
 322 000a C046     		.section	.text.A7105_wakeup,"ax",%progbits
 323              		.align	2
 324              		.global	A7105_wakeup
 325              		.code	16
 326              		.thumb_func
 327              		.type	A7105_wakeup, %function
 328              	A7105_wakeup:
 329              	.LFB4:
 105:A7105_driver.c ****     StrobeCmd(CMD_STBY);
 330              		.loc 1 105 0
 331              		.cfi_startproc
 332 0000 08B5     		push	{r3, lr}
 333              		.cfi_def_cfa_offset 8
 334              		.cfi_offset 3, -8
 335              		.cfi_offset 14, -4
 106:A7105_driver.c **** }
 336              		.loc 1 106 0
 337 0002 A020     		mov	r0, #160
 338 0004 FFF7FEFF 		bl	StrobeCmd
 339              	.LVL42:
 107:A7105_driver.c **** 
 340              		.loc 1 107 0
 341              		@ sp needed
 342 0008 08BD     		pop	{r3, pc}
 343              		.cfi_endproc
ARM GAS  C:\Users\Administrator\AppData\Local\Temp\cciVXsUn.s 			page 10


 344              	.LFE4:
 345              		.size	A7105_wakeup, .-A7105_wakeup
 346 000a C046     		.text
 347              	.Letext0:
 348              		.file 2 "types.h"
 349              		.file 3 "A7105_firmware_lib.h"
 350              		.file 4 "Generated_Source\\PSoC4/SCS.h"
 351              		.file 5 "Generated_Source\\PSoC4/SCK.h"
 352              		.file 6 "Generated_Source\\PSoC4/SDIO.h"